SF:/Users/zwk/src_code/wp-labs/wp-motor/crates/orion_exp/src/builder/mod.rs
FN:74,_RNvMs0_NtCsjit0JYdlpo8_9orion_exp7builderINtB5_14LogicalBuilderINtNtNtNtCseivYNzHQkxG_13wp_model_core5model4data5field5FieldNtNtNtB16_5types5value5ValueENtNtNtB7_8operator7symbols10RustSymbolE3newCs48GgPJaqr2Q_9wp_config
FN:40,_RNvXNtCsjit0JYdlpo8_9orion_exp7builderINtB2_14LogicalBuilderINtNtNtNtCseivYNzHQkxG_13wp_model_core5model4data5field5FieldNtNtNtB13_5types5value5ValueENtNtNtB4_8operator7symbols10RustSymbolEINtB2_12LogicalTraitINtNtNtB4_4core5logic10ExpressionBW_B2o_EE3notCs48GgPJaqr2Q_9wp_config
FN:93,_RNvXs1_NtCsjit0JYdlpo8_9orion_exp7builderINtB5_14LogicalBuilderINtNtNtNtCseivYNzHQkxG_13wp_model_core5model4data5field5FieldNtNtNtB16_5types5value5ValueENtNtNtB7_8operator7symbols10RustSymbolEINtB5_17ExpressionBuilderBZ_B2r_E5buildCs48GgPJaqr2Q_9wp_config
FN:74,_RNvMs0_NtCsjit0JYdlpo8_9orion_exp7builderINtB5_14LogicalBuilderNtNtNtNtCs4LPn2VmCcs_3oml8language6syntax9accessors12CondAccessorNtNtNtB7_8operator7symbols9SQLSymbolE3newB17_
FN:40,_RNvXNtCsjit0JYdlpo8_9orion_exp7builderINtB2_14LogicalBuilderNtNtNtNtCs4LPn2VmCcs_3oml8language6syntax9accessors12CondAccessorNtNtNtB4_8operator7symbols9SQLSymbolEINtB2_12LogicalTraitINtNtNtB4_4core5logic10ExpressionBW_B1Z_EE3notB14_
FN:93,_RNvXs1_NtCsjit0JYdlpo8_9orion_exp7builderINtB5_14LogicalBuilderNtNtNtNtCs4LPn2VmCcs_3oml8language6syntax9accessors12CondAccessorNtNtNtB7_8operator7symbols9SQLSymbolEINtB5_17ExpressionBuilderBZ_B22_E5buildB17_
FN:74,_RNvMs0_NtCsjit0JYdlpo8_9orion_exp7builderINtB5_14LogicalBuilderNtNtNtNtCsikXTExXJHPl_3oml8language6syntax9accessors12CondAccessorNtNtNtB7_8operator7symbols9SQLSymbolE3newB17_
FN:40,_RNvXNtCsjit0JYdlpo8_9orion_exp7builderINtB2_14LogicalBuilderNtNtNtNtCsikXTExXJHPl_3oml8language6syntax9accessors12CondAccessorNtNtNtB4_8operator7symbols9SQLSymbolEINtB2_12LogicalTraitINtNtNtB4_4core5logic10ExpressionBW_B20_EE3notB14_
FN:93,_RNvXs1_NtCsjit0JYdlpo8_9orion_exp7builderINtB5_14LogicalBuilderNtNtNtNtCsikXTExXJHPl_3oml8language6syntax9accessors12CondAccessorNtNtNtB7_8operator7symbols9SQLSymbolEINtB5_17ExpressionBuilderBZ_B23_E5buildB17_
FN:74,_RNvMs0_NtCshb9zLa3hFdJ_9orion_exp7builderINtB5_14LogicalBuilderppE3newB7_
FN:36,_RNvXININtCshb9zLa3hFdJ_9orion_exp7builder0ppEINtB5_14LogicalBuilderppEINtB5_12LogicalTraitINtNtNtB7_4core5logic10ExpressionppEE2orB7_
FN:32,_RNvXININtCshb9zLa3hFdJ_9orion_exp7builder0ppEINtB5_14LogicalBuilderppEINtB5_12LogicalTraitINtNtNtB7_4core5logic10ExpressionppEE3andB7_
FN:40,_RNvXININtCshb9zLa3hFdJ_9orion_exp7builder0ppEINtB5_14LogicalBuilderppEINtB5_12LogicalTraitINtNtNtB7_4core5logic10ExpressionppEE3notB7_
FN:93,_RNvXININtCshb9zLa3hFdJ_9orion_exp7builders1_0ppEINtB5_14LogicalBuilderppEINtB5_17ExpressionBuilderppE5buildB7_
FN:57,_RNvXININtCshb9zLa3hFdJ_9orion_exp7builders_0ppEINtB5_14LogicalBuilderppEINtB5_12LogicalTraitINtNtNtB7_4core7compare10ComparisonppEE2orB7_
FN:49,_RNvXININtCshb9zLa3hFdJ_9orion_exp7builders_0ppEINtB5_14LogicalBuilderppEINtB5_12LogicalTraitINtNtNtB7_4core7compare10ComparisonppEE3andB7_
FN:65,_RNvXININtCshb9zLa3hFdJ_9orion_exp7builders_0ppEINtB5_14LogicalBuilderppEINtB5_12LogicalTraitINtNtNtB7_4core7compare10ComparisonppEE3notB7_
FN:74,_RNvMs0_NtCsjit0JYdlpo8_9orion_exp7builderINtB5_14LogicalBuildermNtNtNtB7_8operator7symbols10RustSymbolE3newCs5bUMDJqkv9q_12wp_condition
FN:40,_RNvXNtCsjit0JYdlpo8_9orion_exp7builderINtB2_14LogicalBuildermNtNtNtB4_8operator7symbols10RustSymbolEINtB2_12LogicalTraitINtNtNtB4_4core5logic10ExpressionmBX_EE3notCs5bUMDJqkv9q_12wp_condition
FN:93,_RNvXs1_NtCsjit0JYdlpo8_9orion_exp7builderINtB5_14LogicalBuildermNtNtNtB7_8operator7symbols10RustSymbolEINtB5_17ExpressionBuildermB10_E5buildCs5bUMDJqkv9q_12wp_condition
FN:74,_RNvMs0_NtCsjit0JYdlpo8_9orion_exp7builderINtB5_14LogicalBuilderINtNtNtNtCseivYNzHQkxG_13wp_model_core5model4data5field5FieldNtNtNtB16_5types5value5ValueENtNtNtB7_8operator7symbols10RustSymbolE3newCsiL6gS0SCXXG_9wp_config
FN:36,_RNvXNtCsjit0JYdlpo8_9orion_exp7builderINtB2_14LogicalBuilderINtNtNtNtCseivYNzHQkxG_13wp_model_core5model4data5field5FieldNtNtNtB13_5types5value5ValueENtNtNtB4_8operator7symbols10RustSymbolEINtB2_12LogicalTraitINtNtNtB4_4core5logic10ExpressionBW_B2o_EE2orCsiL6gS0SCXXG_9wp_config
FN:40,_RNvXNtCsjit0JYdlpo8_9orion_exp7builderINtB2_14LogicalBuilderINtNtNtNtCseivYNzHQkxG_13wp_model_core5model4data5field5FieldNtNtNtB13_5types5value5ValueENtNtNtB4_8operator7symbols10RustSymbolEINtB2_12LogicalTraitINtNtNtB4_4core5logic10ExpressionBW_B2o_EE3notCsiL6gS0SCXXG_9wp_config
FN:93,_RNvXs1_NtCsjit0JYdlpo8_9orion_exp7builderINtB5_14LogicalBuilderINtNtNtNtCseivYNzHQkxG_13wp_model_core5model4data5field5FieldNtNtNtB16_5types5value5ValueENtNtNtB7_8operator7symbols10RustSymbolEINtB5_17ExpressionBuilderBZ_B2r_E5buildCsiL6gS0SCXXG_9wp_config
FN:49,_RNvXs_NtCsjit0JYdlpo8_9orion_exp7builderINtB4_14LogicalBuilderINtNtNtNtCseivYNzHQkxG_13wp_model_core5model4data5field5FieldNtNtNtB15_5types5value5ValueENtNtNtB6_8operator7symbols10RustSymbolEINtB4_12LogicalTraitINtNtNtB6_4core7compare10ComparisonBY_B2q_EE3andCsiL6gS0SCXXG_9wp_config
FN:65,_RNvXs_NtCsjit0JYdlpo8_9orion_exp7builderINtB4_14LogicalBuilderINtNtNtNtCseivYNzHQkxG_13wp_model_core5model4data5field5FieldNtNtNtB15_5types5value5ValueENtNtNtB6_8operator7symbols10RustSymbolEINtB4_12LogicalTraitINtNtNtB6_4core7compare10ComparisonBY_B2q_EE3notCsiL6gS0SCXXG_9wp_config
FNDA:0,_RNvMs0_NtCsjit0JYdlpo8_9orion_exp7builderINtB5_14LogicalBuilderINtNtNtNtCseivYNzHQkxG_13wp_model_core5model4data5field5FieldNtNtNtB16_5types5value5ValueENtNtNtB7_8operator7symbols10RustSymbolE3newCs48GgPJaqr2Q_9wp_config
FNDA:0,_RNvXNtCsjit0JYdlpo8_9orion_exp7builderINtB2_14LogicalBuilderINtNtNtNtCseivYNzHQkxG_13wp_model_core5model4data5field5FieldNtNtNtB13_5types5value5ValueENtNtNtB4_8operator7symbols10RustSymbolEINtB2_12LogicalTraitINtNtNtB4_4core5logic10ExpressionBW_B2o_EE3notCs48GgPJaqr2Q_9wp_config
FNDA:0,_RNvXs1_NtCsjit0JYdlpo8_9orion_exp7builderINtB5_14LogicalBuilderINtNtNtNtCseivYNzHQkxG_13wp_model_core5model4data5field5FieldNtNtNtB16_5types5value5ValueENtNtNtB7_8operator7symbols10RustSymbolEINtB5_17ExpressionBuilderBZ_B2r_E5buildCs48GgPJaqr2Q_9wp_config
FNDA:0,_RNvMs0_NtCsjit0JYdlpo8_9orion_exp7builderINtB5_14LogicalBuilderNtNtNtNtCs4LPn2VmCcs_3oml8language6syntax9accessors12CondAccessorNtNtNtB7_8operator7symbols9SQLSymbolE3newB17_
FNDA:0,_RNvXNtCsjit0JYdlpo8_9orion_exp7builderINtB2_14LogicalBuilderNtNtNtNtCs4LPn2VmCcs_3oml8language6syntax9accessors12CondAccessorNtNtNtB4_8operator7symbols9SQLSymbolEINtB2_12LogicalTraitINtNtNtB4_4core5logic10ExpressionBW_B1Z_EE3notB14_
FNDA:0,_RNvXs1_NtCsjit0JYdlpo8_9orion_exp7builderINtB5_14LogicalBuilderNtNtNtNtCs4LPn2VmCcs_3oml8language6syntax9accessors12CondAccessorNtNtNtB7_8operator7symbols9SQLSymbolEINtB5_17ExpressionBuilderBZ_B22_E5buildB17_
FNDA:3,_RNvMs0_NtCsjit0JYdlpo8_9orion_exp7builderINtB5_14LogicalBuilderNtNtNtNtCsikXTExXJHPl_3oml8language6syntax9accessors12CondAccessorNtNtNtB7_8operator7symbols9SQLSymbolE3newB17_
FNDA:3,_RNvXNtCsjit0JYdlpo8_9orion_exp7builderINtB2_14LogicalBuilderNtNtNtNtCsikXTExXJHPl_3oml8language6syntax9accessors12CondAccessorNtNtNtB4_8operator7symbols9SQLSymbolEINtB2_12LogicalTraitINtNtNtB4_4core5logic10ExpressionBW_B20_EE3notB14_
FNDA:3,_RNvXs1_NtCsjit0JYdlpo8_9orion_exp7builderINtB5_14LogicalBuilderNtNtNtNtCsikXTExXJHPl_3oml8language6syntax9accessors12CondAccessorNtNtNtB7_8operator7symbols9SQLSymbolEINtB5_17ExpressionBuilderBZ_B23_E5buildB17_
FNDA:0,_RNvMs0_NtCshb9zLa3hFdJ_9orion_exp7builderINtB5_14LogicalBuilderppE3newB7_
FNDA:0,_RNvXININtCshb9zLa3hFdJ_9orion_exp7builder0ppEINtB5_14LogicalBuilderppEINtB5_12LogicalTraitINtNtNtB7_4core5logic10ExpressionppEE2orB7_
FNDA:0,_RNvXININtCshb9zLa3hFdJ_9orion_exp7builder0ppEINtB5_14LogicalBuilderppEINtB5_12LogicalTraitINtNtNtB7_4core5logic10ExpressionppEE3andB7_
FNDA:0,_RNvXININtCshb9zLa3hFdJ_9orion_exp7builder0ppEINtB5_14LogicalBuilderppEINtB5_12LogicalTraitINtNtNtB7_4core5logic10ExpressionppEE3notB7_
FNDA:0,_RNvXININtCshb9zLa3hFdJ_9orion_exp7builders1_0ppEINtB5_14LogicalBuilderppEINtB5_17ExpressionBuilderppE5buildB7_
FNDA:0,_RNvXININtCshb9zLa3hFdJ_9orion_exp7builders_0ppEINtB5_14LogicalBuilderppEINtB5_12LogicalTraitINtNtNtB7_4core7compare10ComparisonppEE2orB7_
FNDA:0,_RNvXININtCshb9zLa3hFdJ_9orion_exp7builders_0ppEINtB5_14LogicalBuilderppEINtB5_12LogicalTraitINtNtNtB7_4core7compare10ComparisonppEE3andB7_
FNDA:0,_RNvXININtCshb9zLa3hFdJ_9orion_exp7builders_0ppEINtB5_14LogicalBuilderppEINtB5_12LogicalTraitINtNtNtB7_4core7compare10ComparisonppEE3notB7_
FNDA:0,_RNvMs0_NtCsjit0JYdlpo8_9orion_exp7builderINtB5_14LogicalBuildermNtNtNtB7_8operator7symbols10RustSymbolE3newCs5bUMDJqkv9q_12wp_condition
FNDA:0,_RNvXNtCsjit0JYdlpo8_9orion_exp7builderINtB2_14LogicalBuildermNtNtNtB4_8operator7symbols10RustSymbolEINtB2_12LogicalTraitINtNtNtB4_4core5logic10ExpressionmBX_EE3notCs5bUMDJqkv9q_12wp_condition
FNDA:0,_RNvXs1_NtCsjit0JYdlpo8_9orion_exp7builderINtB5_14LogicalBuildermNtNtNtB7_8operator7symbols10RustSymbolEINtB5_17ExpressionBuildermB10_E5buildCs5bUMDJqkv9q_12wp_condition
FNDA:6,_RNvMs0_NtCsjit0JYdlpo8_9orion_exp7builderINtB5_14LogicalBuilderINtNtNtNtCseivYNzHQkxG_13wp_model_core5model4data5field5FieldNtNtNtB16_5types5value5ValueENtNtNtB7_8operator7symbols10RustSymbolE3newCsiL6gS0SCXXG_9wp_config
FNDA:1,_RNvXNtCsjit0JYdlpo8_9orion_exp7builderINtB2_14LogicalBuilderINtNtNtNtCseivYNzHQkxG_13wp_model_core5model4data5field5FieldNtNtNtB13_5types5value5ValueENtNtNtB4_8operator7symbols10RustSymbolEINtB2_12LogicalTraitINtNtNtB4_4core5logic10ExpressionBW_B2o_EE2orCsiL6gS0SCXXG_9wp_config
FNDA:3,_RNvXNtCsjit0JYdlpo8_9orion_exp7builderINtB2_14LogicalBuilderINtNtNtNtCseivYNzHQkxG_13wp_model_core5model4data5field5FieldNtNtNtB13_5types5value5ValueENtNtNtB4_8operator7symbols10RustSymbolEINtB2_12LogicalTraitINtNtNtB4_4core5logic10ExpressionBW_B2o_EE3notCsiL6gS0SCXXG_9wp_config
FNDA:6,_RNvXs1_NtCsjit0JYdlpo8_9orion_exp7builderINtB5_14LogicalBuilderINtNtNtNtCseivYNzHQkxG_13wp_model_core5model4data5field5FieldNtNtNtB16_5types5value5ValueENtNtNtB7_8operator7symbols10RustSymbolEINtB5_17ExpressionBuilderBZ_B2r_E5buildCsiL6gS0SCXXG_9wp_config
FNDA:1,_RNvXs_NtCsjit0JYdlpo8_9orion_exp7builderINtB4_14LogicalBuilderINtNtNtNtCseivYNzHQkxG_13wp_model_core5model4data5field5FieldNtNtNtB15_5types5value5ValueENtNtNtB6_8operator7symbols10RustSymbolEINtB4_12LogicalTraitINtNtNtB6_4core7compare10ComparisonBY_B2q_EE3andCsiL6gS0SCXXG_9wp_config
FNDA:1,_RNvXs_NtCsjit0JYdlpo8_9orion_exp7builderINtB4_14LogicalBuilderINtNtNtNtCseivYNzHQkxG_13wp_model_core5model4data5field5FieldNtNtNtB15_5types5value5ValueENtNtNtB6_8operator7symbols10RustSymbolEINtB4_12LogicalTraitINtNtNtB6_4core7compare10ComparisonBY_B2q_EE3notCsiL6gS0SCXXG_9wp_config
FNF:8
FNH:6
DA:32,0
DA:33,0
DA:34,0
DA:36,1
DA:37,1
DA:38,1
DA:40,6
DA:41,6
DA:42,6
DA:49,1
DA:50,1
DA:51,1
DA:52,1
DA:53,1
DA:55,1
DA:57,0
DA:58,0
DA:59,0
DA:60,0
DA:61,0
DA:63,0
DA:65,1
DA:66,1
DA:67,1
DA:74,9
DA:75,9
DA:76,9
DA:77,9
DA:78,9
DA:79,9
DA:80,9
DA:81,9
DA:82,9
DA:83,9
DA:84,9
DA:93,9
DA:94,9
DA:95,9
BRF:0
BRH:0
LF:38
LH:29
end_of_record
SF:/Users/zwk/src_code/wp-labs/wp-motor/crates/orion_exp/src/core/compare.rs
FN:18,_RINvMNtNtCsjit0JYdlpo8_9orion_exp4core7compareINtB3_10ComparisonINtNtNtNtCseivYNzHQkxG_13wp_model_core5model4data5field5FieldNtNtNtB17_5types5value5ValueENtNtNtB7_8operator7symbols10RustSymbolE3newNtNtCsiTraAjBDcu4_5alloc6string6StringECs48GgPJaqr2Q_9wp_config
FN:18,_RINvMNtNtCsjit0JYdlpo8_9orion_exp4core7compareINtB3_10ComparisonNtNtNtNtCs4LPn2VmCcs_3oml8language6syntax9accessors12CondAccessorNtNtNtB7_8operator7symbols9SQLSymbolE3newNtNtCsiTraAjBDcu4_5alloc6string6StringEB18_
FN:18,_RINvMNtNtCsjit0JYdlpo8_9orion_exp4core7compareINtB3_10ComparisonNtNtNtNtCsikXTExXJHPl_3oml8language6syntax9accessors12CondAccessorNtNtNtB7_8operator7symbols9SQLSymbolE3newNtNtCsiTraAjBDcu4_5alloc6string6StringEB18_
FN:18,_RINvMNtNtCshb9zLa3hFdJ_9orion_exp4core7compareINtB3_10ComparisonNtNtCsiTraAjBDcu4_5alloc6string6StringNtNtNtB7_8operator7symbols10RustSymbolE3newReEB7_
FN:18,_RINvMNtNtCshb9zLa3hFdJ_9orion_exp4core7compareINtB3_10ComparisondNtNtNtB7_8operator7symbols10RustSymbolE3newReEB7_
FN:18,_RINvMNtNtCshb9zLa3hFdJ_9orion_exp4core7compareINtB3_10ComparisonmNtNtNtB7_8operator7symbols10RustSymbolE3newReEB7_
FN:34,_RNvXs_NtNtCshb9zLa3hFdJ_9orion_exp4core7compareINtB4_10ComparisonNtNtCsiTraAjBDcu4_5alloc6string6StringNtNtNtB8_8operator7symbols10RustSymbolEINtNtB8_6traits18ConditionEvaluatorINtNtNtNtCsht3nMU9UgFu_3std11collections4hash3map7HashMapReB11_EE8evaluateB8_
FN:34,_RNvXs_NtNtCshb9zLa3hFdJ_9orion_exp4core7compareINtB4_10ComparisondNtNtNtB8_8operator7symbols10RustSymbolEINtNtB8_6traits18ConditionEvaluatorINtNtNtNtCsht3nMU9UgFu_3std11collections4hash3map7HashMapRedEE8evaluateB8_
FN:34,_RNvXs_NtNtCshb9zLa3hFdJ_9orion_exp4core7compareINtB4_10ComparisonmNtNtNtB8_8operator7symbols10RustSymbolEINtNtB8_6traits18ConditionEvaluatorINtNtNtNtCsht3nMU9UgFu_3std11collections4hash3map7HashMapRemEE8evaluateB8_
FN:18,_RINvMNtNtCsjit0JYdlpo8_9orion_exp4core7compareINtB3_10ComparisonmNtNtNtB7_8operator7symbols10RustSymbolE3newNtNtCsiTraAjBDcu4_5alloc6string6StringECs5bUMDJqkv9q_12wp_condition
FN:34,_RNvXs_NtNtCsjit0JYdlpo8_9orion_exp4core7compareINtB4_10ComparisonmNtNtNtB8_8operator7symbols10RustSymbolEINtNtB8_6traits18ConditionEvaluatorNtNtNtCs5bUMDJqkv9q_12wp_condition4cond4test4VMapE8evaluateB2k_
FN:18,_RINvMNtNtCsjit0JYdlpo8_9orion_exp4core7compareINtB3_10ComparisonINtNtNtNtCseivYNzHQkxG_13wp_model_core5model4data5field5FieldNtNtNtB17_5types5value5ValueENtNtNtB7_8operator7symbols10RustSymbolE3newNtNtCsiTraAjBDcu4_5alloc6string6StringECsiL6gS0SCXXG_9wp_config
FN:18,_RINvMNtNtCsjit0JYdlpo8_9orion_exp4core7compareINtB3_10ComparisonINtNtNtNtCseivYNzHQkxG_13wp_model_core5model4data5field5FieldNtNtNtB17_5types5value5ValueENtNtNtB7_8operator7symbols10RustSymbolE3newReECsiL6gS0SCXXG_9wp_config
FNDA:3,_RINvMNtNtCsjit0JYdlpo8_9orion_exp4core7compareINtB3_10ComparisonINtNtNtNtCseivYNzHQkxG_13wp_model_core5model4data5field5FieldNtNtNtB17_5types5value5ValueENtNtNtB7_8operator7symbols10RustSymbolE3newNtNtCsiTraAjBDcu4_5alloc6string6StringECs48GgPJaqr2Q_9wp_config
FNDA:3,_RINvMNtNtCsjit0JYdlpo8_9orion_exp4core7compareINtB3_10ComparisonNtNtNtNtCs4LPn2VmCcs_3oml8language6syntax9accessors12CondAccessorNtNtNtB7_8operator7symbols9SQLSymbolE3newNtNtCsiTraAjBDcu4_5alloc6string6StringEB18_
FNDA:31,_RINvMNtNtCsjit0JYdlpo8_9orion_exp4core7compareINtB3_10ComparisonNtNtNtNtCsikXTExXJHPl_3oml8language6syntax9accessors12CondAccessorNtNtNtB7_8operator7symbols9SQLSymbolE3newNtNtCsiTraAjBDcu4_5alloc6string6StringEB18_
FNDA:7,_RINvMNtNtCshb9zLa3hFdJ_9orion_exp4core7compareINtB3_10ComparisonNtNtCsiTraAjBDcu4_5alloc6string6StringNtNtNtB7_8operator7symbols10RustSymbolE3newReEB7_
FNDA:5,_RINvMNtNtCshb9zLa3hFdJ_9orion_exp4core7compareINtB3_10ComparisondNtNtNtB7_8operator7symbols10RustSymbolE3newReEB7_
FNDA:9,_RINvMNtNtCshb9zLa3hFdJ_9orion_exp4core7compareINtB3_10ComparisonmNtNtNtB7_8operator7symbols10RustSymbolE3newReEB7_
FNDA:17,_RNvXs_NtNtCshb9zLa3hFdJ_9orion_exp4core7compareINtB4_10ComparisonNtNtCsiTraAjBDcu4_5alloc6string6StringNtNtNtB8_8operator7symbols10RustSymbolEINtNtB8_6traits18ConditionEvaluatorINtNtNtNtCsht3nMU9UgFu_3std11collections4hash3map7HashMapReB11_EE8evaluateB8_
FNDA:14,_RNvXs_NtNtCshb9zLa3hFdJ_9orion_exp4core7compareINtB4_10ComparisondNtNtNtB8_8operator7symbols10RustSymbolEINtNtB8_6traits18ConditionEvaluatorINtNtNtNtCsht3nMU9UgFu_3std11collections4hash3map7HashMapRedEE8evaluateB8_
FNDA:25,_RNvXs_NtNtCshb9zLa3hFdJ_9orion_exp4core7compareINtB4_10ComparisonmNtNtNtB8_8operator7symbols10RustSymbolEINtNtB8_6traits18ConditionEvaluatorINtNtNtNtCsht3nMU9UgFu_3std11collections4hash3map7HashMapRemEE8evaluateB8_
FNDA:14,_RINvMNtNtCsjit0JYdlpo8_9orion_exp4core7compareINtB3_10ComparisonmNtNtNtB7_8operator7symbols10RustSymbolE3newNtNtCsiTraAjBDcu4_5alloc6string6StringECs5bUMDJqkv9q_12wp_condition
FNDA:13,_RNvXs_NtNtCsjit0JYdlpo8_9orion_exp4core7compareINtB4_10ComparisonmNtNtNtB8_8operator7symbols10RustSymbolEINtNtB8_6traits18ConditionEvaluatorNtNtNtCs5bUMDJqkv9q_12wp_condition4cond4test4VMapE8evaluateB2k_
FNDA:71,_RINvMNtNtCsjit0JYdlpo8_9orion_exp4core7compareINtB3_10ComparisonINtNtNtNtCseivYNzHQkxG_13wp_model_core5model4data5field5FieldNtNtNtB17_5types5value5ValueENtNtNtB7_8operator7symbols10RustSymbolE3newNtNtCsiTraAjBDcu4_5alloc6string6StringECsiL6gS0SCXXG_9wp_config
FNDA:4,_RINvMNtNtCsjit0JYdlpo8_9orion_exp4core7compareINtB3_10ComparisonINtNtNtNtCseivYNzHQkxG_13wp_model_core5model4data5field5FieldNtNtNtB17_5types5value5ValueENtNtNtB7_8operator7symbols10RustSymbolE3newReECsiL6gS0SCXXG_9wp_config
FNF:2
FNH:2
DA:18,147
DA:19,147
DA:20,147
DA:21,147
DA:22,147
DA:23,147
DA:24,147
DA:25,147
DA:34,69
DA:38,69
DA:39,67
DA:40,2
DA:41,2
DA:42,69
BRF:0
BRH:0
LF:14
LH:14
end_of_record
SF:/Users/zwk/src_code/wp-labs/wp-motor/crates/orion_exp/src/core/logic.rs
FN:45,_RNvMs_NtNtCsjit0JYdlpo8_9orion_exp4core5logicINtB4_14LogicalExpressINtNtNtNtCseivYNzHQkxG_13wp_model_core5model4data5field5FieldNtNtNtB1a_5types5value5ValueENtNtNtB8_8operator7symbols10RustSymbolE3newCs48GgPJaqr2Q_9wp_config
FN:45,_RNvMs_NtNtCsjit0JYdlpo8_9orion_exp4core5logicINtB4_14LogicalExpressNtNtNtNtCs4LPn2VmCcs_3oml8language6syntax9accessors12CondAccessorNtNtNtB8_8operator7symbols9SQLSymbolE3newB1b_
FN:45,_RNvMs_NtNtCsjit0JYdlpo8_9orion_exp4core5logicINtB4_14LogicalExpressNtNtNtNtCsikXTExXJHPl_3oml8language6syntax9accessors12CondAccessorNtNtNtB8_8operator7symbols9SQLSymbolE3newB1b_
FN:33,_RNvXNtNtCsjit0JYdlpo8_9orion_exp4core5logicINtB2_10ExpressionNtNtNtNtCsikXTExXJHPl_3oml8language6syntax9accessors12CondAccessorNtNtNtB6_8operator7symbols9SQLSymbolENtNtCsaNl6UpbT7bw_4core3fmt7Display3fmtB15_
FN:33,_RNvXININtNtCshb9zLa3hFdJ_9orion_exp4core5logic0ppEINtB5_10ExpressionppENtNtCsaNl6UpbT7bw_4core3fmt7Display3fmtB9_
FN:45,_RNvMs_NtNtCshb9zLa3hFdJ_9orion_exp4core5logicINtB4_14LogicalExpressmNtNtNtB8_8operator7symbols10RustSymbolE3newB8_
FN:45,_RNvMs_NtNtCsjit0JYdlpo8_9orion_exp4core5logicINtB4_14LogicalExpressmNtNtNtB8_8operator7symbols10RustSymbolE3newCs5bUMDJqkv9q_12wp_condition
FN:45,_RNvMs_NtNtCsjit0JYdlpo8_9orion_exp4core5logicINtB4_14LogicalExpressINtNtNtNtCseivYNzHQkxG_13wp_model_core5model4data5field5FieldNtNtNtB1a_5types5value5ValueENtNtNtB8_8operator7symbols10RustSymbolE3newCsiL6gS0SCXXG_9wp_config
FN:33,_RNvXNtNtCsjit0JYdlpo8_9orion_exp4core5logicINtB2_10ExpressionINtNtNtNtCseivYNzHQkxG_13wp_model_core5model4data5field5FieldNtNtNtB14_5types5value5ValueENtNtNtB6_8operator7symbols10RustSymbolENtNtCsaNl6UpbT7bw_4core3fmt7Display3fmtCsiL6gS0SCXXG_9wp_config
FNDA:0,_RNvMs_NtNtCsjit0JYdlpo8_9orion_exp4core5logicINtB4_14LogicalExpressINtNtNtNtCseivYNzHQkxG_13wp_model_core5model4data5field5FieldNtNtNtB1a_5types5value5ValueENtNtNtB8_8operator7symbols10RustSymbolE3newCs48GgPJaqr2Q_9wp_config
FNDA:0,_RNvMs_NtNtCsjit0JYdlpo8_9orion_exp4core5logicINtB4_14LogicalExpressNtNtNtNtCs4LPn2VmCcs_3oml8language6syntax9accessors12CondAccessorNtNtNtB8_8operator7symbols9SQLSymbolE3newB1b_
FNDA:12,_RNvMs_NtNtCsjit0JYdlpo8_9orion_exp4core5logicINtB4_14LogicalExpressNtNtNtNtCsikXTExXJHPl_3oml8language6syntax9accessors12CondAccessorNtNtNtB8_8operator7symbols9SQLSymbolE3newB1b_
FNDA:18,_RNvXNtNtCsjit0JYdlpo8_9orion_exp4core5logicINtB2_10ExpressionNtNtNtNtCsikXTExXJHPl_3oml8language6syntax9accessors12CondAccessorNtNtNtB6_8operator7symbols9SQLSymbolENtNtCsaNl6UpbT7bw_4core3fmt7Display3fmtB15_
FNDA:0,_RNvXININtNtCshb9zLa3hFdJ_9orion_exp4core5logic0ppEINtB5_10ExpressionppENtNtCsaNl6UpbT7bw_4core3fmt7Display3fmtB9_
FNDA:3,_RNvMs_NtNtCshb9zLa3hFdJ_9orion_exp4core5logicINtB4_14LogicalExpressmNtNtNtB8_8operator7symbols10RustSymbolE3newB8_
FNDA:5,_RNvMs_NtNtCsjit0JYdlpo8_9orion_exp4core5logicINtB4_14LogicalExpressmNtNtNtB8_8operator7symbols10RustSymbolE3newCs5bUMDJqkv9q_12wp_condition
FNDA:42,_RNvMs_NtNtCsjit0JYdlpo8_9orion_exp4core5logicINtB4_14LogicalExpressINtNtNtNtCseivYNzHQkxG_13wp_model_core5model4data5field5FieldNtNtNtB1a_5types5value5ValueENtNtNtB8_8operator7symbols10RustSymbolE3newCsiL6gS0SCXXG_9wp_config
FNDA:50,_RNvXNtNtCsjit0JYdlpo8_9orion_exp4core5logicINtB2_10ExpressionINtNtNtNtCseivYNzHQkxG_13wp_model_core5model4data5field5FieldNtNtNtB14_5types5value5ValueENtNtNtB6_8operator7symbols10RustSymbolENtNtCsaNl6UpbT7bw_4core3fmt7Display3fmtCsiL6gS0SCXXG_9wp_config
FNF:2
FNH:2
DA:33,68
DA:34,68
DA:35,34
DA:36,34
DA:38,68
DA:45,62
DA:46,62
DA:47,62
DA:48,62
DA:49,62
DA:50,62
DA:51,62
DA:52,62
BRF:0
BRH:0
LF:13
LH:13
end_of_record
SF:/Users/zwk/src_code/wp-labs/wp-motor/crates/orion_exp/src/display/mod.rs
FN:13,_RNvXNtCsjit0JYdlpo8_9orion_exp7displayINtNtNtB4_4core5logic14LogicalExpressNtNtNtNtCsikXTExXJHPl_3oml8language6syntax9accessors12CondAccessorNtNtNtB4_8operator7symbols9SQLSymbolENtNtCsaNl6UpbT7bw_4core3fmt7Display3fmtB1j_
FN:49,_RNvXs_NtCsjit0JYdlpo8_9orion_exp7displayINtNtNtB6_4core7compare10ComparisonNtNtNtNtCsikXTExXJHPl_3oml8language6syntax9accessors12CondAccessorNtNtNtB6_8operator7symbols9SQLSymbolENtNtCsaNl6UpbT7bw_4core3fmt7Display3fmtB1j_
FN:13,_RNvXININtCshb9zLa3hFdJ_9orion_exp7display0ppEINtNtNtB7_4core5logic14LogicalExpressppENtNtCsaNl6UpbT7bw_4core3fmt7Display3fmtB7_
FN:49,_RNvXININtCshb9zLa3hFdJ_9orion_exp7displays_0ppEINtNtNtB7_4core7compare10ComparisonppENtNtCsaNl6UpbT7bw_4core3fmt7Display3fmtB7_
FN:13,_RNvXNtCsjit0JYdlpo8_9orion_exp7displayINtNtNtB4_4core5logic14LogicalExpressINtNtNtNtCseivYNzHQkxG_13wp_model_core5model4data5field5FieldNtNtNtB1i_5types5value5ValueENtNtNtB4_8operator7symbols10RustSymbolENtNtCsaNl6UpbT7bw_4core3fmt7Display3fmtCsiL6gS0SCXXG_9wp_config
FN:49,_RNvXs_NtCsjit0JYdlpo8_9orion_exp7displayINtNtNtB6_4core7compare10ComparisonINtNtNtNtCseivYNzHQkxG_13wp_model_core5model4data5field5FieldNtNtNtB1i_5types5value5ValueENtNtNtB6_8operator7symbols10RustSymbolENtNtCsaNl6UpbT7bw_4core3fmt7Display3fmtCsiL6gS0SCXXG_9wp_config
FNDA:9,_RNvXNtCsjit0JYdlpo8_9orion_exp7displayINtNtNtB4_4core5logic14LogicalExpressNtNtNtNtCsikXTExXJHPl_3oml8language6syntax9accessors12CondAccessorNtNtNtB4_8operator7symbols9SQLSymbolENtNtCsaNl6UpbT7bw_4core3fmt7Display3fmtB1j_
FNDA:15,_RNvXs_NtCsjit0JYdlpo8_9orion_exp7displayINtNtNtB6_4core7compare10ComparisonNtNtNtNtCsikXTExXJHPl_3oml8language6syntax9accessors12CondAccessorNtNtNtB6_8operator7symbols9SQLSymbolENtNtCsaNl6UpbT7bw_4core3fmt7Display3fmtB1j_
FNDA:0,_RNvXININtCshb9zLa3hFdJ_9orion_exp7display0ppEINtNtNtB7_4core5logic14LogicalExpressppENtNtCsaNl6UpbT7bw_4core3fmt7Display3fmtB7_
FNDA:0,_RNvXININtCshb9zLa3hFdJ_9orion_exp7displays_0ppEINtNtNtB7_4core7compare10ComparisonppENtNtCsaNl6UpbT7bw_4core3fmt7Display3fmtB7_
FNDA:37,_RNvXNtCsjit0JYdlpo8_9orion_exp7displayINtNtNtB4_4core5logic14LogicalExpressINtNtNtNtCseivYNzHQkxG_13wp_model_core5model4data5field5FieldNtNtNtB1i_5types5value5ValueENtNtNtB4_8operator7symbols10RustSymbolENtNtCsaNl6UpbT7bw_4core3fmt7Display3fmtCsiL6gS0SCXXG_9wp_config
FNDA:48,_RNvXs_NtCsjit0JYdlpo8_9orion_exp7displayINtNtNtB6_4core7compare10ComparisonINtNtNtNtCseivYNzHQkxG_13wp_model_core5model4data5field5FieldNtNtNtB1i_5types5value5ValueENtNtNtB6_8operator7symbols10RustSymbolENtNtCsaNl6UpbT7bw_4core3fmt7Display3fmtCsiL6gS0SCXXG_9wp_config
FNF:2
FNH:2
DA:13,46
DA:14,46
DA:15,41
DA:16,12
DA:18,3
DA:21,9
DA:24,29
DA:25,29
DA:28,5
DA:29,46
DA:30,15
DA:32,0
DA:35,15
DA:38,31
DA:39,31
DA:42,46
DA:49,63
DA:50,63
DA:51,63
DA:52,63
DA:53,63
DA:54,63
DA:55,63
DA:57,63
BRF:0
BRH:0
LF:24
LH:23
end_of_record
SF:/Users/zwk/src_code/wp-labs/wp-motor/crates/orion_exp/src/evaluator/cmp_pri.rs
FN:32,_RNvMNtNtCsjit0JYdlpo8_9orion_exp9evaluator7cmp_priNtB2_3Lru10get_or_put
FN:19,_RNvMNtNtCsjit0JYdlpo8_9orion_exp9evaluator7cmp_priNtB2_3Lru3new
FN:26,_RNvMNtNtCsjit0JYdlpo8_9orion_exp9evaluator7cmp_priNtB2_3Lru5touch
FN:53,_RNvNtNtCsjit0JYdlpo8_9orion_exp9evaluator7cmp_pri21lru_capacity_from_env
FN:135,_RNvXs2_NtNtCsjit0JYdlpo8_9orion_exp9evaluator7cmp_prixNtNtB9_6traits15WildcardMatcher7matches
FN:140,_RNvXs3_NtNtCsjit0JYdlpo8_9orion_exp9evaluator7cmp_pribNtNtB9_6traits15WildcardMatcher7matches
FN:146,_RNvXs4_NtNtCsjit0JYdlpo8_9orion_exp9evaluator7cmp_primNtNtB9_6traits15WildcardMatcher7matches
FN:151,_RNvXs5_NtNtCsjit0JYdlpo8_9orion_exp9evaluator7cmp_prioNtNtB9_6traits15WildcardMatcher7matches
FN:156,_RNvXs6_NtNtCsjit0JYdlpo8_9orion_exp9evaluator7cmp_priyNtNtB9_6traits15WildcardMatcher7matches
FN:162,_RNvXs7_NtNtCsjit0JYdlpo8_9orion_exp9evaluator7cmp_pridNtNtB9_6traits15WildcardMatcher7matches
FN:172,_RNvXs8_NtNtCsjit0JYdlpo8_9orion_exp9evaluator7cmp_priNtNtNtCsaNl6UpbT7bw_4core3net7ip_addr6IpAddrNtNtB9_6traits15WildcardMatcher7matches
FN:184,_RNvXsa_NtNtCsjit0JYdlpo8_9orion_exp9evaluator7cmp_priNtNtNtCsbtPDpwPIZN7_6chrono5naive8datetime13NaiveDateTimeNtNtB9_6traits15WildcardMatcher7matches
FN:69,_RNvXs_NtNtCsjit0JYdlpo8_9orion_exp9evaluator7cmp_priNtNtCsiTraAjBDcu4_5alloc6string6StringNtNtB8_6traits15WildcardMatcher7matches
FN:27,_RNCNvMNtNtCsjit0JYdlpo8_9orion_exp9evaluator7cmp_priNtB4_3Lru5touch0B8_
FN:57,_RNCNvNtNtCsjit0JYdlpo8_9orion_exp9evaluator7cmp_pri21lru_capacity_from_env0B7_
FN:95,_RNCNvXs0_NtNtCsjit0JYdlpo8_9orion_exp9evaluator7cmp_priNtNtCsEZclS4oyUe_6arcstr7arc_str6ArcStrNtNtBb_6traits15WildcardMatcher7matches0Bb_
FN:117,_RNCNvXs1_NtNtCsjit0JYdlpo8_9orion_exp9evaluator7cmp_priNtCs3h3hHiwJPMn_8smol_str7SmolStrNtNtBb_6traits15WildcardMatcher7matches0Bb_
FN:73,_RNCNvXs_NtNtCsjit0JYdlpo8_9orion_exp9evaluator7cmp_priNtNtCsiTraAjBDcu4_5alloc6string6StringNtNtBa_6traits15WildcardMatcher7matches0Ba_
FN:113,_RNvXs1_NtNtCsjit0JYdlpo8_9orion_exp9evaluator7cmp_priNtCs3h3hHiwJPMn_8smol_str7SmolStrNtNtB9_6traits15WildcardMatcher7matches
FN:95,_RNCNvXs0_NtNtCshb9zLa3hFdJ_9orion_exp9evaluator7cmp_priNtNtCsEZclS4oyUe_6arcstr7arc_str6ArcStrNtNtBb_6traits15WildcardMatcher7matches0Bb_
FN:117,_RNCNvXs1_NtNtCshb9zLa3hFdJ_9orion_exp9evaluator7cmp_priNtCs3h3hHiwJPMn_8smol_str7SmolStrNtNtBb_6traits15WildcardMatcher7matches0Bb_
FN:91,_RNvXs0_NtNtCshb9zLa3hFdJ_9orion_exp9evaluator7cmp_priNtNtCsEZclS4oyUe_6arcstr7arc_str6ArcStrNtNtB9_6traits15WildcardMatcher7matches
FN:113,_RNvXs1_NtNtCshb9zLa3hFdJ_9orion_exp9evaluator7cmp_priNtCs3h3hHiwJPMn_8smol_str7SmolStrNtNtB9_6traits15WildcardMatcher7matches
FN:135,_RNvXs2_NtNtCshb9zLa3hFdJ_9orion_exp9evaluator7cmp_prixNtNtB9_6traits15WildcardMatcher7matches
FN:140,_RNvXs3_NtNtCshb9zLa3hFdJ_9orion_exp9evaluator7cmp_pribNtNtB9_6traits15WildcardMatcher7matches
FN:151,_RNvXs5_NtNtCshb9zLa3hFdJ_9orion_exp9evaluator7cmp_prioNtNtB9_6traits15WildcardMatcher7matches
FN:156,_RNvXs6_NtNtCshb9zLa3hFdJ_9orion_exp9evaluator7cmp_priyNtNtB9_6traits15WildcardMatcher7matches
FN:172,_RNvXs8_NtNtCshb9zLa3hFdJ_9orion_exp9evaluator7cmp_priNtNtNtCsaNl6UpbT7bw_4core3net7ip_addr6IpAddrNtNtB9_6traits15WildcardMatcher7matches
FN:178,_RNvXs9_NtNtCshb9zLa3hFdJ_9orion_exp9evaluator7cmp_priNtNtCseVKhMyAkjvk_5ipnet5ipnet5IpNetNtNtB9_6traits15WildcardMatcher7matches
FN:184,_RNvXsa_NtNtCshb9zLa3hFdJ_9orion_exp9evaluator7cmp_priNtNtNtCsbtPDpwPIZN7_6chrono5naive8datetime13NaiveDateTimeNtNtB9_6traits15WildcardMatcher7matches
FN:32,_RNvMNtNtCshb9zLa3hFdJ_9orion_exp9evaluator7cmp_priNtB2_3Lru10get_or_put
FN:19,_RNvMNtNtCshb9zLa3hFdJ_9orion_exp9evaluator7cmp_priNtB2_3Lru3new
FN:26,_RNvMNtNtCshb9zLa3hFdJ_9orion_exp9evaluator7cmp_priNtB2_3Lru5touch
FN:53,_RNvNtNtCshb9zLa3hFdJ_9orion_exp9evaluator7cmp_pri21lru_capacity_from_env
FN:146,_RNvXs4_NtNtCshb9zLa3hFdJ_9orion_exp9evaluator7cmp_primNtNtB9_6traits15WildcardMatcher7matches
FN:162,_RNvXs7_NtNtCshb9zLa3hFdJ_9orion_exp9evaluator7cmp_pridNtNtB9_6traits15WildcardMatcher7matches
FN:69,_RNvXs_NtNtCshb9zLa3hFdJ_9orion_exp9evaluator7cmp_priNtNtCsiTraAjBDcu4_5alloc6string6StringNtNtB8_6traits15WildcardMatcher7matches
FN:27,_RNCNvMNtNtCshb9zLa3hFdJ_9orion_exp9evaluator7cmp_priNtB4_3Lru5touch0B8_
FN:57,_RNCNvNtNtCshb9zLa3hFdJ_9orion_exp9evaluator7cmp_pri21lru_capacity_from_env0B7_
FN:73,_RNCNvXs_NtNtCshb9zLa3hFdJ_9orion_exp9evaluator7cmp_priNtNtCsiTraAjBDcu4_5alloc6string6StringNtNtBa_6traits15WildcardMatcher7matches0Ba_
FNDA:4,_RNvMNtNtCsjit0JYdlpo8_9orion_exp9evaluator7cmp_priNtB2_3Lru10get_or_put
FNDA:3,_RNvMNtNtCsjit0JYdlpo8_9orion_exp9evaluator7cmp_priNtB2_3Lru3new
FNDA:0,_RNvMNtNtCsjit0JYdlpo8_9orion_exp9evaluator7cmp_priNtB2_3Lru5touch
FNDA:3,_RNvNtNtCsjit0JYdlpo8_9orion_exp9evaluator7cmp_pri21lru_capacity_from_env
FNDA:1,_RNvXs2_NtNtCsjit0JYdlpo8_9orion_exp9evaluator7cmp_prixNtNtB9_6traits15WildcardMatcher7matches
FNDA:0,_RNvXs3_NtNtCsjit0JYdlpo8_9orion_exp9evaluator7cmp_pribNtNtB9_6traits15WildcardMatcher7matches
FNDA:1,_RNvXs4_NtNtCsjit0JYdlpo8_9orion_exp9evaluator7cmp_primNtNtB9_6traits15WildcardMatcher7matches
FNDA:0,_RNvXs5_NtNtCsjit0JYdlpo8_9orion_exp9evaluator7cmp_prioNtNtB9_6traits15WildcardMatcher7matches
FNDA:0,_RNvXs6_NtNtCsjit0JYdlpo8_9orion_exp9evaluator7cmp_priyNtNtB9_6traits15WildcardMatcher7matches
FNDA:0,_RNvXs7_NtNtCsjit0JYdlpo8_9orion_exp9evaluator7cmp_pridNtNtB9_6traits15WildcardMatcher7matches
FNDA:1,_RNvXs8_NtNtCsjit0JYdlpo8_9orion_exp9evaluator7cmp_priNtNtNtCsaNl6UpbT7bw_4core3net7ip_addr6IpAddrNtNtB9_6traits15WildcardMatcher7matches
FNDA:0,_RNvXsa_NtNtCsjit0JYdlpo8_9orion_exp9evaluator7cmp_priNtNtNtCsbtPDpwPIZN7_6chrono5naive8datetime13NaiveDateTimeNtNtB9_6traits15WildcardMatcher7matches
FNDA:0,_RNvXs_NtNtCsjit0JYdlpo8_9orion_exp9evaluator7cmp_priNtNtCsiTraAjBDcu4_5alloc6string6StringNtNtB8_6traits15WildcardMatcher7matches
FNDA:0,_RNCNvMNtNtCsjit0JYdlpo8_9orion_exp9evaluator7cmp_priNtB4_3Lru5touch0B8_
FNDA:0,_RNCNvNtNtCsjit0JYdlpo8_9orion_exp9evaluator7cmp_pri21lru_capacity_from_env0B7_
FNDA:0,_RNCNvXs0_NtNtCsjit0JYdlpo8_9orion_exp9evaluator7cmp_priNtNtCsEZclS4oyUe_6arcstr7arc_str6ArcStrNtNtBb_6traits15WildcardMatcher7matches0Bb_
FNDA:4,_RNCNvXs1_NtNtCsjit0JYdlpo8_9orion_exp9evaluator7cmp_priNtCs3h3hHiwJPMn_8smol_str7SmolStrNtNtBb_6traits15WildcardMatcher7matches0Bb_
FNDA:0,_RNCNvXs_NtNtCsjit0JYdlpo8_9orion_exp9evaluator7cmp_priNtNtCsiTraAjBDcu4_5alloc6string6StringNtNtBa_6traits15WildcardMatcher7matches0Ba_
FNDA:4,_RNvXs1_NtNtCsjit0JYdlpo8_9orion_exp9evaluator7cmp_priNtCs3h3hHiwJPMn_8smol_str7SmolStrNtNtB9_6traits15WildcardMatcher7matches
FNDA:0,_RNCNvXs0_NtNtCshb9zLa3hFdJ_9orion_exp9evaluator7cmp_priNtNtCsEZclS4oyUe_6arcstr7arc_str6ArcStrNtNtBb_6traits15WildcardMatcher7matches0Bb_
FNDA:0,_RNCNvXs1_NtNtCshb9zLa3hFdJ_9orion_exp9evaluator7cmp_priNtCs3h3hHiwJPMn_8smol_str7SmolStrNtNtBb_6traits15WildcardMatcher7matches0Bb_
FNDA:0,_RNvXs0_NtNtCshb9zLa3hFdJ_9orion_exp9evaluator7cmp_priNtNtCsEZclS4oyUe_6arcstr7arc_str6ArcStrNtNtB9_6traits15WildcardMatcher7matches
FNDA:0,_RNvXs1_NtNtCshb9zLa3hFdJ_9orion_exp9evaluator7cmp_priNtCs3h3hHiwJPMn_8smol_str7SmolStrNtNtB9_6traits15WildcardMatcher7matches
FNDA:0,_RNvXs2_NtNtCshb9zLa3hFdJ_9orion_exp9evaluator7cmp_prixNtNtB9_6traits15WildcardMatcher7matches
FNDA:0,_RNvXs3_NtNtCshb9zLa3hFdJ_9orion_exp9evaluator7cmp_pribNtNtB9_6traits15WildcardMatcher7matches
FNDA:0,_RNvXs5_NtNtCshb9zLa3hFdJ_9orion_exp9evaluator7cmp_prioNtNtB9_6traits15WildcardMatcher7matches
FNDA:0,_RNvXs6_NtNtCshb9zLa3hFdJ_9orion_exp9evaluator7cmp_priyNtNtB9_6traits15WildcardMatcher7matches
FNDA:0,_RNvXs8_NtNtCshb9zLa3hFdJ_9orion_exp9evaluator7cmp_priNtNtNtCsaNl6UpbT7bw_4core3net7ip_addr6IpAddrNtNtB9_6traits15WildcardMatcher7matches
FNDA:0,_RNvXs9_NtNtCshb9zLa3hFdJ_9orion_exp9evaluator7cmp_priNtNtCseVKhMyAkjvk_5ipnet5ipnet5IpNetNtNtB9_6traits15WildcardMatcher7matches
FNDA:0,_RNvXsa_NtNtCshb9zLa3hFdJ_9orion_exp9evaluator7cmp_priNtNtNtCsbtPDpwPIZN7_6chrono5naive8datetime13NaiveDateTimeNtNtB9_6traits15WildcardMatcher7matches
FNDA:11,_RNvMNtNtCshb9zLa3hFdJ_9orion_exp9evaluator7cmp_priNtB2_3Lru10get_or_put
FNDA:2,_RNvMNtNtCshb9zLa3hFdJ_9orion_exp9evaluator7cmp_priNtB2_3Lru3new
FNDA:6,_RNvMNtNtCshb9zLa3hFdJ_9orion_exp9evaluator7cmp_priNtB2_3Lru5touch
FNDA:2,_RNvNtNtCshb9zLa3hFdJ_9orion_exp9evaluator7cmp_pri21lru_capacity_from_env
FNDA:0,_RNvXs4_NtNtCshb9zLa3hFdJ_9orion_exp9evaluator7cmp_primNtNtB9_6traits15WildcardMatcher7matches
FNDA:0,_RNvXs7_NtNtCshb9zLa3hFdJ_9orion_exp9evaluator7cmp_pridNtNtB9_6traits15WildcardMatcher7matches
FNDA:11,_RNvXs_NtNtCshb9zLa3hFdJ_9orion_exp9evaluator7cmp_priNtNtCsiTraAjBDcu4_5alloc6string6StringNtNtB8_6traits15WildcardMatcher7matches
FNDA:12,_RNCNvMNtNtCshb9zLa3hFdJ_9orion_exp9evaluator7cmp_priNtB4_3Lru5touch0B8_
FNDA:0,_RNCNvNtNtCshb9zLa3hFdJ_9orion_exp9evaluator7cmp_pri21lru_capacity_from_env0B7_
FNDA:11,_RNCNvXs_NtNtCshb9zLa3hFdJ_9orion_exp9evaluator7cmp_priNtNtCsiTraAjBDcu4_5alloc6string6StringNtNtBa_6traits15WildcardMatcher7matches0Ba_
FNF:21
FNH:12
DA:19,5
DA:20,5
DA:21,5
DA:22,5
DA:23,5
DA:24,5
DA:25,5
DA:26,6
DA:27,12
DA:28,6
DA:29,6
DA:30,6
DA:31,6
DA:32,15
DA:33,15
DA:34,6
DA:35,6
DA:36,9
DA:38,9
DA:39,9
DA:40,0
DA:41,0
DA:42,0
DA:43,0
DA:44,0
DA:45,0
DA:46,9
DA:47,9
DA:48,9
DA:49,9
DA:50,15
DA:53,5
DA:55,5
DA:56,5
DA:57,5
DA:59,0
DA:60,5
DA:62,5
DA:69,11
DA:72,11
DA:73,11
DA:74,11
DA:75,11
DA:76,2
DA:77,9
DA:78,11
DA:79,11
DA:80,11
DA:81,11
DA:87,11
DA:91,0
DA:94,0
DA:95,0
DA:96,0
DA:97,0
DA:98,0
DA:99,0
DA:100,0
DA:101,0
DA:102,0
DA:103,0
DA:109,0
DA:113,4
DA:116,4
DA:117,4
DA:118,4
DA:119,4
DA:120,3
DA:121,3
DA:122,4
DA:123,4
DA:124,4
DA:125,4
DA:131,4
DA:135,1
DA:136,1
DA:137,1
DA:140,0
DA:141,0
DA:142,0
DA:146,1
DA:147,1
DA:148,1
DA:151,0
DA:152,0
DA:153,0
DA:156,0
DA:157,0
DA:158,0
DA:162,0
DA:163,0
DA:164,0
DA:166,0
DA:168,0
DA:172,1
DA:173,1
DA:174,1
DA:178,0
DA:179,0
DA:180,0
DA:184,0
DA:185,0
DA:186,0
BRF:0
BRH:0
LF:108
LH:67
end_of_record
SF:/Users/zwk/src_code/wp-labs/wp-motor/crates/orion_exp/src/evaluator/mod.rs
FN:75,_RINvNtCsjit0JYdlpo8_9orion_exp9evaluator15default_compareNtCs3h3hHiwJPMn_8smol_str7SmolStrECsh5iYsvsxpDg_13wp_data_utils
FN:75,_RINvNtCsjit0JYdlpo8_9orion_exp9evaluator15default_compareNtNtNtCsaNl6UpbT7bw_4core3net7ip_addr6IpAddrECsh5iYsvsxpDg_13wp_data_utils
FN:75,_RINvNtCsjit0JYdlpo8_9orion_exp9evaluator15default_compareNtNtNtCsbtPDpwPIZN7_6chrono5naive8datetime13NaiveDateTimeECsh5iYsvsxpDg_13wp_data_utils
FN:75,_RINvNtCsjit0JYdlpo8_9orion_exp9evaluator15default_comparebECsh5iYsvsxpDg_13wp_data_utils
FN:75,_RINvNtCsjit0JYdlpo8_9orion_exp9evaluator15default_comparedECsh5iYsvsxpDg_13wp_data_utils
FN:75,_RINvNtCsjit0JYdlpo8_9orion_exp9evaluator15default_compareoECsh5iYsvsxpDg_13wp_data_utils
FN:75,_RINvNtCsjit0JYdlpo8_9orion_exp9evaluator15default_comparexECsh5iYsvsxpDg_13wp_data_utils
FN:190,_RINvNtCsjit0JYdlpo8_9orion_exp9evaluator20evaluate_with_getterINtNtNtNtCseivYNzHQkxG_13wp_model_core5model4data5field5FieldNtNtNtB15_5types5value5ValueENtNtNtB4_8operator7symbols10RustSymbolNtNtCsh5iYsvsxpDg_13wp_data_utils10conditions12RecordGetterNCNvB34_13evaluate_expr0EB36_
FN:190,_RINvNtCsjit0JYdlpo8_9orion_exp9evaluator20evaluate_with_getterINtNtNtNtCseivYNzHQkxG_13wp_model_core5model4data5field5FieldNtNtNtB15_5types5value5ValueENtNtNtB4_8operator7symbols10RustSymbolNtNtCsh5iYsvsxpDg_13wp_data_utils10conditions12RecordGetterNCNvB34_19evaluate_expression0EB36_
FN:162,_RINvNtCsjit0JYdlpo8_9orion_exp9evaluator24evaluate_cmp_with_getterINtNtNtNtCseivYNzHQkxG_13wp_model_core5model4data5field5FieldNtNtNtB19_5types5value5ValueENtNtNtB4_8operator7symbols10RustSymbolNtNtCsh5iYsvsxpDg_13wp_data_utils10conditions12RecordGetterNCNvB38_13evaluate_expr0EB3a_
FN:162,_RINvNtCsjit0JYdlpo8_9orion_exp9evaluator24evaluate_cmp_with_getterINtNtNtNtCseivYNzHQkxG_13wp_model_core5model4data5field5FieldNtNtNtB19_5types5value5ValueENtNtNtB4_8operator7symbols10RustSymbolNtNtCsh5iYsvsxpDg_13wp_data_utils10conditions12RecordGetterNCNvB38_19evaluate_expression0EB3a_
FN:174,_RINvNtCsjit0JYdlpo8_9orion_exp9evaluator31evaluate_expression_with_getterINtNtNtNtCseivYNzHQkxG_13wp_model_core5model4data5field5FieldNtNtNtB1g_5types5value5ValueENtNtNtB4_8operator7symbols10RustSymbolNtNtCsh5iYsvsxpDg_13wp_data_utils10conditions12RecordGetterNCNvB3f_13evaluate_expr0EB3h_
FN:174,_RINvNtCsjit0JYdlpo8_9orion_exp9evaluator31evaluate_expression_with_getterINtNtNtNtCseivYNzHQkxG_13wp_model_core5model4data5field5FieldNtNtNtB1g_5types5value5ValueENtNtNtB4_8operator7symbols10RustSymbolNtNtCsh5iYsvsxpDg_13wp_data_utils10conditions12RecordGetterNCNvB3f_19evaluate_expression0EB3h_
FN:218,_RINvNtCshb9zLa3hFdJ_9orion_exp9evaluator11cmp_is_trueINtNtNtNtCsht3nMU9UgFu_3std11collections4hash3map7HashMapRemEINtNtNtB4_4core5logic10ExpressionmNtNtNtB4_8operator7symbols10RustSymbolEEB4_
FN:18,_RNvXNtCshb9zLa3hFdJ_9orion_exp9evaluatordNtNtB4_6traits15ValueComparator12compare_withB4_
FN:18,_RNvXNtCshb9zLa3hFdJ_9orion_exp9evaluatormNtNtB4_6traits15ValueComparator12compare_withB4_
FN:284,_RNvXNtNtCshb9zLa3hFdJ_9orion_exp9evaluator5testsINtNtNtNtCsht3nMU9UgFu_3std11collections4hash3map7HashMapReNtNtCsiTraAjBDcu4_5alloc6string6StringEINtNtB6_6traits11ValueGetterB1H_E9get_valueB6_
FN:284,_RNvXNtNtCshb9zLa3hFdJ_9orion_exp9evaluator5testsINtNtNtNtCsht3nMU9UgFu_3std11collections4hash3map7HashMapRedEINtNtB6_6traits11ValueGetterdE9get_valueB6_
FN:284,_RNvXNtNtCshb9zLa3hFdJ_9orion_exp9evaluator5testsINtNtNtNtCsht3nMU9UgFu_3std11collections4hash3map7HashMapRemEINtNtB6_6traits11ValueGettermE9get_valueB6_
FN:103,_RINvNtCshb9zLa3hFdJ_9orion_exp9evaluator12value_getterppEB4_
FN:61,_RINvNtCshb9zLa3hFdJ_9orion_exp9evaluator13evaluate_exprpppEB4_
FN:134,_RINvNtCshb9zLa3hFdJ_9orion_exp9evaluator13evaluate_withppppEB4_
FN:75,_RINvNtCshb9zLa3hFdJ_9orion_exp9evaluator15default_comparepEB4_
FN:108,_RINvNtCshb9zLa3hFdJ_9orion_exp9evaluator17evaluate_cmp_withppppEB4_
FN:190,_RINvNtCshb9zLa3hFdJ_9orion_exp9evaluator20evaluate_with_getterppppEB4_
FN:162,_RINvNtCshb9zLa3hFdJ_9orion_exp9evaluator24evaluate_cmp_with_getterppppEB4_
FN:121,_RINvNtCshb9zLa3hFdJ_9orion_exp9evaluator24evaluate_expression_withppppEB4_
FN:174,_RINvNtCshb9zLa3hFdJ_9orion_exp9evaluator31evaluate_expression_with_getterppppEB4_
FN:15,_RNvXININtCshb9zLa3hFdJ_9orion_exp9evaluator0pEpNtNtB7_6traits15ValueComparator10is_supportB7_
FN:98,_RNvXININtCshb9zLa3hFdJ_9orion_exp9evaluators1_0ppEINtB5_6GetterppEINtNtB7_6traits11ValueGetterpE9get_valueB7_
FN:316,_RNvNtNtCshb9zLa3hFdJ_9orion_exp9evaluator5testss_11test_eq_f64
FN:297,_RNvNtNtCshb9zLa3hFdJ_9orion_exp9evaluator5testss_11test_eq_u32
FN:335,_RNvNtNtCshb9zLa3hFdJ_9orion_exp9evaluator5testss_15test_compare_ge
FN:325,_RNvNtNtCshb9zLa3hFdJ_9orion_exp9evaluator5testss_15test_compare_we
FN:375,_RNvNtNtCshb9zLa3hFdJ_9orion_exp9evaluator5testss_16test_rel_ops_f64
FN:348,_RNvNtNtCshb9zLa3hFdJ_9orion_exp9evaluator5testss_16test_rel_ops_u32
FN:403,_RNvNtNtCshb9zLa3hFdJ_9orion_exp9evaluator5testss_19test_rel_ops_string
FN:418,_RNvNtNtCshb9zLa3hFdJ_9orion_exp9evaluator5testss_20test_logic_not_cases
FN:441,_RNvNtNtCshb9zLa3hFdJ_9orion_exp9evaluator5testss_23test_string_we_patterns
FN:18,_RNvXNtCshb9zLa3hFdJ_9orion_exp9evaluatorNtNtCsiTraAjBDcu4_5alloc6string6StringNtNtB4_6traits15ValueComparator12compare_withB4_
FN:55,_RNvXs0_NtCshb9zLa3hFdJ_9orion_exp9evaluatorINtNtNtB7_4core5logic14LogicalExpressmNtNtNtB7_8operator7symbols10RustSymbolEINtNtB7_6traits18ConditionEvaluatorINtNtNtNtCsht3nMU9UgFu_3std11collections4hash3map7HashMapRemEE8evaluateB7_
FN:40,_RNvXs_NtCshb9zLa3hFdJ_9orion_exp9evaluatorINtNtNtB6_4core5logic10ExpressionmNtNtNtB6_8operator7symbols10RustSymbolEINtNtB6_6traits18ConditionEvaluatorINtNtNtNtCsht3nMU9UgFu_3std11collections4hash3map7HashMapRemEE8evaluateB6_
FN:55,_RNvXs0_NtCsjit0JYdlpo8_9orion_exp9evaluatorINtNtNtB7_4core5logic14LogicalExpressmNtNtNtB7_8operator7symbols10RustSymbolEINtNtB7_6traits18ConditionEvaluatorNtNtNtCs5bUMDJqkv9q_12wp_condition4cond4test4VMapE8evaluateB2z_
FN:40,_RNvXs_NtCsjit0JYdlpo8_9orion_exp9evaluatorINtNtNtB6_4core5logic10ExpressionmNtNtNtB6_8operator7symbols10RustSymbolEINtNtB6_6traits18ConditionEvaluatorNtNtNtCs5bUMDJqkv9q_12wp_condition4cond4test4VMapE8evaluateB2u_
FN:218,_RINvNtCsjit0JYdlpo8_9orion_exp9evaluator11cmp_is_trueNtNtNtCs5bUMDJqkv9q_12wp_condition4cond4test4VMapINtNtNtB4_4core5logic10ExpressionmNtNtNtB4_8operator7symbols10RustSymbolEEBV_
FN:18,_RNvXNtCsjit0JYdlpo8_9orion_exp9evaluatormNtNtB4_6traits15ValueComparator12compare_withCs5bUMDJqkv9q_12wp_condition
FNDA:131,_RINvNtCsjit0JYdlpo8_9orion_exp9evaluator15default_compareNtCs3h3hHiwJPMn_8smol_str7SmolStrECsh5iYsvsxpDg_13wp_data_utils
FNDA:60,_RINvNtCsjit0JYdlpo8_9orion_exp9evaluator15default_compareNtNtNtCsaNl6UpbT7bw_4core3net7ip_addr6IpAddrECsh5iYsvsxpDg_13wp_data_utils
FNDA:0,_RINvNtCsjit0JYdlpo8_9orion_exp9evaluator15default_compareNtNtNtCsbtPDpwPIZN7_6chrono5naive8datetime13NaiveDateTimeECsh5iYsvsxpDg_13wp_data_utils
FNDA:3,_RINvNtCsjit0JYdlpo8_9orion_exp9evaluator15default_comparebECsh5iYsvsxpDg_13wp_data_utils
FNDA:0,_RINvNtCsjit0JYdlpo8_9orion_exp9evaluator15default_comparedECsh5iYsvsxpDg_13wp_data_utils
FNDA:0,_RINvNtCsjit0JYdlpo8_9orion_exp9evaluator15default_compareoECsh5iYsvsxpDg_13wp_data_utils
FNDA:44,_RINvNtCsjit0JYdlpo8_9orion_exp9evaluator15default_comparexECsh5iYsvsxpDg_13wp_data_utils
FNDA:0,_RINvNtCsjit0JYdlpo8_9orion_exp9evaluator20evaluate_with_getterINtNtNtNtCseivYNzHQkxG_13wp_model_core5model4data5field5FieldNtNtNtB15_5types5value5ValueENtNtNtB4_8operator7symbols10RustSymbolNtNtCsh5iYsvsxpDg_13wp_data_utils10conditions12RecordGetterNCNvB34_13evaluate_expr0EB36_
FNDA:8,_RINvNtCsjit0JYdlpo8_9orion_exp9evaluator20evaluate_with_getterINtNtNtNtCseivYNzHQkxG_13wp_model_core5model4data5field5FieldNtNtNtB15_5types5value5ValueENtNtNtB4_8operator7symbols10RustSymbolNtNtCsh5iYsvsxpDg_13wp_data_utils10conditions12RecordGetterNCNvB34_19evaluate_expression0EB36_
FNDA:0,_RINvNtCsjit0JYdlpo8_9orion_exp9evaluator24evaluate_cmp_with_getterINtNtNtNtCseivYNzHQkxG_13wp_model_core5model4data5field5FieldNtNtNtB19_5types5value5ValueENtNtNtB4_8operator7symbols10RustSymbolNtNtCsh5iYsvsxpDg_13wp_data_utils10conditions12RecordGetterNCNvB38_13evaluate_expr0EB3a_
FNDA:29,_RINvNtCsjit0JYdlpo8_9orion_exp9evaluator24evaluate_cmp_with_getterINtNtNtNtCseivYNzHQkxG_13wp_model_core5model4data5field5FieldNtNtNtB19_5types5value5ValueENtNtNtB4_8operator7symbols10RustSymbolNtNtCsh5iYsvsxpDg_13wp_data_utils10conditions12RecordGetterNCNvB38_19evaluate_expression0EB3a_
FNDA:0,_RINvNtCsjit0JYdlpo8_9orion_exp9evaluator31evaluate_expression_with_getterINtNtNtNtCseivYNzHQkxG_13wp_model_core5model4data5field5FieldNtNtNtB1g_5types5value5ValueENtNtNtB4_8operator7symbols10RustSymbolNtNtCsh5iYsvsxpDg_13wp_data_utils10conditions12RecordGetterNCNvB3f_13evaluate_expr0EB3h_
FNDA:37,_RINvNtCsjit0JYdlpo8_9orion_exp9evaluator31evaluate_expression_with_getterINtNtNtNtCseivYNzHQkxG_13wp_model_core5model4data5field5FieldNtNtNtB1g_5types5value5ValueENtNtNtB4_8operator7symbols10RustSymbolNtNtCsh5iYsvsxpDg_13wp_data_utils10conditions12RecordGetterNCNvB3f_19evaluate_expression0EB3h_
FNDA:5,_RINvNtCshb9zLa3hFdJ_9orion_exp9evaluator11cmp_is_trueINtNtNtNtCsht3nMU9UgFu_3std11collections4hash3map7HashMapRemEINtNtNtB4_4core5logic10ExpressionmNtNtNtB4_8operator7symbols10RustSymbolEEB4_
FNDA:14,_RNvXNtCshb9zLa3hFdJ_9orion_exp9evaluatordNtNtB4_6traits15ValueComparator12compare_withB4_
FNDA:23,_RNvXNtCshb9zLa3hFdJ_9orion_exp9evaluatormNtNtB4_6traits15ValueComparator12compare_withB4_
FNDA:17,_RNvXNtNtCshb9zLa3hFdJ_9orion_exp9evaluator5testsINtNtNtNtCsht3nMU9UgFu_3std11collections4hash3map7HashMapReNtNtCsiTraAjBDcu4_5alloc6string6StringEINtNtB6_6traits11ValueGetterB1H_E9get_valueB6_
FNDA:14,_RNvXNtNtCshb9zLa3hFdJ_9orion_exp9evaluator5testsINtNtNtNtCsht3nMU9UgFu_3std11collections4hash3map7HashMapRedEINtNtB6_6traits11ValueGetterdE9get_valueB6_
FNDA:25,_RNvXNtNtCshb9zLa3hFdJ_9orion_exp9evaluator5testsINtNtNtNtCsht3nMU9UgFu_3std11collections4hash3map7HashMapRemEINtNtB6_6traits11ValueGettermE9get_valueB6_
FNDA:0,_RINvNtCshb9zLa3hFdJ_9orion_exp9evaluator12value_getterppEB4_
FNDA:0,_RINvNtCshb9zLa3hFdJ_9orion_exp9evaluator13evaluate_exprpppEB4_
FNDA:0,_RINvNtCshb9zLa3hFdJ_9orion_exp9evaluator13evaluate_withppppEB4_
FNDA:0,_RINvNtCshb9zLa3hFdJ_9orion_exp9evaluator15default_comparepEB4_
FNDA:0,_RINvNtCshb9zLa3hFdJ_9orion_exp9evaluator17evaluate_cmp_withppppEB4_
FNDA:0,_RINvNtCshb9zLa3hFdJ_9orion_exp9evaluator20evaluate_with_getterppppEB4_
FNDA:0,_RINvNtCshb9zLa3hFdJ_9orion_exp9evaluator24evaluate_cmp_with_getterppppEB4_
FNDA:0,_RINvNtCshb9zLa3hFdJ_9orion_exp9evaluator24evaluate_expression_withppppEB4_
FNDA:0,_RINvNtCshb9zLa3hFdJ_9orion_exp9evaluator31evaluate_expression_with_getterppppEB4_
FNDA:0,_RNvXININtCshb9zLa3hFdJ_9orion_exp9evaluator0pEpNtNtB7_6traits15ValueComparator10is_supportB7_
FNDA:0,_RNvXININtCshb9zLa3hFdJ_9orion_exp9evaluators1_0ppEINtB5_6GetterppEINtNtB7_6traits11ValueGetterpE9get_valueB7_
FNDA:1,_RNvNtNtCshb9zLa3hFdJ_9orion_exp9evaluator5testss_11test_eq_f64
FNDA:1,_RNvNtNtCshb9zLa3hFdJ_9orion_exp9evaluator5testss_11test_eq_u32
FNDA:1,_RNvNtNtCshb9zLa3hFdJ_9orion_exp9evaluator5testss_15test_compare_ge
FNDA:1,_RNvNtNtCshb9zLa3hFdJ_9orion_exp9evaluator5testss_15test_compare_we
FNDA:1,_RNvNtNtCshb9zLa3hFdJ_9orion_exp9evaluator5testss_16test_rel_ops_f64
FNDA:1,_RNvNtNtCshb9zLa3hFdJ_9orion_exp9evaluator5testss_16test_rel_ops_u32
FNDA:1,_RNvNtNtCshb9zLa3hFdJ_9orion_exp9evaluator5testss_19test_rel_ops_string
FNDA:1,_RNvNtNtCshb9zLa3hFdJ_9orion_exp9evaluator5testss_20test_logic_not_cases
FNDA:1,_RNvNtNtCshb9zLa3hFdJ_9orion_exp9evaluator5testss_23test_string_we_patterns
FNDA:17,_RNvXNtCshb9zLa3hFdJ_9orion_exp9evaluatorNtNtCsiTraAjBDcu4_5alloc6string6StringNtNtB4_6traits15ValueComparator12compare_withB4_
FNDA:5,_RNvXs0_NtCshb9zLa3hFdJ_9orion_exp9evaluatorINtNtNtB7_4core5logic14LogicalExpressmNtNtNtB7_8operator7symbols10RustSymbolEINtNtB7_6traits18ConditionEvaluatorINtNtNtNtCsht3nMU9UgFu_3std11collections4hash3map7HashMapRemEE8evaluateB7_
FNDA:6,_RNvXs_NtCshb9zLa3hFdJ_9orion_exp9evaluatorINtNtNtB6_4core5logic10ExpressionmNtNtNtB6_8operator7symbols10RustSymbolEINtNtB6_6traits18ConditionEvaluatorINtNtNtNtCsht3nMU9UgFu_3std11collections4hash3map7HashMapRemEE8evaluateB6_
FNDA:5,_RNvXs0_NtCsjit0JYdlpo8_9orion_exp9evaluatorINtNtNtB7_4core5logic14LogicalExpressmNtNtNtB7_8operator7symbols10RustSymbolEINtNtB7_6traits18ConditionEvaluatorNtNtNtCs5bUMDJqkv9q_12wp_condition4cond4test4VMapE8evaluateB2z_
FNDA:18,_RNvXs_NtCsjit0JYdlpo8_9orion_exp9evaluatorINtNtNtB6_4core5logic10ExpressionmNtNtNtB6_8operator7symbols10RustSymbolEINtNtB6_6traits18ConditionEvaluatorNtNtNtCs5bUMDJqkv9q_12wp_condition4cond4test4VMapE8evaluateB2u_
FNDA:5,_RINvNtCsjit0JYdlpo8_9orion_exp9evaluator11cmp_is_trueNtNtNtCs5bUMDJqkv9q_12wp_condition4cond4test4VMapINtNtNtB4_4core5logic10ExpressionmNtNtNtB4_8operator7symbols10RustSymbolEEBV_
FNDA:13,_RNvXNtCsjit0JYdlpo8_9orion_exp9evaluatormNtNtB4_6traits15ValueComparator12compare_withCs5bUMDJqkv9q_12wp_condition
FNF:25
FNH:18
DA:15,0
DA:16,0
DA:17,0
DA:18,67
DA:19,67
DA:21,12
DA:22,11
DA:23,1
DA:24,15
DA:25,8
DA:26,10
DA:27,10
DA:29,67
DA:40,24
DA:41,24
DA:42,5
DA:43,19
DA:45,24
DA:55,10
DA:56,10
DA:57,10
DA:61,0
DA:62,0
DA:63,0
DA:64,0
DA:65,0
DA:67,0
DA:68,0
DA:75,238
DA:76,238
DA:77,238
DA:78,238
DA:79,238
DA:80,238
DA:81,6
DA:82,155
DA:83,3
DA:84,5
DA:85,33
DA:86,4
DA:87,32
DA:89,238
DA:98,0
DA:99,0
DA:100,0
DA:103,0
DA:104,0
DA:105,0
DA:108,0
DA:109,0
DA:110,0
DA:111,0
DA:112,0
DA:114,0
DA:115,0
DA:116,0
DA:117,0
DA:118,0
DA:121,0
DA:122,0
DA:123,0
DA:124,0
DA:125,0
DA:127,0
DA:128,0
DA:129,0
DA:131,0
DA:134,0
DA:135,0
DA:136,0
DA:137,0
DA:138,0
DA:140,0
DA:142,0
DA:143,0
DA:144,0
DA:146,0
DA:150,0
DA:151,0
DA:152,0
DA:154,0
DA:157,0
DA:159,0
DA:162,29
DA:163,29
DA:164,29
DA:165,29
DA:166,29
DA:168,29
DA:169,27
DA:170,2
DA:171,2
DA:172,29
DA:174,37
DA:175,37
DA:176,37
DA:177,37
DA:178,37
DA:179,37
DA:180,37
DA:181,37
DA:182,37
DA:184,37
DA:185,29
DA:186,8
DA:188,37
DA:190,8
DA:191,8
DA:192,8
DA:193,8
DA:194,8
DA:196,8
DA:198,5
DA:199,5
DA:200,5
DA:202,0
DA:206,3
DA:207,3
DA:208,3
DA:210,0
DA:213,0
DA:215,8
DA:218,10
DA:219,10
DA:220,10
DA:221,10
DA:222,10
DA:223,10
DA:224,10
DA:226,4
DA:227,4
DA:229,0
DA:233,2
DA:234,2
DA:236,0
DA:239,4
DA:241,10
DA:284,56
DA:285,56
DA:286,56
DA:297,1
DA:298,1
DA:299,1
DA:300,1
DA:301,1
DA:302,1
DA:303,1
DA:304,1
DA:306,1
DA:307,1
DA:308,1
DA:309,1
DA:310,1
DA:312,1
DA:313,1
DA:314,1
DA:316,1
DA:317,1
DA:318,1
DA:319,1
DA:320,1
DA:321,1
DA:322,1
DA:325,1
DA:326,1
DA:327,1
DA:328,1
DA:329,1
DA:330,1
DA:331,1
DA:332,1
DA:333,1
DA:335,1
DA:336,1
DA:337,1
DA:338,1
DA:339,1
DA:340,1
DA:341,1
DA:342,1
DA:343,1
DA:344,1
DA:345,1
DA:348,1
DA:350,1
DA:351,1
DA:352,1
DA:353,1
DA:356,1
DA:357,1
DA:358,1
DA:359,1
DA:362,1
DA:363,1
DA:364,1
DA:365,1
DA:368,1
DA:369,1
DA:370,1
DA:371,1
DA:372,1
DA:375,1
DA:378,1
DA:379,1
DA:380,1
DA:381,1
DA:384,1
DA:385,1
DA:386,1
DA:387,1
DA:390,1
DA:391,1
DA:392,1
DA:393,1
DA:396,1
DA:397,1
DA:398,1
DA:399,1
DA:400,1
DA:403,1
DA:406,1
DA:407,1
DA:408,1
DA:409,1
DA:411,1
DA:412,1
DA:413,1
DA:414,1
DA:415,1
DA:418,1
DA:420,1
DA:421,1
DA:422,1
DA:423,1
DA:424,1
DA:426,1
DA:427,1
DA:430,1
DA:431,1
DA:432,1
DA:433,1
DA:434,1
DA:436,1
DA:437,1
DA:438,1
DA:441,1
DA:444,1
DA:445,1
DA:446,1
DA:448,1
DA:449,1
DA:450,1
DA:452,1
DA:453,1
DA:454,1
DA:456,1
DA:457,1
DA:458,1
DA:459,1
BRF:0
BRH:0
LF:259
LH:202
end_of_record
SF:/Users/zwk/src_code/wp-labs/wp-motor/crates/orion_exp/src/operator/mod.rs
FN:10,_RNvXNtCshb9zLa3hFdJ_9orion_exp8operatorNtB2_13LogicOperatorNtNtCsaNl6UpbT7bw_4core3fmt7Display3fmt
FN:31,_RNvXs_NtCshb9zLa3hFdJ_9orion_exp8operatorNtB4_11CmpOperatorNtNtCsaNl6UpbT7bw_4core3fmt7Display3fmt
FNDA:0,_RNvXNtCshb9zLa3hFdJ_9orion_exp8operatorNtB2_13LogicOperatorNtNtCsaNl6UpbT7bw_4core3fmt7Display3fmt
FNDA:0,_RNvXs_NtCshb9zLa3hFdJ_9orion_exp8operatorNtB4_11CmpOperatorNtNtCsaNl6UpbT7bw_4core3fmt7Display3fmt
FNF:2
FNH:0
DA:10,0
DA:11,0
DA:12,0
DA:13,0
DA:14,0
DA:16,0
DA:31,0
DA:32,0
DA:33,0
DA:34,0
DA:35,0
DA:36,0
DA:37,0
DA:38,0
DA:39,0
DA:41,0
BRF:0
BRH:0
LF:16
LH:0
end_of_record
SF:/Users/zwk/src_code/wp-labs/wp-motor/crates/orion_exp/src/operator/symbols.rs
FN:65,_RNvXNtNtCsjit0JYdlpo8_9orion_exp8operator7symbolsNtB2_9SQLSymbolNtB2_19LogicSymbolProvider10symbol_and
FN:69,_RNvXNtNtCsjit0JYdlpo8_9orion_exp8operator7symbolsNtB2_9SQLSymbolNtB2_19LogicSymbolProvider10symbol_not
FN:73,_RNvXNtNtCsjit0JYdlpo8_9orion_exp8operator7symbolsNtB2_9SQLSymbolNtB2_19LogicSymbolProvider9symbol_or
FN:112,_RNvXs0_NtNtCsjit0JYdlpo8_9orion_exp8operator7symbolsNtB5_10RustSymbolNtB5_19LogicSymbolProvider10symbol_and
FN:116,_RNvXs0_NtNtCsjit0JYdlpo8_9orion_exp8operator7symbolsNtB5_10RustSymbolNtB5_19LogicSymbolProvider10symbol_not
FN:120,_RNvXs0_NtNtCsjit0JYdlpo8_9orion_exp8operator7symbolsNtB5_10RustSymbolNtB5_19LogicSymbolProvider9symbol_or
FN:152,_RNvXs1_NtNtCsjit0JYdlpo8_9orion_exp8operator7symbolsNtB5_10RustSymbolNtB5_17CmpSymbolProvider10symbol_var
FN:125,_RNvXs1_NtNtCsjit0JYdlpo8_9orion_exp8operator7symbolsNtB5_10RustSymbolNtB5_17CmpSymbolProvider9symbol_eq
FN:137,_RNvXs1_NtNtCsjit0JYdlpo8_9orion_exp8operator7symbolsNtB5_10RustSymbolNtB5_17CmpSymbolProvider9symbol_ge
FN:141,_RNvXs1_NtNtCsjit0JYdlpo8_9orion_exp8operator7symbolsNtB5_10RustSymbolNtB5_17CmpSymbolProvider9symbol_gt
FN:145,_RNvXs1_NtNtCsjit0JYdlpo8_9orion_exp8operator7symbolsNtB5_10RustSymbolNtB5_17CmpSymbolProvider9symbol_le
FN:149,_RNvXs1_NtNtCsjit0JYdlpo8_9orion_exp8operator7symbolsNtB5_10RustSymbolNtB5_17CmpSymbolProvider9symbol_lt
FN:133,_RNvXs1_NtNtCsjit0JYdlpo8_9orion_exp8operator7symbolsNtB5_10RustSymbolNtB5_17CmpSymbolProvider9symbol_ne
FN:129,_RNvXs1_NtNtCsjit0JYdlpo8_9orion_exp8operator7symbolsNtB5_10RustSymbolNtB5_17CmpSymbolProvider9symbol_we
FN:107,_RNvXs_NtNtCsjit0JYdlpo8_9orion_exp8operator7symbolsNtB4_9SQLSymbolNtB4_17CmpSymbolProvider10symbol_var
FN:79,_RNvXs_NtNtCsjit0JYdlpo8_9orion_exp8operator7symbolsNtB4_9SQLSymbolNtB4_17CmpSymbolProvider9symbol_eq
FN:91,_RNvXs_NtNtCsjit0JYdlpo8_9orion_exp8operator7symbolsNtB4_9SQLSymbolNtB4_17CmpSymbolProvider9symbol_ge
FN:95,_RNvXs_NtNtCsjit0JYdlpo8_9orion_exp8operator7symbolsNtB4_9SQLSymbolNtB4_17CmpSymbolProvider9symbol_gt
FN:99,_RNvXs_NtNtCsjit0JYdlpo8_9orion_exp8operator7symbolsNtB4_9SQLSymbolNtB4_17CmpSymbolProvider9symbol_le
FN:103,_RNvXs_NtNtCsjit0JYdlpo8_9orion_exp8operator7symbolsNtB4_9SQLSymbolNtB4_17CmpSymbolProvider9symbol_lt
FN:87,_RNvXs_NtNtCsjit0JYdlpo8_9orion_exp8operator7symbolsNtB4_9SQLSymbolNtB4_17CmpSymbolProvider9symbol_ne
FN:83,_RNvXs_NtNtCsjit0JYdlpo8_9orion_exp8operator7symbolsNtB4_9SQLSymbolNtB4_17CmpSymbolProvider9symbol_we
FN:45,_RNvYNtNtNtCsjit0JYdlpo8_9orion_exp8operator7symbols9SQLSymbolNtB4_17CmpSymbolProvider10symbol_cmpCsikXTExXJHPl_3oml
FN:26,_RNvYNtNtNtCsjit0JYdlpo8_9orion_exp8operator7symbols9SQLSymbolNtB4_19LogicSymbolProvider12symbol_logicCsikXTExXJHPl_3oml
FN:65,_RNvXNtNtCshb9zLa3hFdJ_9orion_exp8operator7symbolsNtB2_9SQLSymbolNtB2_19LogicSymbolProvider10symbol_and
FN:69,_RNvXNtNtCshb9zLa3hFdJ_9orion_exp8operator7symbolsNtB2_9SQLSymbolNtB2_19LogicSymbolProvider10symbol_not
FN:73,_RNvXNtNtCshb9zLa3hFdJ_9orion_exp8operator7symbolsNtB2_9SQLSymbolNtB2_19LogicSymbolProvider9symbol_or
FN:112,_RNvXs0_NtNtCshb9zLa3hFdJ_9orion_exp8operator7symbolsNtB5_10RustSymbolNtB5_19LogicSymbolProvider10symbol_and
FN:116,_RNvXs0_NtNtCshb9zLa3hFdJ_9orion_exp8operator7symbolsNtB5_10RustSymbolNtB5_19LogicSymbolProvider10symbol_not
FN:120,_RNvXs0_NtNtCshb9zLa3hFdJ_9orion_exp8operator7symbolsNtB5_10RustSymbolNtB5_19LogicSymbolProvider9symbol_or
FN:152,_RNvXs1_NtNtCshb9zLa3hFdJ_9orion_exp8operator7symbolsNtB5_10RustSymbolNtB5_17CmpSymbolProvider10symbol_var
FN:125,_RNvXs1_NtNtCshb9zLa3hFdJ_9orion_exp8operator7symbolsNtB5_10RustSymbolNtB5_17CmpSymbolProvider9symbol_eq
FN:137,_RNvXs1_NtNtCshb9zLa3hFdJ_9orion_exp8operator7symbolsNtB5_10RustSymbolNtB5_17CmpSymbolProvider9symbol_ge
FN:141,_RNvXs1_NtNtCshb9zLa3hFdJ_9orion_exp8operator7symbolsNtB5_10RustSymbolNtB5_17CmpSymbolProvider9symbol_gt
FN:145,_RNvXs1_NtNtCshb9zLa3hFdJ_9orion_exp8operator7symbolsNtB5_10RustSymbolNtB5_17CmpSymbolProvider9symbol_le
FN:149,_RNvXs1_NtNtCshb9zLa3hFdJ_9orion_exp8operator7symbolsNtB5_10RustSymbolNtB5_17CmpSymbolProvider9symbol_lt
FN:133,_RNvXs1_NtNtCshb9zLa3hFdJ_9orion_exp8operator7symbolsNtB5_10RustSymbolNtB5_17CmpSymbolProvider9symbol_ne
FN:129,_RNvXs1_NtNtCshb9zLa3hFdJ_9orion_exp8operator7symbolsNtB5_10RustSymbolNtB5_17CmpSymbolProvider9symbol_we
FN:107,_RNvXs_NtNtCshb9zLa3hFdJ_9orion_exp8operator7symbolsNtB4_9SQLSymbolNtB4_17CmpSymbolProvider10symbol_var
FN:79,_RNvXs_NtNtCshb9zLa3hFdJ_9orion_exp8operator7symbolsNtB4_9SQLSymbolNtB4_17CmpSymbolProvider9symbol_eq
FN:91,_RNvXs_NtNtCshb9zLa3hFdJ_9orion_exp8operator7symbolsNtB4_9SQLSymbolNtB4_17CmpSymbolProvider9symbol_ge
FN:95,_RNvXs_NtNtCshb9zLa3hFdJ_9orion_exp8operator7symbolsNtB4_9SQLSymbolNtB4_17CmpSymbolProvider9symbol_gt
FN:99,_RNvXs_NtNtCshb9zLa3hFdJ_9orion_exp8operator7symbolsNtB4_9SQLSymbolNtB4_17CmpSymbolProvider9symbol_le
FN:103,_RNvXs_NtNtCshb9zLa3hFdJ_9orion_exp8operator7symbolsNtB4_9SQLSymbolNtB4_17CmpSymbolProvider9symbol_lt
FN:87,_RNvXs_NtNtCshb9zLa3hFdJ_9orion_exp8operator7symbolsNtB4_9SQLSymbolNtB4_17CmpSymbolProvider9symbol_ne
FN:83,_RNvXs_NtNtCshb9zLa3hFdJ_9orion_exp8operator7symbolsNtB4_9SQLSymbolNtB4_17CmpSymbolProvider9symbol_we
FN:45,_RNvYpNtNtNtCshb9zLa3hFdJ_9orion_exp8operator7symbols17CmpSymbolProvider10symbol_cmpB9_
FN:26,_RNvYpNtNtNtCshb9zLa3hFdJ_9orion_exp8operator7symbols19LogicSymbolProvider12symbol_logicB9_
FN:45,_RNvYNtNtNtCsjit0JYdlpo8_9orion_exp8operator7symbols10RustSymbolNtB4_17CmpSymbolProvider10symbol_cmpCsiL6gS0SCXXG_9wp_config
FN:26,_RNvYNtNtNtCsjit0JYdlpo8_9orion_exp8operator7symbols10RustSymbolNtB4_19LogicSymbolProvider12symbol_logicCsiL6gS0SCXXG_9wp_config
FNDA:42,_RNvXNtNtCsjit0JYdlpo8_9orion_exp8operator7symbolsNtB2_9SQLSymbolNtB2_19LogicSymbolProvider10symbol_and
FNDA:47,_RNvXNtNtCsjit0JYdlpo8_9orion_exp8operator7symbolsNtB2_9SQLSymbolNtB2_19LogicSymbolProvider10symbol_not
FNDA:39,_RNvXNtNtCsjit0JYdlpo8_9orion_exp8operator7symbolsNtB2_9SQLSymbolNtB2_19LogicSymbolProvider9symbol_or
FNDA:135,_RNvXs0_NtNtCsjit0JYdlpo8_9orion_exp8operator7symbolsNtB5_10RustSymbolNtB5_19LogicSymbolProvider10symbol_and
FNDA:127,_RNvXs0_NtNtCsjit0JYdlpo8_9orion_exp8operator7symbolsNtB5_10RustSymbolNtB5_19LogicSymbolProvider10symbol_not
FNDA:109,_RNvXs0_NtNtCsjit0JYdlpo8_9orion_exp8operator7symbolsNtB5_10RustSymbolNtB5_19LogicSymbolProvider9symbol_or
FNDA:48,_RNvXs1_NtNtCsjit0JYdlpo8_9orion_exp8operator7symbolsNtB5_10RustSymbolNtB5_17CmpSymbolProvider10symbol_var
FNDA:22,_RNvXs1_NtNtCsjit0JYdlpo8_9orion_exp8operator7symbolsNtB5_10RustSymbolNtB5_17CmpSymbolProvider9symbol_eq
FNDA:0,_RNvXs1_NtNtCsjit0JYdlpo8_9orion_exp8operator7symbolsNtB5_10RustSymbolNtB5_17CmpSymbolProvider9symbol_ge
FNDA:3,_RNvXs1_NtNtCsjit0JYdlpo8_9orion_exp8operator7symbolsNtB5_10RustSymbolNtB5_17CmpSymbolProvider9symbol_gt
FNDA:0,_RNvXs1_NtNtCsjit0JYdlpo8_9orion_exp8operator7symbolsNtB5_10RustSymbolNtB5_17CmpSymbolProvider9symbol_le
FNDA:3,_RNvXs1_NtNtCsjit0JYdlpo8_9orion_exp8operator7symbolsNtB5_10RustSymbolNtB5_17CmpSymbolProvider9symbol_lt
FNDA:0,_RNvXs1_NtNtCsjit0JYdlpo8_9orion_exp8operator7symbolsNtB5_10RustSymbolNtB5_17CmpSymbolProvider9symbol_ne
FNDA:20,_RNvXs1_NtNtCsjit0JYdlpo8_9orion_exp8operator7symbolsNtB5_10RustSymbolNtB5_17CmpSymbolProvider9symbol_we
FNDA:15,_RNvXs_NtNtCsjit0JYdlpo8_9orion_exp8operator7symbolsNtB4_9SQLSymbolNtB4_17CmpSymbolProvider10symbol_var
FNDA:14,_RNvXs_NtNtCsjit0JYdlpo8_9orion_exp8operator7symbolsNtB4_9SQLSymbolNtB4_17CmpSymbolProvider9symbol_eq
FNDA:0,_RNvXs_NtNtCsjit0JYdlpo8_9orion_exp8operator7symbolsNtB4_9SQLSymbolNtB4_17CmpSymbolProvider9symbol_ge
FNDA:1,_RNvXs_NtNtCsjit0JYdlpo8_9orion_exp8operator7symbolsNtB4_9SQLSymbolNtB4_17CmpSymbolProvider9symbol_gt
FNDA:0,_RNvXs_NtNtCsjit0JYdlpo8_9orion_exp8operator7symbolsNtB4_9SQLSymbolNtB4_17CmpSymbolProvider9symbol_le
FNDA:0,_RNvXs_NtNtCsjit0JYdlpo8_9orion_exp8operator7symbolsNtB4_9SQLSymbolNtB4_17CmpSymbolProvider9symbol_lt
FNDA:0,_RNvXs_NtNtCsjit0JYdlpo8_9orion_exp8operator7symbolsNtB4_9SQLSymbolNtB4_17CmpSymbolProvider9symbol_ne
FNDA:0,_RNvXs_NtNtCsjit0JYdlpo8_9orion_exp8operator7symbolsNtB4_9SQLSymbolNtB4_17CmpSymbolProvider9symbol_we
FNDA:15,_RNvYNtNtNtCsjit0JYdlpo8_9orion_exp8operator7symbols9SQLSymbolNtB4_17CmpSymbolProvider10symbol_cmpCsikXTExXJHPl_3oml
FNDA:9,_RNvYNtNtNtCsjit0JYdlpo8_9orion_exp8operator7symbols9SQLSymbolNtB4_19LogicSymbolProvider12symbol_logicCsikXTExXJHPl_3oml
FNDA:0,_RNvXNtNtCshb9zLa3hFdJ_9orion_exp8operator7symbolsNtB2_9SQLSymbolNtB2_19LogicSymbolProvider10symbol_and
FNDA:0,_RNvXNtNtCshb9zLa3hFdJ_9orion_exp8operator7symbolsNtB2_9SQLSymbolNtB2_19LogicSymbolProvider10symbol_not
FNDA:0,_RNvXNtNtCshb9zLa3hFdJ_9orion_exp8operator7symbolsNtB2_9SQLSymbolNtB2_19LogicSymbolProvider9symbol_or
FNDA:0,_RNvXs0_NtNtCshb9zLa3hFdJ_9orion_exp8operator7symbolsNtB5_10RustSymbolNtB5_19LogicSymbolProvider10symbol_and
FNDA:0,_RNvXs0_NtNtCshb9zLa3hFdJ_9orion_exp8operator7symbolsNtB5_10RustSymbolNtB5_19LogicSymbolProvider10symbol_not
FNDA:0,_RNvXs0_NtNtCshb9zLa3hFdJ_9orion_exp8operator7symbolsNtB5_10RustSymbolNtB5_19LogicSymbolProvider9symbol_or
FNDA:0,_RNvXs1_NtNtCshb9zLa3hFdJ_9orion_exp8operator7symbolsNtB5_10RustSymbolNtB5_17CmpSymbolProvider10symbol_var
FNDA:0,_RNvXs1_NtNtCshb9zLa3hFdJ_9orion_exp8operator7symbolsNtB5_10RustSymbolNtB5_17CmpSymbolProvider9symbol_eq
FNDA:0,_RNvXs1_NtNtCshb9zLa3hFdJ_9orion_exp8operator7symbolsNtB5_10RustSymbolNtB5_17CmpSymbolProvider9symbol_ge
FNDA:0,_RNvXs1_NtNtCshb9zLa3hFdJ_9orion_exp8operator7symbolsNtB5_10RustSymbolNtB5_17CmpSymbolProvider9symbol_gt
FNDA:0,_RNvXs1_NtNtCshb9zLa3hFdJ_9orion_exp8operator7symbolsNtB5_10RustSymbolNtB5_17CmpSymbolProvider9symbol_le
FNDA:0,_RNvXs1_NtNtCshb9zLa3hFdJ_9orion_exp8operator7symbolsNtB5_10RustSymbolNtB5_17CmpSymbolProvider9symbol_lt
FNDA:0,_RNvXs1_NtNtCshb9zLa3hFdJ_9orion_exp8operator7symbolsNtB5_10RustSymbolNtB5_17CmpSymbolProvider9symbol_ne
FNDA:0,_RNvXs1_NtNtCshb9zLa3hFdJ_9orion_exp8operator7symbolsNtB5_10RustSymbolNtB5_17CmpSymbolProvider9symbol_we
FNDA:0,_RNvXs_NtNtCshb9zLa3hFdJ_9orion_exp8operator7symbolsNtB4_9SQLSymbolNtB4_17CmpSymbolProvider10symbol_var
FNDA:0,_RNvXs_NtNtCshb9zLa3hFdJ_9orion_exp8operator7symbolsNtB4_9SQLSymbolNtB4_17CmpSymbolProvider9symbol_eq
FNDA:0,_RNvXs_NtNtCshb9zLa3hFdJ_9orion_exp8operator7symbolsNtB4_9SQLSymbolNtB4_17CmpSymbolProvider9symbol_ge
FNDA:0,_RNvXs_NtNtCshb9zLa3hFdJ_9orion_exp8operator7symbolsNtB4_9SQLSymbolNtB4_17CmpSymbolProvider9symbol_gt
FNDA:0,_RNvXs_NtNtCshb9zLa3hFdJ_9orion_exp8operator7symbolsNtB4_9SQLSymbolNtB4_17CmpSymbolProvider9symbol_le
FNDA:0,_RNvXs_NtNtCshb9zLa3hFdJ_9orion_exp8operator7symbolsNtB4_9SQLSymbolNtB4_17CmpSymbolProvider9symbol_lt
FNDA:0,_RNvXs_NtNtCshb9zLa3hFdJ_9orion_exp8operator7symbolsNtB4_9SQLSymbolNtB4_17CmpSymbolProvider9symbol_ne
FNDA:0,_RNvXs_NtNtCshb9zLa3hFdJ_9orion_exp8operator7symbolsNtB4_9SQLSymbolNtB4_17CmpSymbolProvider9symbol_we
FNDA:0,_RNvYpNtNtNtCshb9zLa3hFdJ_9orion_exp8operator7symbols17CmpSymbolProvider10symbol_cmpB9_
FNDA:0,_RNvYpNtNtNtCshb9zLa3hFdJ_9orion_exp8operator7symbols19LogicSymbolProvider12symbol_logicB9_
FNDA:48,_RNvYNtNtNtCsjit0JYdlpo8_9orion_exp8operator7symbols10RustSymbolNtB4_17CmpSymbolProvider10symbol_cmpCsiL6gS0SCXXG_9wp_config
FNDA:37,_RNvYNtNtNtCsjit0JYdlpo8_9orion_exp8operator7symbols10RustSymbolNtB4_19LogicSymbolProvider12symbol_logicCsiL6gS0SCXXG_9wp_config
FNF:24
FNH:16
DA:26,46
DA:27,46
DA:28,14
DA:29,27
DA:30,5
DA:32,46
DA:45,63
DA:46,63
DA:47,20
DA:48,36
DA:49,0
DA:50,4
DA:51,0
DA:52,3
DA:53,0
DA:55,63
DA:65,42
DA:66,42
DA:67,42
DA:69,47
DA:70,47
DA:71,47
DA:73,39
DA:74,39
DA:75,39
DA:79,14
DA:80,14
DA:81,14
DA:83,0
DA:84,0
DA:85,0
DA:87,0
DA:88,0
DA:89,0
DA:91,0
DA:92,0
DA:93,0
DA:95,1
DA:96,1
DA:97,1
DA:99,0
DA:100,0
DA:101,0
DA:103,0
DA:104,0
DA:105,0
DA:107,15
DA:108,15
DA:109,15
DA:112,135
DA:113,135
DA:114,135
DA:116,127
DA:117,127
DA:118,127
DA:120,109
DA:121,109
DA:122,109
DA:125,22
DA:126,22
DA:127,22
DA:129,20
DA:130,20
DA:131,20
DA:133,0
DA:134,0
DA:135,0
DA:137,0
DA:138,0
DA:139,0
DA:141,3
DA:142,3
DA:143,3
DA:145,0
DA:146,0
DA:147,0
DA:149,3
DA:150,3
DA:151,3
DA:152,48
DA:153,48
DA:154,48
BRF:0
BRH:0
LF:82
LH:55
end_of_record
SF:/Users/zwk/src_code/wp-labs/wp-motor/crates/orion_overload/src/conv.rs
FN:9,_RINvNtCsgtQU6MtzyNj_14orion_overload4conv6val_orjECsfPo7uQlnqBI_9wp_engine
FN:9,_RINvNtCsgtQU6MtzyNj_14orion_overload4conv6val_oryECsfPo7uQlnqBI_9wp_engine
FN:5,_RINvNtCs2hyigjAFNop_14orion_overload4conv6opt_orpEB4_
FN:9,_RINvNtCs2hyigjAFNop_14orion_overload4conv6val_orpEB4_
FN:1,_RNvNtCs2hyigjAFNop_14orion_overload4conv8opt_zero
FN:38,_RNvXININtCs2hyigjAFNop_14orion_overload4conv0ppEINtNtCsaNl6UpbT7bw_4core6option6OptionpEINtB5_10OptionConvppE7no_lessB7_
FN:42,_RNvXININtCs2hyigjAFNop_14orion_overload4conv0ppEINtNtCsaNl6UpbT7bw_4core6option6OptionpEINtB5_10OptionConvppE8no_emptyB7_
FNDA:0,_RINvNtCsgtQU6MtzyNj_14orion_overload4conv6val_orjECsfPo7uQlnqBI_9wp_engine
FNDA:0,_RINvNtCsgtQU6MtzyNj_14orion_overload4conv6val_oryECsfPo7uQlnqBI_9wp_engine
FNDA:0,_RINvNtCs2hyigjAFNop_14orion_overload4conv6opt_orpEB4_
FNDA:0,_RINvNtCs2hyigjAFNop_14orion_overload4conv6val_orpEB4_
FNDA:0,_RNvNtCs2hyigjAFNop_14orion_overload4conv8opt_zero
FNDA:0,_RNvXININtCs2hyigjAFNop_14orion_overload4conv0ppEINtNtCsaNl6UpbT7bw_4core6option6OptionpEINtB5_10OptionConvppE7no_lessB7_
FNDA:0,_RNvXININtCs2hyigjAFNop_14orion_overload4conv0ppEINtNtCsaNl6UpbT7bw_4core6option6OptionpEINtB5_10OptionConvppE8no_emptyB7_
FNF:5
FNH:0
DA:1,0
DA:2,0
DA:3,0
DA:5,0
DA:6,0
DA:7,0
DA:9,0
DA:10,0
DA:11,0
DA:13,0
DA:15,0
DA:38,0
DA:39,0
DA:40,0
DA:42,0
DA:43,0
DA:44,0
BRF:0
BRH:0
LF:17
LH:0
end_of_record
SF:/Users/zwk/src_code/wp-labs/wp-motor/crates/orion_overload/src/new.rs
FN:6,_RNvYpNtNtCs2hyigjAFNop_14orion_overload3new4New07arc_newB7_
FNDA:0,_RNvYpNtNtCs2hyigjAFNop_14orion_overload3new4New07arc_newB7_
FNF:1
FNH:0
DA:6,0
DA:7,0
DA:8,0
BRF:0
BRH:0
LF:3
LH:0
end_of_record
SF:/Users/zwk/src_code/wp-labs/wp-motor/crates/wp-cli-core/src/business/connectors/sinks.rs
FN:63,_RNCNvNtNtNtCs1d81em2mb8H_11wp_cli_core8business10connectors5sinks11load_routes0B9_
FN:78,_RNCNvNtNtNtCs1d81em2mb8H_11wp_cli_core8business10connectors5sinks11load_routess_0B9_
FN:234,_RNCNvNtNtNtCs1d81em2mb8H_11wp_cli_core8business10connectors5sinks11route_table0B9_
FN:249,_RNCNvNtNtNtCs1d81em2mb8H_11wp_cli_core8business10connectors5sinks11route_tables0_0B9_
FN:250,_RNCNvNtNtNtCs1d81em2mb8H_11wp_cli_core8business10connectors5sinks11route_tables1_0B9_
FN:265,_RNCNvNtNtNtCs1d81em2mb8H_11wp_cli_core8business10connectors5sinks11route_tables2_0B9_
FN:275,_RNCNvNtNtNtCs1d81em2mb8H_11wp_cli_core8business10connectors5sinks11route_tables3_0B9_
FN:235,_RNCNvNtNtNtCs1d81em2mb8H_11wp_cli_core8business10connectors5sinks11route_tables_0B9_
FN:94,_RNCNvNtNtNtCs1d81em2mb8H_11wp_cli_core8business10connectors5sinks15validate_routes0B9_
FN:95,_RNCNvNtNtNtCs1d81em2mb8H_11wp_cli_core8business10connectors5sinks15validate_routess_0B9_
FN:23,_RNCNvNtNtNtCs1d81em2mb8H_11wp_cli_core8business10connectors5sinks16read_dirs_sorted0B9_
FN:25,_RNCNvNtNtNtCs1d81em2mb8H_11wp_cli_core8business10connectors5sinks16read_dirs_sorteds0_0B9_
FN:24,_RNCNvNtNtNtCs1d81em2mb8H_11wp_cli_core8business10connectors5sinks16read_dirs_sorteds_0B9_
FN:295,_RNCNvNtNtNtCs1d81em2mb8H_11wp_cli_core8business10connectors5sinks16target_detail_of0B9_
FN:318,_RNCNvNtNtNtCs1d81em2mb8H_11wp_cli_core8business10connectors5sinks20load_sink_connectors0B9_
FN:185,_RNCNvNtNtNtCs1d81em2mb8H_11wp_cli_core8business10connectors5sinks21list_connectors_usage0B9_
FN:193,_RNCNvNtNtNtCs1d81em2mb8H_11wp_cli_core8business10connectors5sinks21list_connectors_usages0_0B9_
FN:186,_RNCNvNtNtNtCs1d81em2mb8H_11wp_cli_core8business10connectors5sinks21list_connectors_usages_0B9_
FN:225,_RNCNvNvNtNtNtCs1d81em2mb8H_11wp_cli_core8business10connectors5sinks11route_table7matched0Bb_
FN:44,_RNvMs_NtNtNtCs1d81em2mb8H_11wp_cli_core8business10connectors5sinksNtB4_17RouteFileWithPath8path_str
FN:50,_RNvNtNtNtCs1d81em2mb8H_11wp_cli_core8business10connectors5sinks11load_routes
FN:215,_RNvNtNtNtCs1d81em2mb8H_11wp_cli_core8business10connectors5sinks11route_table
FN:280,_RNvNtNtNtCs1d81em2mb8H_11wp_cli_core8business10connectors5sinks15params_one_line
FN:87,_RNvNtNtNtCs1d81em2mb8H_11wp_cli_core8business10connectors5sinks15validate_routes
FN:19,_RNvNtNtNtCs1d81em2mb8H_11wp_cli_core8business10connectors5sinks16read_dirs_sorted
FN:291,_RNvNtNtNtCs1d81em2mb8H_11wp_cli_core8business10connectors5sinks16target_detail_of
FN:305,_RNvNtNtNtCs1d81em2mb8H_11wp_cli_core8business10connectors5sinks19load_connectors_map
FN:312,_RNvNtNtNtCs1d81em2mb8H_11wp_cli_core8business10connectors5sinks20load_sink_connectors
FN:170,_RNvNtNtNtCs1d81em2mb8H_11wp_cli_core8business10connectors5sinks21list_connectors_usage
FN:221,_RNvNvNtNtNtCs1d81em2mb8H_11wp_cli_core8business10connectors5sinks11route_table7matched
FN:39,_RNvXNtNtNtCs1d81em2mb8H_11wp_cli_core8business10connectors5sinksNtB2_17RouteFileWithPathNtNtNtCsaNl6UpbT7bw_4core3ops5deref5Deref5deref
FN:44,_RNvMs_NtNtNtCskTKHy6T9bpY_11wp_cli_core8business10connectors5sinksNtB4_17RouteFileWithPath8path_str
FN:50,_RNvNtNtNtCskTKHy6T9bpY_11wp_cli_core8business10connectors5sinks11load_routes
FN:215,_RNvNtNtNtCskTKHy6T9bpY_11wp_cli_core8business10connectors5sinks11route_table
FN:280,_RNvNtNtNtCskTKHy6T9bpY_11wp_cli_core8business10connectors5sinks15params_one_line
FN:87,_RNvNtNtNtCskTKHy6T9bpY_11wp_cli_core8business10connectors5sinks15validate_routes
FN:19,_RNvNtNtNtCskTKHy6T9bpY_11wp_cli_core8business10connectors5sinks16read_dirs_sorted
FN:291,_RNvNtNtNtCskTKHy6T9bpY_11wp_cli_core8business10connectors5sinks16target_detail_of
FN:312,_RNvNtNtNtCskTKHy6T9bpY_11wp_cli_core8business10connectors5sinks20load_sink_connectors
FN:170,_RNvNtNtNtCskTKHy6T9bpY_11wp_cli_core8business10connectors5sinks21list_connectors_usage
FN:221,_RNvNvNtNtNtCskTKHy6T9bpY_11wp_cli_core8business10connectors5sinks11route_table7matched
FN:401,_RNCNvNtNtNtNtCskTKHy6T9bpY_11wp_cli_core8business10connectors5sinks5testss_17route_table_basic0Bb_
FN:418,_RNCNvNtNtNtNtCskTKHy6T9bpY_11wp_cli_core8business10connectors5sinks5testss_17route_table_basics_0Bb_
FN:63,_RNCNvNtNtNtCskTKHy6T9bpY_11wp_cli_core8business10connectors5sinks11load_routes0B9_
FN:78,_RNCNvNtNtNtCskTKHy6T9bpY_11wp_cli_core8business10connectors5sinks11load_routess_0B9_
FN:234,_RNCNvNtNtNtCskTKHy6T9bpY_11wp_cli_core8business10connectors5sinks11route_table0B9_
FN:249,_RNCNvNtNtNtCskTKHy6T9bpY_11wp_cli_core8business10connectors5sinks11route_tables0_0B9_
FN:250,_RNCNvNtNtNtCskTKHy6T9bpY_11wp_cli_core8business10connectors5sinks11route_tables1_0B9_
FN:265,_RNCNvNtNtNtCskTKHy6T9bpY_11wp_cli_core8business10connectors5sinks11route_tables2_0B9_
FN:275,_RNCNvNtNtNtCskTKHy6T9bpY_11wp_cli_core8business10connectors5sinks11route_tables3_0B9_
FN:235,_RNCNvNtNtNtCskTKHy6T9bpY_11wp_cli_core8business10connectors5sinks11route_tables_0B9_
FN:94,_RNCNvNtNtNtCskTKHy6T9bpY_11wp_cli_core8business10connectors5sinks15validate_routes0B9_
FN:95,_RNCNvNtNtNtCskTKHy6T9bpY_11wp_cli_core8business10connectors5sinks15validate_routess_0B9_
FN:23,_RNCNvNtNtNtCskTKHy6T9bpY_11wp_cli_core8business10connectors5sinks16read_dirs_sorted0B9_
FN:25,_RNCNvNtNtNtCskTKHy6T9bpY_11wp_cli_core8business10connectors5sinks16read_dirs_sorteds0_0B9_
FN:24,_RNCNvNtNtNtCskTKHy6T9bpY_11wp_cli_core8business10connectors5sinks16read_dirs_sorteds_0B9_
FN:295,_RNCNvNtNtNtCskTKHy6T9bpY_11wp_cli_core8business10connectors5sinks16target_detail_of0B9_
FN:318,_RNCNvNtNtNtCskTKHy6T9bpY_11wp_cli_core8business10connectors5sinks20load_sink_connectors0B9_
FN:185,_RNCNvNtNtNtCskTKHy6T9bpY_11wp_cli_core8business10connectors5sinks21list_connectors_usage0B9_
FN:193,_RNCNvNtNtNtCskTKHy6T9bpY_11wp_cli_core8business10connectors5sinks21list_connectors_usages0_0B9_
FN:186,_RNCNvNtNtNtCskTKHy6T9bpY_11wp_cli_core8business10connectors5sinks21list_connectors_usages_0B9_
FN:225,_RNCNvNvNtNtNtCskTKHy6T9bpY_11wp_cli_core8business10connectors5sinks11route_table7matched0Bb_
FN:343,_RNvNtNtNtNtCskTKHy6T9bpY_11wp_cli_core8business10connectors5sinks5tests21write_demo_connectors
FN:357,_RNvNtNtNtNtCskTKHy6T9bpY_11wp_cli_core8business10connectors5sinks5tests25write_demo_route_business
FN:332,_RNvNtNtNtNtCskTKHy6T9bpY_11wp_cli_core8business10connectors5sinks5tests7tmp_dir
FN:382,_RNvNtNtNtNtCskTKHy6T9bpY_11wp_cli_core8business10connectors5sinks5testss_17route_table_basic
FN:554,_RNvNtNtNtNtCskTKHy6T9bpY_11wp_cli_core8business10connectors5sinks5testss_38test_validate_flexgroup_empty_patterns
FN:489,_RNvNtNtNtNtCskTKHy6T9bpY_11wp_cli_core8business10connectors5sinks5testss_38test_validate_flexgroup_oml_only_valid
FN:459,_RNvNtNtNtNtCskTKHy6T9bpY_11wp_cli_core8business10connectors5sinks5testss_39test_validate_flexgroup_rule_only_valid
FN:519,_RNvNtNtNtNtCskTKHy6T9bpY_11wp_cli_core8business10connectors5sinks5testss_47test_validate_flexgroup_rule_pattern_validation
FN:423,_RNvNtNtNtNtCskTKHy6T9bpY_11wp_cli_core8business10connectors5sinks5testss_51test_validate_flexgroup_oml_rule_mutually_exclusive
FN:305,_RNvNtNtNtCskTKHy6T9bpY_11wp_cli_core8business10connectors5sinks19load_connectors_map
FN:39,_RNvXNtNtNtCskTKHy6T9bpY_11wp_cli_core8business10connectors5sinksNtB2_17RouteFileWithPathNtNtNtCsaNl6UpbT7bw_4core3ops5deref5Deref5deref
FNDA:0,_RNCNvNtNtNtCs1d81em2mb8H_11wp_cli_core8business10connectors5sinks11load_routes0B9_
FNDA:0,_RNCNvNtNtNtCs1d81em2mb8H_11wp_cli_core8business10connectors5sinks11load_routess_0B9_
FNDA:4,_RNCNvNtNtNtCs1d81em2mb8H_11wp_cli_core8business10connectors5sinks11route_table0B9_
FNDA:8,_RNCNvNtNtNtCs1d81em2mb8H_11wp_cli_core8business10connectors5sinks11route_tables0_0B9_
FNDA:0,_RNCNvNtNtNtCs1d81em2mb8H_11wp_cli_core8business10connectors5sinks11route_tables1_0B9_
FNDA:0,_RNCNvNtNtNtCs1d81em2mb8H_11wp_cli_core8business10connectors5sinks11route_tables2_0B9_
FNDA:0,_RNCNvNtNtNtCs1d81em2mb8H_11wp_cli_core8business10connectors5sinks11route_tables3_0B9_
FNDA:0,_RNCNvNtNtNtCs1d81em2mb8H_11wp_cli_core8business10connectors5sinks11route_tables_0B9_
FNDA:4,_RNCNvNtNtNtCs1d81em2mb8H_11wp_cli_core8business10connectors5sinks15validate_routes0B9_
FNDA:0,_RNCNvNtNtNtCs1d81em2mb8H_11wp_cli_core8business10connectors5sinks15validate_routess_0B9_
FNDA:0,_RNCNvNtNtNtCs1d81em2mb8H_11wp_cli_core8business10connectors5sinks16read_dirs_sorted0B9_
FNDA:0,_RNCNvNtNtNtCs1d81em2mb8H_11wp_cli_core8business10connectors5sinks16read_dirs_sorteds0_0B9_
FNDA:0,_RNCNvNtNtNtCs1d81em2mb8H_11wp_cli_core8business10connectors5sinks16read_dirs_sorteds_0B9_
FNDA:0,_RNCNvNtNtNtCs1d81em2mb8H_11wp_cli_core8business10connectors5sinks16target_detail_of0B9_
FNDA:8,_RNCNvNtNtNtCs1d81em2mb8H_11wp_cli_core8business10connectors5sinks20load_sink_connectors0B9_
FNDA:0,_RNCNvNtNtNtCs1d81em2mb8H_11wp_cli_core8business10connectors5sinks21list_connectors_usage0B9_
FNDA:0,_RNCNvNtNtNtCs1d81em2mb8H_11wp_cli_core8business10connectors5sinks21list_connectors_usages0_0B9_
FNDA:0,_RNCNvNtNtNtCs1d81em2mb8H_11wp_cli_core8business10connectors5sinks21list_connectors_usages_0B9_
FNDA:3,_RNCNvNvNtNtNtCs1d81em2mb8H_11wp_cli_core8business10connectors5sinks11route_table7matched0Bb_
FNDA:0,_RNvMs_NtNtNtCs1d81em2mb8H_11wp_cli_core8business10connectors5sinksNtB4_17RouteFileWithPath8path_str
FNDA:11,_RNvNtNtNtCs1d81em2mb8H_11wp_cli_core8business10connectors5sinks11load_routes
FNDA:4,_RNvNtNtNtCs1d81em2mb8H_11wp_cli_core8business10connectors5sinks11route_table
FNDA:3,_RNvNtNtNtCs1d81em2mb8H_11wp_cli_core8business10connectors5sinks15params_one_line
FNDA:7,_RNvNtNtNtCs1d81em2mb8H_11wp_cli_core8business10connectors5sinks15validate_routes
FNDA:0,_RNvNtNtNtCs1d81em2mb8H_11wp_cli_core8business10connectors5sinks16read_dirs_sorted
FNDA:3,_RNvNtNtNtCs1d81em2mb8H_11wp_cli_core8business10connectors5sinks16target_detail_of
FNDA:0,_RNvNtNtNtCs1d81em2mb8H_11wp_cli_core8business10connectors5sinks19load_connectors_map
FNDA:8,_RNvNtNtNtCs1d81em2mb8H_11wp_cli_core8business10connectors5sinks20load_sink_connectors
FNDA:0,_RNvNtNtNtCs1d81em2mb8H_11wp_cli_core8business10connectors5sinks21list_connectors_usage
FNDA:7,_RNvNvNtNtNtCs1d81em2mb8H_11wp_cli_core8business10connectors5sinks11route_table7matched
FNDA:0,_RNvXNtNtNtCs1d81em2mb8H_11wp_cli_core8business10connectors5sinksNtB2_17RouteFileWithPathNtNtNtCsaNl6UpbT7bw_4core3ops5deref5Deref5deref
FNDA:1,_RNvMs_NtNtNtCskTKHy6T9bpY_11wp_cli_core8business10connectors5sinksNtB4_17RouteFileWithPath8path_str
FNDA:8,_RNvNtNtNtCskTKHy6T9bpY_11wp_cli_core8business10connectors5sinks11load_routes
FNDA:1,_RNvNtNtNtCskTKHy6T9bpY_11wp_cli_core8business10connectors5sinks11route_table
FNDA:1,_RNvNtNtNtCskTKHy6T9bpY_11wp_cli_core8business10connectors5sinks15params_one_line
FNDA:6,_RNvNtNtNtCskTKHy6T9bpY_11wp_cli_core8business10connectors5sinks15validate_routes
FNDA:6,_RNvNtNtNtCskTKHy6T9bpY_11wp_cli_core8business10connectors5sinks16read_dirs_sorted
FNDA:1,_RNvNtNtNtCskTKHy6T9bpY_11wp_cli_core8business10connectors5sinks16target_detail_of
FNDA:9,_RNvNtNtNtCskTKHy6T9bpY_11wp_cli_core8business10connectors5sinks20load_sink_connectors
FNDA:1,_RNvNtNtNtCskTKHy6T9bpY_11wp_cli_core8business10connectors5sinks21list_connectors_usage
FNDA:2,_RNvNvNtNtNtCskTKHy6T9bpY_11wp_cli_core8business10connectors5sinks11route_table7matched
FNDA:1,_RNCNvNtNtNtNtCskTKHy6T9bpY_11wp_cli_core8business10connectors5sinks5testss_17route_table_basic0Bb_
FNDA:1,_RNCNvNtNtNtNtCskTKHy6T9bpY_11wp_cli_core8business10connectors5sinks5testss_17route_table_basics_0Bb_
FNDA:0,_RNCNvNtNtNtCskTKHy6T9bpY_11wp_cli_core8business10connectors5sinks11load_routes0B9_
FNDA:0,_RNCNvNtNtNtCskTKHy6T9bpY_11wp_cli_core8business10connectors5sinks11load_routess_0B9_
FNDA:1,_RNCNvNtNtNtCskTKHy6T9bpY_11wp_cli_core8business10connectors5sinks11route_table0B9_
FNDA:0,_RNCNvNtNtNtCskTKHy6T9bpY_11wp_cli_core8business10connectors5sinks11route_tables0_0B9_
FNDA:0,_RNCNvNtNtNtCskTKHy6T9bpY_11wp_cli_core8business10connectors5sinks11route_tables1_0B9_
FNDA:0,_RNCNvNtNtNtCskTKHy6T9bpY_11wp_cli_core8business10connectors5sinks11route_tables2_0B9_
FNDA:0,_RNCNvNtNtNtCskTKHy6T9bpY_11wp_cli_core8business10connectors5sinks11route_tables3_0B9_
FNDA:0,_RNCNvNtNtNtCskTKHy6T9bpY_11wp_cli_core8business10connectors5sinks11route_tables_0B9_
FNDA:6,_RNCNvNtNtNtCskTKHy6T9bpY_11wp_cli_core8business10connectors5sinks15validate_routes0B9_
FNDA:0,_RNCNvNtNtNtCskTKHy6T9bpY_11wp_cli_core8business10connectors5sinks15validate_routess_0B9_
FNDA:6,_RNCNvNtNtNtCskTKHy6T9bpY_11wp_cli_core8business10connectors5sinks16read_dirs_sorted0B9_
FNDA:6,_RNCNvNtNtNtCskTKHy6T9bpY_11wp_cli_core8business10connectors5sinks16read_dirs_sorteds0_0B9_
FNDA:6,_RNCNvNtNtNtCskTKHy6T9bpY_11wp_cli_core8business10connectors5sinks16read_dirs_sorteds_0B9_
FNDA:0,_RNCNvNtNtNtCskTKHy6T9bpY_11wp_cli_core8business10connectors5sinks16target_detail_of0B9_
FNDA:9,_RNCNvNtNtNtCskTKHy6T9bpY_11wp_cli_core8business10connectors5sinks20load_sink_connectors0B9_
FNDA:1,_RNCNvNtNtNtCskTKHy6T9bpY_11wp_cli_core8business10connectors5sinks21list_connectors_usage0B9_
FNDA:0,_RNCNvNtNtNtCskTKHy6T9bpY_11wp_cli_core8business10connectors5sinks21list_connectors_usages0_0B9_
FNDA:0,_RNCNvNtNtNtCskTKHy6T9bpY_11wp_cli_core8business10connectors5sinks21list_connectors_usages_0B9_
FNDA:0,_RNCNvNvNtNtNtCskTKHy6T9bpY_11wp_cli_core8business10connectors5sinks11route_table7matched0Bb_
FNDA:6,_RNvNtNtNtNtCskTKHy6T9bpY_11wp_cli_core8business10connectors5sinks5tests21write_demo_connectors
FNDA:1,_RNvNtNtNtNtCskTKHy6T9bpY_11wp_cli_core8business10connectors5sinks5tests25write_demo_route_business
FNDA:6,_RNvNtNtNtNtCskTKHy6T9bpY_11wp_cli_core8business10connectors5sinks5tests7tmp_dir
FNDA:1,_RNvNtNtNtNtCskTKHy6T9bpY_11wp_cli_core8business10connectors5sinks5testss_17route_table_basic
FNDA:1,_RNvNtNtNtNtCskTKHy6T9bpY_11wp_cli_core8business10connectors5sinks5testss_38test_validate_flexgroup_empty_patterns
FNDA:1,_RNvNtNtNtNtCskTKHy6T9bpY_11wp_cli_core8business10connectors5sinks5testss_38test_validate_flexgroup_oml_only_valid
FNDA:1,_RNvNtNtNtNtCskTKHy6T9bpY_11wp_cli_core8business10connectors5sinks5testss_39test_validate_flexgroup_rule_only_valid
FNDA:1,_RNvNtNtNtNtCskTKHy6T9bpY_11wp_cli_core8business10connectors5sinks5testss_47test_validate_flexgroup_rule_pattern_validation
FNDA:1,_RNvNtNtNtNtCskTKHy6T9bpY_11wp_cli_core8business10connectors5sinks5testss_51test_validate_flexgroup_oml_rule_mutually_exclusive
FNDA:0,_RNvNtNtNtCskTKHy6T9bpY_11wp_cli_core8business10connectors5sinks19load_connectors_map
FNDA:0,_RNvXNtNtNtCskTKHy6T9bpY_11wp_cli_core8business10connectors5sinksNtB2_17RouteFileWithPathNtNtNtCsaNl6UpbT7bw_4core3ops5deref5Deref5deref
FNF:42
FNH:30
DA:19,6
DA:20,6
DA:21,6
DA:22,6
DA:23,6
DA:24,6
DA:25,6
DA:26,6
DA:27,6
DA:28,6
DA:29,6
DA:39,0
DA:40,0
DA:41,0
DA:44,1
DA:45,1
DA:46,1
DA:50,19
DA:51,19
DA:53,19
DA:54,19
DA:55,3
DA:56,3
DA:57,3
DA:58,3
DA:59,6
DA:60,6
DA:61,3
DA:62,3
DA:63,3
DA:64,3
DA:66,3
DA:70,16
DA:73,19
DA:74,38
DA:75,38
DA:76,17
DA:77,17
DA:78,13
DA:79,13
DA:81,21
DA:83,19
DA:84,19
DA:87,13
DA:88,13
DA:89,13
DA:90,17
DA:91,10
DA:92,10
DA:93,10
DA:94,10
DA:95,10
DA:96,10
DA:97,10
DA:98,10
DA:99,10
DA:102,10
DA:103,10
DA:104,10
DA:107,10
DA:108,2
DA:110,2
DA:111,2
DA:112,2
DA:113,2
DA:114,2
DA:115,2
DA:116,2
DA:117,2
DA:118,8
DA:121,8
DA:122,8
DA:124,8
DA:125,2
DA:126,2
DA:127,2
DA:128,2
DA:129,2
DA:130,2
DA:131,2
DA:132,2
DA:133,2
DA:134,6
DA:136,6
DA:137,2
DA:138,2
DA:139,2
DA:140,2
DA:141,2
DA:142,2
DA:143,2
DA:144,2
DA:145,2
DA:146,4
DA:150,4
DA:151,2
DA:153,2
DA:154,0
DA:155,0
DA:156,0
DA:157,0
DA:158,0
DA:159,0
DA:160,0
DA:161,0
DA:162,0
DA:163,2
DA:166,7
DA:167,13
DA:170,1
DA:171,1
DA:172,1
DA:173,1
DA:174,1
DA:175,1
DA:176,1
DA:177,1
DA:178,1
DA:179,1
DA:180,1
DA:181,2
DA:182,1
DA:183,1
DA:184,1
DA:185,1
DA:186,1
DA:187,1
DA:188,1
DA:189,1
DA:190,1
DA:191,1
DA:192,1
DA:193,1
DA:194,1
DA:197,1
DA:198,1
DA:215,5
DA:216,5
DA:217,5
DA:218,5
DA:219,5
DA:220,5
DA:221,9
DA:222,9
DA:223,6
DA:224,3
DA:225,3
DA:226,9
DA:227,5
DA:228,5
DA:229,5
DA:230,10
DA:231,5
DA:232,5
DA:233,5
DA:234,5
DA:235,5
DA:236,5
DA:237,5
DA:238,5
DA:239,5
DA:240,5
DA:241,5
DA:242,5
DA:244,0
DA:246,5
DA:248,5
DA:249,8
DA:250,5
DA:251,5
DA:252,1
DA:253,4
DA:254,4
DA:255,4
DA:256,4
DA:257,0
DA:258,4
DA:259,4
DA:260,4
DA:261,4
DA:262,4
DA:263,4
DA:264,4
DA:265,4
DA:266,4
DA:267,4
DA:268,4
DA:269,4
DA:270,4
DA:272,4
DA:275,5
DA:276,5
DA:277,5
DA:280,4
DA:281,4
DA:282,4
DA:283,4
DA:284,0
DA:286,4
DA:291,4
DA:292,4
DA:293,4
DA:294,4
DA:295,0
DA:296,0
DA:298,4
DA:300,4
DA:301,4
DA:302,4
DA:305,0
DA:306,0
DA:307,0
DA:308,0
DA:309,0
DA:310,0
DA:312,17
DA:313,17
DA:314,17
DA:315,17
DA:316,17
DA:317,17
DA:318,17
DA:320,0
DA:322,17
DA:332,6
DA:333,6
DA:334,6
DA:335,6
DA:336,6
DA:337,6
DA:338,6
DA:339,6
DA:340,6
DA:341,6
DA:343,6
DA:344,6
DA:345,6
DA:346,6
DA:347,6
DA:354,6
DA:355,6
DA:357,1
DA:358,1
DA:359,1
DA:360,1
DA:361,1
DA:362,1
DA:377,1
DA:378,1
DA:379,1
DA:382,1
DA:383,1
DA:384,1
DA:385,1
DA:386,1
DA:389,1
DA:390,1
DA:393,1
DA:394,1
DA:395,1
DA:396,1
DA:397,1
DA:399,1
DA:400,1
DA:401,1
DA:402,1
DA:403,1
DA:404,1
DA:405,1
DA:408,1
DA:409,1
DA:410,1
DA:411,1
DA:412,1
DA:413,1
DA:414,1
DA:415,1
DA:416,1
DA:417,1
DA:418,1
DA:420,1
DA:423,1
DA:425,1
DA:426,1
DA:429,1
DA:430,1
DA:432,1
DA:433,1
DA:434,1
DA:435,1
DA:436,1
DA:437,1
DA:438,1
DA:439,1
DA:440,1
DA:441,1
DA:442,1
DA:443,1
DA:444,1
DA:446,1
DA:447,1
DA:450,1
DA:451,1
DA:453,1
DA:454,1
DA:455,1
DA:456,1
DA:459,1
DA:461,1
DA:462,1
DA:464,1
DA:465,1
DA:467,1
DA:468,1
DA:469,1
DA:470,1
DA:471,1
DA:472,1
DA:473,1
DA:474,1
DA:475,1
DA:476,1
DA:477,1
DA:478,1
DA:480,1
DA:481,1
DA:484,1
DA:485,1
DA:486,1
DA:489,1
DA:491,1
DA:492,1
DA:494,1
DA:495,1
DA:497,1
DA:498,1
DA:499,1
DA:500,1
DA:501,1
DA:502,1
DA:503,1
DA:504,1
DA:505,1
DA:506,1
DA:507,1
DA:508,1
DA:510,1
DA:511,1
DA:514,1
DA:515,1
DA:516,1
DA:519,1
DA:521,1
DA:522,1
DA:524,1
DA:525,1
DA:528,1
DA:529,1
DA:530,1
DA:531,1
DA:532,1
DA:533,1
DA:534,1
DA:535,1
DA:536,1
DA:537,1
DA:538,1
DA:539,1
DA:540,1
DA:542,1
DA:543,1
DA:546,1
DA:547,1
DA:549,1
DA:550,1
DA:551,1
DA:554,1
DA:556,1
DA:557,1
DA:559,1
DA:560,1
DA:563,1
DA:564,1
DA:565,1
DA:566,1
DA:567,1
DA:568,1
DA:569,1
DA:570,1
DA:571,1
DA:572,1
DA:573,1
DA:574,1
DA:576,1
DA:577,1
DA:580,1
DA:581,1
DA:583,1
DA:584,1
DA:585,1
BRF:0
BRH:0
LF:421
LH:387
end_of_record
SF:/Users/zwk/src_code/wp-labs/wp-motor/crates/wp-cli-core/src/business/connectors/sources.rs
FN:98,_RNvNtNtNtCs1d81em2mb8H_11wp_cli_core8business10connectors7sources11route_table
FN:60,_RNvNtNtNtCs1d81em2mb8H_11wp_cli_core8business10connectors7sources15list_connectors
FN:35,_RNvNtNtNtCs1d81em2mb8H_11wp_cli_core8business10connectors7sources18resolve_wpsrc_path
FN:41,_RNvNtNtNtCs1d81em2mb8H_11wp_cli_core8business10connectors7sources19load_connectors_map
FN:51,_RNvNtNtNtCs1d81em2mb8H_11wp_cli_core8business10connectors7sources9detail_of
FN:105,_RNCNvNtNtNtCs1d81em2mb8H_11wp_cli_core8business10connectors7sources11route_table0B9_
FN:138,_RNCNvNtNtNtCs1d81em2mb8H_11wp_cli_core8business10connectors7sources11route_tables0_0B9_
FN:117,_RNCNvNtNtNtCs1d81em2mb8H_11wp_cli_core8business10connectors7sources11route_tables_0B9_
FN:66,_RNCNvNtNtNtCs1d81em2mb8H_11wp_cli_core8business10connectors7sources15list_connectors0B9_
FN:93,_RNCNvNtNtNtCs1d81em2mb8H_11wp_cli_core8business10connectors7sources15list_connectorss0_0B9_
FN:86,_RNCNvNtNtNtCs1d81em2mb8H_11wp_cli_core8business10connectors7sources15list_connectorss_0B9_
FN:46,_RNCNvNtNtNtCs1d81em2mb8H_11wp_cli_core8business10connectors7sources19load_connectors_map0B9_
FN:98,_RNvNtNtNtCskTKHy6T9bpY_11wp_cli_core8business10connectors7sources11route_table
FN:60,_RNvNtNtNtCskTKHy6T9bpY_11wp_cli_core8business10connectors7sources15list_connectors
FN:35,_RNvNtNtNtCskTKHy6T9bpY_11wp_cli_core8business10connectors7sources18resolve_wpsrc_path
FN:41,_RNvNtNtNtCskTKHy6T9bpY_11wp_cli_core8business10connectors7sources19load_connectors_map
FN:51,_RNvNtNtNtCskTKHy6T9bpY_11wp_cli_core8business10connectors7sources9detail_of
FN:151,_RNvNtNtNtNtCskTKHy6T9bpY_11wp_cli_core8business10connectors7sources5tests7tmp_dir
FN:163,_RNvNtNtNtNtCskTKHy6T9bpY_11wp_cli_core8business10connectors7sources5testss_27list_connectors_counts_refs
FN:246,_RNvNtNtNtNtCskTKHy6T9bpY_11wp_cli_core8business10connectors7sources5testss_29route_table_path_like_filters
FN:207,_RNvNtNtNtNtCskTKHy6T9bpY_11wp_cli_core8business10connectors7sources5testss_47route_table_merges_overrides_and_renders_params
FN:105,_RNCNvNtNtNtCskTKHy6T9bpY_11wp_cli_core8business10connectors7sources11route_table0B9_
FN:138,_RNCNvNtNtNtCskTKHy6T9bpY_11wp_cli_core8business10connectors7sources11route_tables0_0B9_
FN:117,_RNCNvNtNtNtCskTKHy6T9bpY_11wp_cli_core8business10connectors7sources11route_tables_0B9_
FN:66,_RNCNvNtNtNtCskTKHy6T9bpY_11wp_cli_core8business10connectors7sources15list_connectors0B9_
FN:93,_RNCNvNtNtNtCskTKHy6T9bpY_11wp_cli_core8business10connectors7sources15list_connectorss0_0B9_
FN:86,_RNCNvNtNtNtCskTKHy6T9bpY_11wp_cli_core8business10connectors7sources15list_connectorss_0B9_
FN:46,_RNCNvNtNtNtCskTKHy6T9bpY_11wp_cli_core8business10connectors7sources19load_connectors_map0B9_
FNDA:0,_RNvNtNtNtCs1d81em2mb8H_11wp_cli_core8business10connectors7sources11route_table
FNDA:1,_RNvNtNtNtCs1d81em2mb8H_11wp_cli_core8business10connectors7sources15list_connectors
FNDA:1,_RNvNtNtNtCs1d81em2mb8H_11wp_cli_core8business10connectors7sources18resolve_wpsrc_path
FNDA:1,_RNvNtNtNtCs1d81em2mb8H_11wp_cli_core8business10connectors7sources19load_connectors_map
FNDA:0,_RNvNtNtNtCs1d81em2mb8H_11wp_cli_core8business10connectors7sources9detail_of
FNDA:0,_RNCNvNtNtNtCs1d81em2mb8H_11wp_cli_core8business10connectors7sources11route_table0B9_
FNDA:0,_RNCNvNtNtNtCs1d81em2mb8H_11wp_cli_core8business10connectors7sources11route_tables0_0B9_
FNDA:0,_RNCNvNtNtNtCs1d81em2mb8H_11wp_cli_core8business10connectors7sources11route_tables_0B9_
FNDA:0,_RNCNvNtNtNtCs1d81em2mb8H_11wp_cli_core8business10connectors7sources15list_connectors0B9_
FNDA:0,_RNCNvNtNtNtCs1d81em2mb8H_11wp_cli_core8business10connectors7sources15list_connectorss0_0B9_
FNDA:0,_RNCNvNtNtNtCs1d81em2mb8H_11wp_cli_core8business10connectors7sources15list_connectorss_0B9_
FNDA:0,_RNCNvNtNtNtCs1d81em2mb8H_11wp_cli_core8business10connectors7sources19load_connectors_map0B9_
FNDA:3,_RNvNtNtNtCskTKHy6T9bpY_11wp_cli_core8business10connectors7sources11route_table
FNDA:1,_RNvNtNtNtCskTKHy6T9bpY_11wp_cli_core8business10connectors7sources15list_connectors
FNDA:4,_RNvNtNtNtCskTKHy6T9bpY_11wp_cli_core8business10connectors7sources18resolve_wpsrc_path
FNDA:4,_RNvNtNtNtCskTKHy6T9bpY_11wp_cli_core8business10connectors7sources19load_connectors_map
FNDA:4,_RNvNtNtNtCskTKHy6T9bpY_11wp_cli_core8business10connectors7sources9detail_of
FNDA:3,_RNvNtNtNtNtCskTKHy6T9bpY_11wp_cli_core8business10connectors7sources5tests7tmp_dir
FNDA:1,_RNvNtNtNtNtCskTKHy6T9bpY_11wp_cli_core8business10connectors7sources5testss_27list_connectors_counts_refs
FNDA:1,_RNvNtNtNtNtCskTKHy6T9bpY_11wp_cli_core8business10connectors7sources5testss_29route_table_path_like_filters
FNDA:1,_RNvNtNtNtNtCskTKHy6T9bpY_11wp_cli_core8business10connectors7sources5testss_47route_table_merges_overrides_and_renders_params
FNDA:0,_RNCNvNtNtNtCskTKHy6T9bpY_11wp_cli_core8business10connectors7sources11route_table0B9_
FNDA:0,_RNCNvNtNtNtCskTKHy6T9bpY_11wp_cli_core8business10connectors7sources11route_tables0_0B9_
FNDA:0,_RNCNvNtNtNtCskTKHy6T9bpY_11wp_cli_core8business10connectors7sources11route_tables_0B9_
FNDA:0,_RNCNvNtNtNtCskTKHy6T9bpY_11wp_cli_core8business10connectors7sources15list_connectors0B9_
FNDA:0,_RNCNvNtNtNtCskTKHy6T9bpY_11wp_cli_core8business10connectors7sources15list_connectorss0_0B9_
FNDA:1,_RNCNvNtNtNtCskTKHy6T9bpY_11wp_cli_core8business10connectors7sources15list_connectorss_0B9_
FNDA:4,_RNCNvNtNtNtCskTKHy6T9bpY_11wp_cli_core8business10connectors7sources19load_connectors_map0B9_
FNF:16
FNH:11
DA:35,5
DA:36,5
DA:37,5
DA:38,5
DA:41,5
DA:42,5
DA:43,5
DA:44,5
DA:45,5
DA:46,5
DA:47,5
DA:51,4
DA:52,4
DA:53,4
DA:54,4
DA:55,0
DA:57,4
DA:60,2
DA:61,2
DA:62,2
DA:63,2
DA:64,2
DA:65,2
DA:66,2
DA:67,0
DA:68,0
DA:69,0
DA:70,0
DA:71,0
DA:73,0
DA:74,2
DA:75,2
DA:78,1
DA:79,3
DA:80,2
DA:81,2
DA:83,1
DA:84,1
DA:85,1
DA:86,1
DA:87,1
DA:88,1
DA:89,1
DA:90,1
DA:91,1
DA:92,1
DA:93,1
DA:94,1
DA:95,2
DA:98,3
DA:99,3
DA:100,3
DA:101,3
DA:102,3
DA:103,3
DA:104,3
DA:105,3
DA:106,0
DA:107,0
DA:108,0
DA:109,0
DA:110,0
DA:112,0
DA:113,3
DA:114,3
DA:115,3
DA:116,3
DA:117,3
DA:118,0
DA:119,0
DA:120,0
DA:121,0
DA:122,3
DA:123,3
DA:124,3
DA:125,3
DA:126,3
DA:127,3
DA:128,3
DA:129,3
DA:130,3
DA:131,3
DA:132,1
DA:134,1
DA:135,2
DA:136,2
DA:138,3
DA:139,3
DA:140,3
DA:151,3
DA:152,3
DA:153,3
DA:154,3
DA:155,3
DA:156,3
DA:157,3
DA:158,3
DA:159,3
DA:160,3
DA:163,1
DA:164,1
DA:166,1
DA:167,1
DA:168,1
DA:169,1
DA:176,1
DA:178,1
DA:179,1
DA:180,1
DA:181,1
DA:192,1
DA:194,1
DA:195,1
DA:196,1
DA:197,1
DA:198,1
DA:200,1
DA:201,1
DA:202,1
DA:203,1
DA:204,1
DA:207,1
DA:208,1
DA:210,1
DA:211,1
DA:212,1
DA:213,1
DA:220,1
DA:222,1
DA:223,1
DA:224,1
DA:225,1
DA:232,1
DA:234,1
DA:235,1
DA:236,1
DA:237,1
DA:238,1
DA:239,1
DA:240,1
DA:242,1
DA:243,1
DA:246,1
DA:247,1
DA:248,1
DA:249,1
DA:250,1
DA:251,1
DA:258,1
DA:259,1
DA:260,1
DA:261,1
DA:262,1
DA:269,1
DA:271,1
DA:272,1
DA:273,1
DA:274,1
DA:275,1
DA:276,1
DA:277,1
DA:278,1
DA:279,1
DA:280,1
DA:282,1
DA:283,1
DA:284,1
BRF:0
BRH:0
LF:176
LH:151
end_of_record
SF:/Users/zwk/src_code/wp-labs/wp-motor/crates/wp-cli-core/src/business/observability/sinks.rs
FN:37,_RNCNvNtNtNtCs1d81em2mb8H_11wp_cli_core8business13observability5sinks13process_group0B9_
FN:47,_RNCNvNtNtNtCs1d81em2mb8H_11wp_cli_core8business13observability5sinks13process_groups0_0B9_
FN:41,_RNCNvNtNtNtCs1d81em2mb8H_11wp_cli_core8business13observability5sinks13process_groups_0B9_
FN:129,_RNCNvNtNtNtCs1d81em2mb8H_11wp_cli_core8business13observability5sinks16process_group_v20B9_
FN:140,_RNCNvNtNtNtCs1d81em2mb8H_11wp_cli_core8business13observability5sinks16process_group_v2s0_0B9_
FN:134,_RNCNvNtNtNtCs1d81em2mb8H_11wp_cli_core8business13observability5sinks16process_group_v2s_0B9_
FN:14,_RNvNtNtNtCskTKHy6T9bpY_11wp_cli_core8business13observability5sinks13process_group
FN:129,_RNCNvNtNtNtCskTKHy6T9bpY_11wp_cli_core8business13observability5sinks16process_group_v20B9_
FN:140,_RNCNvNtNtNtCskTKHy6T9bpY_11wp_cli_core8business13observability5sinks16process_group_v2s0_0B9_
FN:134,_RNCNvNtNtNtCskTKHy6T9bpY_11wp_cli_core8business13observability5sinks16process_group_v2s_0B9_
FN:108,_RNvNtNtNtCskTKHy6T9bpY_11wp_cli_core8business13observability5sinks16process_group_v2
FN:201,_RNvNtNtNtCskTKHy6T9bpY_11wp_cli_core8business13observability5sinks23collect_sink_statistics
FN:37,_RNCNvNtNtNtCskTKHy6T9bpY_11wp_cli_core8business13observability5sinks13process_group0B9_
FN:47,_RNCNvNtNtNtCskTKHy6T9bpY_11wp_cli_core8business13observability5sinks13process_groups0_0B9_
FN:41,_RNCNvNtNtNtCskTKHy6T9bpY_11wp_cli_core8business13observability5sinks13process_groups_0B9_
FNDA:0,_RNCNvNtNtNtCs1d81em2mb8H_11wp_cli_core8business13observability5sinks13process_group0B9_
FNDA:0,_RNCNvNtNtNtCs1d81em2mb8H_11wp_cli_core8business13observability5sinks13process_groups0_0B9_
FNDA:0,_RNCNvNtNtNtCs1d81em2mb8H_11wp_cli_core8business13observability5sinks13process_groups_0B9_
FNDA:0,_RNCNvNtNtNtCs1d81em2mb8H_11wp_cli_core8business13observability5sinks16process_group_v20B9_
FNDA:0,_RNCNvNtNtNtCs1d81em2mb8H_11wp_cli_core8business13observability5sinks16process_group_v2s0_0B9_
FNDA:0,_RNCNvNtNtNtCs1d81em2mb8H_11wp_cli_core8business13observability5sinks16process_group_v2s_0B9_
FNDA:1,_RNvNtNtNtCskTKHy6T9bpY_11wp_cli_core8business13observability5sinks13process_group
FNDA:0,_RNCNvNtNtNtCskTKHy6T9bpY_11wp_cli_core8business13observability5sinks16process_group_v20B9_
FNDA:0,_RNCNvNtNtNtCskTKHy6T9bpY_11wp_cli_core8business13observability5sinks16process_group_v2s0_0B9_
FNDA:0,_RNCNvNtNtNtCskTKHy6T9bpY_11wp_cli_core8business13observability5sinks16process_group_v2s_0B9_
FNDA:0,_RNvNtNtNtCskTKHy6T9bpY_11wp_cli_core8business13observability5sinks16process_group_v2
FNDA:0,_RNvNtNtNtCskTKHy6T9bpY_11wp_cli_core8business13observability5sinks23collect_sink_statistics
FNDA:1,_RNCNvNtNtNtCskTKHy6T9bpY_11wp_cli_core8business13observability5sinks13process_group0B9_
FNDA:0,_RNCNvNtNtNtCskTKHy6T9bpY_11wp_cli_core8business13observability5sinks13process_groups0_0B9_
FNDA:1,_RNCNvNtNtNtCskTKHy6T9bpY_11wp_cli_core8business13observability5sinks13process_groups_0B9_
FNF:9
FNH:3
DA:14,1
DA:15,1
DA:16,1
DA:17,1
DA:18,1
DA:19,1
DA:20,1
DA:21,1
DA:22,1
DA:23,1
DA:24,1
DA:25,1
DA:26,0
DA:27,1
DA:28,1
DA:29,1
DA:30,0
DA:31,1
DA:33,1
DA:34,1
DA:35,1
DA:36,1
DA:37,1
DA:38,1
DA:39,1
DA:40,1
DA:41,1
DA:42,1
DA:43,1
DA:45,0
DA:46,0
DA:47,0
DA:48,0
DA:49,0
DA:51,1
DA:52,0
DA:54,0
DA:55,1
DA:56,1
DA:57,1
DA:58,1
DA:59,1
DA:60,1
DA:61,1
DA:62,1
DA:63,1
DA:64,1
DA:65,1
DA:66,1
DA:67,1
DA:68,1
DA:69,1
DA:70,1
DA:71,1
DA:72,1
DA:73,1
DA:74,1
DA:75,1
DA:77,0
DA:78,0
DA:79,0
DA:80,0
DA:81,0
DA:82,0
DA:83,0
DA:84,0
DA:85,0
DA:86,0
DA:87,0
DA:88,0
DA:89,0
DA:90,0
DA:91,0
DA:92,0
DA:96,1
DA:97,1
DA:108,0
DA:109,0
DA:110,0
DA:111,0
DA:112,0
DA:113,0
DA:114,0
DA:115,0
DA:116,0
DA:117,0
DA:118,0
DA:119,0
DA:120,0
DA:121,0
DA:123,0
DA:125,0
DA:126,0
DA:127,0
DA:128,0
DA:129,0
DA:130,0
DA:131,0
DA:132,0
DA:133,0
DA:134,0
DA:135,0
DA:136,0
DA:138,0
DA:139,0
DA:140,0
DA:141,0
DA:142,0
DA:144,0
DA:145,0
DA:147,0
DA:148,0
DA:149,0
DA:150,0
DA:151,0
DA:152,0
DA:153,0
DA:154,0
DA:155,0
DA:156,0
DA:157,0
DA:158,0
DA:159,0
DA:160,0
DA:161,0
DA:162,0
DA:163,0
DA:164,0
DA:165,0
DA:166,0
DA:168,0
DA:169,0
DA:170,0
DA:171,0
DA:172,0
DA:173,0
DA:174,0
DA:175,0
DA:176,0
DA:177,0
DA:178,0
DA:179,0
DA:180,0
DA:181,0
DA:184,0
DA:186,0
DA:187,0
DA:201,0
DA:202,0
DA:203,0
DA:204,0
DA:205,0
DA:207,0
DA:208,0
DA:209,0
DA:210,0
DA:212,0
DA:214,0
DA:215,0
DA:218,0
DA:219,0
DA:220,0
DA:221,0
DA:222,0
DA:223,0
DA:224,0
DA:225,0
DA:226,0
DA:227,0
DA:228,0
DA:229,0
DA:230,0
DA:231,0
DA:235,0
DA:236,0
DA:237,0
DA:238,0
DA:239,0
DA:240,0
DA:241,0
DA:242,0
DA:243,0
DA:244,0
DA:245,0
DA:246,0
DA:247,0
DA:248,0
DA:251,0
DA:252,0
BRF:0
BRH:0
LF:195
LH:53
end_of_record
SF:/Users/zwk/src_code/wp-labs/wp-motor/crates/wp-cli-core/src/business/observability/sources.rs
FN:21,_RNvNtNtNtCs1d81em2mb8H_11wp_cli_core8business13observability7sources15read_wpsrc_toml
FN:43,_RNvNtNtNtCs1d81em2mb8H_11wp_cli_core8business13observability7sources16has_glob_pattern
FN:84,_RNvNtNtNtCs1d81em2mb8H_11wp_cli_core8business13observability7sources19expand_source_paths
FN:29,_RNvNtNtNtCs1d81em2mb8H_11wp_cli_core8business13observability7sources19load_connectors_map
FN:111,_RNvNtNtNtCs1d81em2mb8H_11wp_cli_core8business13observability7sources22total_input_from_wpsrc
FN:36,_RNvNtNtNtCs1d81em2mb8H_11wp_cli_core8business13observability7sources23toml_table_to_param_map
FN:61,_RNvNtNtNtCs1d81em2mb8H_11wp_cli_core8business13observability7sources26validated_file_source_path
FN:47,_RNvNtNtNtCs1d81em2mb8H_11wp_cli_core8business13observability7sources27configured_file_source_path
FN:173,_RNvNtNtNtCs1d81em2mb8H_11wp_cli_core8business13observability7sources28list_file_sources_with_lines
FN:55,_RNCNCNvNtNtNtCs1d81em2mb8H_11wp_cli_core8business13observability7sources27configured_file_source_paths0_00Bb_
FN:96,_RNCNvNtNtNtCs1d81em2mb8H_11wp_cli_core8business13observability7sources19expand_source_paths0B9_
FN:97,_RNCNvNtNtNtCs1d81em2mb8H_11wp_cli_core8business13observability7sources19expand_source_pathss_0B9_
FN:123,_RNCNvNtNtNtCs1d81em2mb8H_11wp_cli_core8business13observability7sources22total_input_from_wpsrc0B9_
FN:135,_RNCNvNtNtNtCs1d81em2mb8H_11wp_cli_core8business13observability7sources22total_input_from_wpsrcs0_0B9_
FN:136,_RNCNvNtNtNtCs1d81em2mb8H_11wp_cli_core8business13observability7sources22total_input_from_wpsrcs1_0B9_
FN:144,_RNCNvNtNtNtCs1d81em2mb8H_11wp_cli_core8business13observability7sources22total_input_from_wpsrcs2_0B9_
FN:147,_RNCNvNtNtNtCs1d81em2mb8H_11wp_cli_core8business13observability7sources22total_input_from_wpsrcs3_0B9_
FN:148,_RNCNvNtNtNtCs1d81em2mb8H_11wp_cli_core8business13observability7sources22total_input_from_wpsrcs4_0B9_
FN:153,_RNCNvNtNtNtCs1d81em2mb8H_11wp_cli_core8business13observability7sources22total_input_from_wpsrcs5_0B9_
FN:155,_RNCNvNtNtNtCs1d81em2mb8H_11wp_cli_core8business13observability7sources22total_input_from_wpsrcs6_0B9_
FN:158,_RNCNvNtNtNtCs1d81em2mb8H_11wp_cli_core8business13observability7sources22total_input_from_wpsrcs7_0B9_
FN:160,_RNCNvNtNtNtCs1d81em2mb8H_11wp_cli_core8business13observability7sources22total_input_from_wpsrcs8_0B9_
FN:130,_RNCNvNtNtNtCs1d81em2mb8H_11wp_cli_core8business13observability7sources22total_input_from_wpsrcs_0B9_
FN:39,_RNCNvNtNtNtCs1d81em2mb8H_11wp_cli_core8business13observability7sources23toml_table_to_param_map0B9_
FN:70,_RNCNvNtNtNtCs1d81em2mb8H_11wp_cli_core8business13observability7sources26validated_file_source_path0B9_
FN:78,_RNCNvNtNtNtCs1d81em2mb8H_11wp_cli_core8business13observability7sources26validated_file_source_paths_0B9_
FN:48,_RNCNvNtNtNtCs1d81em2mb8H_11wp_cli_core8business13observability7sources27configured_file_source_path0B9_
FN:52,_RNCNvNtNtNtCs1d81em2mb8H_11wp_cli_core8business13observability7sources27configured_file_source_paths0_0B9_
FN:52,_RNCNvNtNtNtCs1d81em2mb8H_11wp_cli_core8business13observability7sources27configured_file_source_paths_0B9_
FN:184,_RNCNvNtNtNtCs1d81em2mb8H_11wp_cli_core8business13observability7sources28list_file_sources_with_lines0B9_
FN:194,_RNCNvNtNtNtCs1d81em2mb8H_11wp_cli_core8business13observability7sources28list_file_sources_with_liness0_0B9_
FN:200,_RNCNvNtNtNtCs1d81em2mb8H_11wp_cli_core8business13observability7sources28list_file_sources_with_liness1_0B9_
FN:203,_RNCNvNtNtNtCs1d81em2mb8H_11wp_cli_core8business13observability7sources28list_file_sources_with_liness2_0B9_
FN:208,_RNCNvNtNtNtCs1d81em2mb8H_11wp_cli_core8business13observability7sources28list_file_sources_with_liness3_0B9_
FN:209,_RNCNvNtNtNtCs1d81em2mb8H_11wp_cli_core8business13observability7sources28list_file_sources_with_liness4_0B9_
FN:219,_RNCNvNtNtNtCs1d81em2mb8H_11wp_cli_core8business13observability7sources28list_file_sources_with_liness5_0B9_
FN:190,_RNCNvNtNtNtCs1d81em2mb8H_11wp_cli_core8business13observability7sources28list_file_sources_with_liness_0B9_
FN:55,_RNCNCNvNtNtNtCskTKHy6T9bpY_11wp_cli_core8business13observability7sources27configured_file_source_paths0_00Bb_
FN:96,_RNCNvNtNtNtCskTKHy6T9bpY_11wp_cli_core8business13observability7sources19expand_source_paths0B9_
FN:97,_RNCNvNtNtNtCskTKHy6T9bpY_11wp_cli_core8business13observability7sources19expand_source_pathss_0B9_
FN:123,_RNCNvNtNtNtCskTKHy6T9bpY_11wp_cli_core8business13observability7sources22total_input_from_wpsrc0B9_
FN:135,_RNCNvNtNtNtCskTKHy6T9bpY_11wp_cli_core8business13observability7sources22total_input_from_wpsrcs0_0B9_
FN:136,_RNCNvNtNtNtCskTKHy6T9bpY_11wp_cli_core8business13observability7sources22total_input_from_wpsrcs1_0B9_
FN:144,_RNCNvNtNtNtCskTKHy6T9bpY_11wp_cli_core8business13observability7sources22total_input_from_wpsrcs2_0B9_
FN:147,_RNCNvNtNtNtCskTKHy6T9bpY_11wp_cli_core8business13observability7sources22total_input_from_wpsrcs3_0B9_
FN:148,_RNCNvNtNtNtCskTKHy6T9bpY_11wp_cli_core8business13observability7sources22total_input_from_wpsrcs4_0B9_
FN:153,_RNCNvNtNtNtCskTKHy6T9bpY_11wp_cli_core8business13observability7sources22total_input_from_wpsrcs5_0B9_
FN:155,_RNCNvNtNtNtCskTKHy6T9bpY_11wp_cli_core8business13observability7sources22total_input_from_wpsrcs6_0B9_
FN:158,_RNCNvNtNtNtCskTKHy6T9bpY_11wp_cli_core8business13observability7sources22total_input_from_wpsrcs7_0B9_
FN:160,_RNCNvNtNtNtCskTKHy6T9bpY_11wp_cli_core8business13observability7sources22total_input_from_wpsrcs8_0B9_
FN:130,_RNCNvNtNtNtCskTKHy6T9bpY_11wp_cli_core8business13observability7sources22total_input_from_wpsrcs_0B9_
FN:39,_RNCNvNtNtNtCskTKHy6T9bpY_11wp_cli_core8business13observability7sources23toml_table_to_param_map0B9_
FN:70,_RNCNvNtNtNtCskTKHy6T9bpY_11wp_cli_core8business13observability7sources26validated_file_source_path0B9_
FN:78,_RNCNvNtNtNtCskTKHy6T9bpY_11wp_cli_core8business13observability7sources26validated_file_source_paths_0B9_
FN:48,_RNCNvNtNtNtCskTKHy6T9bpY_11wp_cli_core8business13observability7sources27configured_file_source_path0B9_
FN:52,_RNCNvNtNtNtCskTKHy6T9bpY_11wp_cli_core8business13observability7sources27configured_file_source_paths0_0B9_
FN:52,_RNCNvNtNtNtCskTKHy6T9bpY_11wp_cli_core8business13observability7sources27configured_file_source_paths_0B9_
FN:184,_RNCNvNtNtNtCskTKHy6T9bpY_11wp_cli_core8business13observability7sources28list_file_sources_with_lines0B9_
FN:194,_RNCNvNtNtNtCskTKHy6T9bpY_11wp_cli_core8business13observability7sources28list_file_sources_with_liness0_0B9_
FN:200,_RNCNvNtNtNtCskTKHy6T9bpY_11wp_cli_core8business13observability7sources28list_file_sources_with_liness1_0B9_
FN:203,_RNCNvNtNtNtCskTKHy6T9bpY_11wp_cli_core8business13observability7sources28list_file_sources_with_liness2_0B9_
FN:208,_RNCNvNtNtNtCskTKHy6T9bpY_11wp_cli_core8business13observability7sources28list_file_sources_with_liness3_0B9_
FN:209,_RNCNvNtNtNtCskTKHy6T9bpY_11wp_cli_core8business13observability7sources28list_file_sources_with_liness4_0B9_
FN:219,_RNCNvNtNtNtCskTKHy6T9bpY_11wp_cli_core8business13observability7sources28list_file_sources_with_liness5_0B9_
FN:190,_RNCNvNtNtNtCskTKHy6T9bpY_11wp_cli_core8business13observability7sources28list_file_sources_with_liness_0B9_
FN:21,_RNvNtNtNtCskTKHy6T9bpY_11wp_cli_core8business13observability7sources15read_wpsrc_toml
FN:43,_RNvNtNtNtCskTKHy6T9bpY_11wp_cli_core8business13observability7sources16has_glob_pattern
FN:84,_RNvNtNtNtCskTKHy6T9bpY_11wp_cli_core8business13observability7sources19expand_source_paths
FN:29,_RNvNtNtNtCskTKHy6T9bpY_11wp_cli_core8business13observability7sources19load_connectors_map
FN:111,_RNvNtNtNtCskTKHy6T9bpY_11wp_cli_core8business13observability7sources22total_input_from_wpsrc
FN:36,_RNvNtNtNtCskTKHy6T9bpY_11wp_cli_core8business13observability7sources23toml_table_to_param_map
FN:61,_RNvNtNtNtCskTKHy6T9bpY_11wp_cli_core8business13observability7sources26validated_file_source_path
FN:47,_RNvNtNtNtCskTKHy6T9bpY_11wp_cli_core8business13observability7sources27configured_file_source_path
FN:173,_RNvNtNtNtCskTKHy6T9bpY_11wp_cli_core8business13observability7sources28list_file_sources_with_lines
FNDA:14,_RNvNtNtNtCs1d81em2mb8H_11wp_cli_core8business13observability7sources15read_wpsrc_toml
FNDA:24,_RNvNtNtNtCs1d81em2mb8H_11wp_cli_core8business13observability7sources16has_glob_pattern
FNDA:12,_RNvNtNtNtCs1d81em2mb8H_11wp_cli_core8business13observability7sources19expand_source_paths
FNDA:12,_RNvNtNtNtCs1d81em2mb8H_11wp_cli_core8business13observability7sources19load_connectors_map
FNDA:6,_RNvNtNtNtCs1d81em2mb8H_11wp_cli_core8business13observability7sources22total_input_from_wpsrc
FNDA:16,_RNvNtNtNtCs1d81em2mb8H_11wp_cli_core8business13observability7sources23toml_table_to_param_map
FNDA:14,_RNvNtNtNtCs1d81em2mb8H_11wp_cli_core8business13observability7sources26validated_file_source_path
FNDA:11,_RNvNtNtNtCs1d81em2mb8H_11wp_cli_core8business13observability7sources27configured_file_source_path
FNDA:8,_RNvNtNtNtCs1d81em2mb8H_11wp_cli_core8business13observability7sources28list_file_sources_with_lines
FNDA:10,_RNCNCNvNtNtNtCs1d81em2mb8H_11wp_cli_core8business13observability7sources27configured_file_source_paths0_00Bb_
FNDA:0,_RNCNvNtNtNtCs1d81em2mb8H_11wp_cli_core8business13observability7sources19expand_source_paths0B9_
FNDA:0,_RNCNvNtNtNtCs1d81em2mb8H_11wp_cli_core8business13observability7sources19expand_source_pathss_0B9_
FNDA:5,_RNCNvNtNtNtCs1d81em2mb8H_11wp_cli_core8business13observability7sources22total_input_from_wpsrc0B9_
FNDA:5,_RNCNvNtNtNtCs1d81em2mb8H_11wp_cli_core8business13observability7sources22total_input_from_wpsrcs0_0B9_
FNDA:5,_RNCNvNtNtNtCs1d81em2mb8H_11wp_cli_core8business13observability7sources22total_input_from_wpsrcs1_0B9_
FNDA:5,_RNCNvNtNtNtCs1d81em2mb8H_11wp_cli_core8business13observability7sources22total_input_from_wpsrcs2_0B9_
FNDA:0,_RNCNvNtNtNtCs1d81em2mb8H_11wp_cli_core8business13observability7sources22total_input_from_wpsrcs3_0B9_
FNDA:5,_RNCNvNtNtNtCs1d81em2mb8H_11wp_cli_core8business13observability7sources22total_input_from_wpsrcs4_0B9_
FNDA:0,_RNCNvNtNtNtCs1d81em2mb8H_11wp_cli_core8business13observability7sources22total_input_from_wpsrcs5_0B9_
FNDA:1,_RNCNvNtNtNtCs1d81em2mb8H_11wp_cli_core8business13observability7sources22total_input_from_wpsrcs6_0B9_
FNDA:1,_RNCNvNtNtNtCs1d81em2mb8H_11wp_cli_core8business13observability7sources22total_input_from_wpsrcs7_0B9_
FNDA:1,_RNCNvNtNtNtCs1d81em2mb8H_11wp_cli_core8business13observability7sources22total_input_from_wpsrcs8_0B9_
FNDA:5,_RNCNvNtNtNtCs1d81em2mb8H_11wp_cli_core8business13observability7sources22total_input_from_wpsrcs_0B9_
FNDA:30,_RNCNvNtNtNtCs1d81em2mb8H_11wp_cli_core8business13observability7sources23toml_table_to_param_map0B9_
FNDA:12,_RNCNvNtNtNtCs1d81em2mb8H_11wp_cli_core8business13observability7sources26validated_file_source_path0B9_
FNDA:12,_RNCNvNtNtNtCs1d81em2mb8H_11wp_cli_core8business13observability7sources26validated_file_source_paths_0B9_
FNDA:1,_RNCNvNtNtNtCs1d81em2mb8H_11wp_cli_core8business13observability7sources27configured_file_source_path0B9_
FNDA:10,_RNCNvNtNtNtCs1d81em2mb8H_11wp_cli_core8business13observability7sources27configured_file_source_paths0_0B9_
FNDA:10,_RNCNvNtNtNtCs1d81em2mb8H_11wp_cli_core8business13observability7sources27configured_file_source_paths_0B9_
FNDA:7,_RNCNvNtNtNtCs1d81em2mb8H_11wp_cli_core8business13observability7sources28list_file_sources_with_lines0B9_
FNDA:11,_RNCNvNtNtNtCs1d81em2mb8H_11wp_cli_core8business13observability7sources28list_file_sources_with_liness0_0B9_
FNDA:11,_RNCNvNtNtNtCs1d81em2mb8H_11wp_cli_core8business13observability7sources28list_file_sources_with_liness1_0B9_
FNDA:11,_RNCNvNtNtNtCs1d81em2mb8H_11wp_cli_core8business13observability7sources28list_file_sources_with_liness2_0B9_
FNDA:0,_RNCNvNtNtNtCs1d81em2mb8H_11wp_cli_core8business13observability7sources28list_file_sources_with_liness3_0B9_
FNDA:11,_RNCNvNtNtNtCs1d81em2mb8H_11wp_cli_core8business13observability7sources28list_file_sources_with_liness4_0B9_
FNDA:0,_RNCNvNtNtNtCs1d81em2mb8H_11wp_cli_core8business13observability7sources28list_file_sources_with_liness5_0B9_
FNDA:7,_RNCNvNtNtNtCs1d81em2mb8H_11wp_cli_core8business13observability7sources28list_file_sources_with_liness_0B9_
FNDA:0,_RNCNCNvNtNtNtCskTKHy6T9bpY_11wp_cli_core8business13observability7sources27configured_file_source_paths0_00Bb_
FNDA:0,_RNCNvNtNtNtCskTKHy6T9bpY_11wp_cli_core8business13observability7sources19expand_source_paths0B9_
FNDA:0,_RNCNvNtNtNtCskTKHy6T9bpY_11wp_cli_core8business13observability7sources19expand_source_pathss_0B9_
FNDA:0,_RNCNvNtNtNtCskTKHy6T9bpY_11wp_cli_core8business13observability7sources22total_input_from_wpsrc0B9_
FNDA:0,_RNCNvNtNtNtCskTKHy6T9bpY_11wp_cli_core8business13observability7sources22total_input_from_wpsrcs0_0B9_
FNDA:0,_RNCNvNtNtNtCskTKHy6T9bpY_11wp_cli_core8business13observability7sources22total_input_from_wpsrcs1_0B9_
FNDA:0,_RNCNvNtNtNtCskTKHy6T9bpY_11wp_cli_core8business13observability7sources22total_input_from_wpsrcs2_0B9_
FNDA:0,_RNCNvNtNtNtCskTKHy6T9bpY_11wp_cli_core8business13observability7sources22total_input_from_wpsrcs3_0B9_
FNDA:0,_RNCNvNtNtNtCskTKHy6T9bpY_11wp_cli_core8business13observability7sources22total_input_from_wpsrcs4_0B9_
FNDA:0,_RNCNvNtNtNtCskTKHy6T9bpY_11wp_cli_core8business13observability7sources22total_input_from_wpsrcs5_0B9_
FNDA:0,_RNCNvNtNtNtCskTKHy6T9bpY_11wp_cli_core8business13observability7sources22total_input_from_wpsrcs6_0B9_
FNDA:0,_RNCNvNtNtNtCskTKHy6T9bpY_11wp_cli_core8business13observability7sources22total_input_from_wpsrcs7_0B9_
FNDA:0,_RNCNvNtNtNtCskTKHy6T9bpY_11wp_cli_core8business13observability7sources22total_input_from_wpsrcs8_0B9_
FNDA:0,_RNCNvNtNtNtCskTKHy6T9bpY_11wp_cli_core8business13observability7sources22total_input_from_wpsrcs_0B9_
FNDA:0,_RNCNvNtNtNtCskTKHy6T9bpY_11wp_cli_core8business13observability7sources23toml_table_to_param_map0B9_
FNDA:0,_RNCNvNtNtNtCskTKHy6T9bpY_11wp_cli_core8business13observability7sources26validated_file_source_path0B9_
FNDA:0,_RNCNvNtNtNtCskTKHy6T9bpY_11wp_cli_core8business13observability7sources26validated_file_source_paths_0B9_
FNDA:0,_RNCNvNtNtNtCskTKHy6T9bpY_11wp_cli_core8business13observability7sources27configured_file_source_path0B9_
FNDA:0,_RNCNvNtNtNtCskTKHy6T9bpY_11wp_cli_core8business13observability7sources27configured_file_source_paths0_0B9_
FNDA:0,_RNCNvNtNtNtCskTKHy6T9bpY_11wp_cli_core8business13observability7sources27configured_file_source_paths_0B9_
FNDA:0,_RNCNvNtNtNtCskTKHy6T9bpY_11wp_cli_core8business13observability7sources28list_file_sources_with_lines0B9_
FNDA:0,_RNCNvNtNtNtCskTKHy6T9bpY_11wp_cli_core8business13observability7sources28list_file_sources_with_liness0_0B9_
FNDA:0,_RNCNvNtNtNtCskTKHy6T9bpY_11wp_cli_core8business13observability7sources28list_file_sources_with_liness1_0B9_
FNDA:0,_RNCNvNtNtNtCskTKHy6T9bpY_11wp_cli_core8business13observability7sources28list_file_sources_with_liness2_0B9_
FNDA:0,_RNCNvNtNtNtCskTKHy6T9bpY_11wp_cli_core8business13observability7sources28list_file_sources_with_liness3_0B9_
FNDA:0,_RNCNvNtNtNtCskTKHy6T9bpY_11wp_cli_core8business13observability7sources28list_file_sources_with_liness4_0B9_
FNDA:0,_RNCNvNtNtNtCskTKHy6T9bpY_11wp_cli_core8business13observability7sources28list_file_sources_with_liness5_0B9_
FNDA:0,_RNCNvNtNtNtCskTKHy6T9bpY_11wp_cli_core8business13observability7sources28list_file_sources_with_liness_0B9_
FNDA:0,_RNvNtNtNtCskTKHy6T9bpY_11wp_cli_core8business13observability7sources15read_wpsrc_toml
FNDA:0,_RNvNtNtNtCskTKHy6T9bpY_11wp_cli_core8business13observability7sources16has_glob_pattern
FNDA:0,_RNvNtNtNtCskTKHy6T9bpY_11wp_cli_core8business13observability7sources19expand_source_paths
FNDA:0,_RNvNtNtNtCskTKHy6T9bpY_11wp_cli_core8business13observability7sources19load_connectors_map
FNDA:0,_RNvNtNtNtCskTKHy6T9bpY_11wp_cli_core8business13observability7sources22total_input_from_wpsrc
FNDA:0,_RNvNtNtNtCskTKHy6T9bpY_11wp_cli_core8business13observability7sources23toml_table_to_param_map
FNDA:0,_RNvNtNtNtCskTKHy6T9bpY_11wp_cli_core8business13observability7sources26validated_file_source_path
FNDA:0,_RNvNtNtNtCskTKHy6T9bpY_11wp_cli_core8business13observability7sources27configured_file_source_path
FNDA:0,_RNvNtNtNtCskTKHy6T9bpY_11wp_cli_core8business13observability7sources28list_file_sources_with_lines
FNF:37
FNH:31
DA:21,14
DA:22,14
DA:23,14
DA:24,14
DA:25,0
DA:26,0
DA:27,14
DA:29,12
DA:30,12
DA:31,12
DA:32,12
DA:33,12
DA:34,12
DA:36,16
DA:37,16
DA:38,16
DA:39,30
DA:40,16
DA:41,16
DA:43,24
DA:44,24
DA:45,24
DA:47,11
DA:48,11
DA:49,1
DA:50,10
DA:52,10
DA:53,10
DA:54,10
DA:55,10
DA:56,10
DA:57,10
DA:58,10
DA:59,11
DA:61,14
DA:62,14
DA:63,2
DA:64,2
DA:66,12
DA:68,12
DA:69,12
DA:70,12
DA:71,12
DA:72,12
DA:73,0
DA:74,12
DA:76,12
DA:77,12
DA:78,12
DA:79,12
DA:81,12
DA:82,14
DA:84,12
DA:85,12
DA:86,8
DA:87,4
DA:89,4
DA:90,0
DA:92,4
DA:95,4
DA:96,4
DA:97,4
DA:98,4
DA:99,4
DA:100,4
DA:102,4
DA:103,4
DA:104,4
DA:105,2
DA:106,2
DA:107,2
DA:108,12
DA:111,6
DA:112,6
DA:113,6
DA:114,6
DA:115,6
DA:116,6
DA:117,6
DA:118,0
DA:120,6
DA:121,6
DA:123,6
DA:124,1
DA:127,5
DA:128,5
DA:129,5
DA:130,5
DA:131,5
DA:132,5
DA:134,7
DA:135,5
DA:136,5
DA:137,5
DA:138,0
DA:139,5
DA:140,5
DA:141,5
DA:143,5
DA:144,5
DA:145,5
DA:146,5
DA:147,5
DA:148,5
DA:149,5
DA:150,5
DA:151,5
DA:152,5
DA:153,5
DA:154,5
DA:155,5
DA:156,4
DA:157,4
DA:158,4
DA:159,6
DA:160,4
DA:161,1
DA:162,1
DA:163,3
DA:165,0
DA:166,0
DA:169,2
DA:170,6
DA:173,8
DA:174,8
DA:175,8
DA:176,8
DA:177,8
DA:178,8
DA:179,8
DA:180,8
DA:181,8
DA:182,8
DA:184,8
DA:186,7
DA:187,7
DA:188,7
DA:189,7
DA:190,7
DA:191,7
DA:193,18
DA:194,11
DA:195,11
DA:196,0
DA:198,11
DA:199,11
DA:200,11
DA:201,11
DA:202,11
DA:203,11
DA:206,11
DA:207,11
DA:208,11
DA:209,11
DA:210,11
DA:211,11
DA:213,11
DA:214,11
DA:215,0
DA:216,11
DA:217,11
DA:218,11
DA:219,11
DA:221,11
DA:222,11
DA:223,9
DA:224,8
DA:225,7
DA:226,7
DA:227,7
DA:228,15
DA:229,8
DA:230,7
DA:231,1
DA:232,1
DA:233,1
DA:234,0
DA:237,7
DA:238,6
DA:239,6
DA:240,6
DA:241,6
DA:242,6
DA:243,6
DA:244,6
DA:245,6
DA:246,6
DA:247,1
DA:248,1
DA:249,1
DA:250,1
DA:251,1
DA:252,1
DA:253,1
DA:254,1
DA:256,1
DA:257,1
DA:258,1
DA:259,1
DA:260,1
DA:261,1
DA:262,1
DA:263,1
DA:264,1
DA:266,1
DA:267,1
DA:268,1
DA:269,1
DA:270,1
DA:271,1
DA:272,1
DA:273,1
DA:274,1
DA:276,2
DA:277,2
DA:278,2
DA:279,2
DA:280,2
DA:281,2
DA:282,2
DA:283,2
DA:284,2
DA:285,0
DA:287,7
DA:288,7
DA:289,7
DA:290,7
DA:291,1
DA:292,1
DA:293,8
BRF:0
BRH:0
LF:259
LH:241
end_of_record
SF:/Users/zwk/src_code/wp-labs/wp-motor/crates/wp-cli-core/src/business/observability/validate.rs
FN:10,_RNvNtNtNtCskTKHy6T9bpY_11wp_cli_core8business13observability8validate15build_groups_v2
FN:91,_RNvNtNtNtNtCskTKHy6T9bpY_11wp_cli_core8business13observability8validate5tests14write_defaults
FN:77,_RNvNtNtNtNtCskTKHy6T9bpY_11wp_cli_core8business13observability8validate5tests21write_sink_connectors
FN:108,_RNvNtNtNtNtCskTKHy6T9bpY_11wp_cli_core8business13observability8validate5tests23write_route_with_expect
FN:66,_RNvNtNtNtNtCskTKHy6T9bpY_11wp_cli_core8business13observability8validate5tests7tmp_dir
FN:133,_RNvNtNtNtNtCskTKHy6T9bpY_11wp_cli_core8business13observability8validate5testss_42build_and_validate_passes_when_ratio_meets
FNDA:1,_RNvNtNtNtCskTKHy6T9bpY_11wp_cli_core8business13observability8validate15build_groups_v2
FNDA:1,_RNvNtNtNtNtCskTKHy6T9bpY_11wp_cli_core8business13observability8validate5tests14write_defaults
FNDA:1,_RNvNtNtNtNtCskTKHy6T9bpY_11wp_cli_core8business13observability8validate5tests21write_sink_connectors
FNDA:1,_RNvNtNtNtNtCskTKHy6T9bpY_11wp_cli_core8business13observability8validate5tests23write_route_with_expect
FNDA:1,_RNvNtNtNtNtCskTKHy6T9bpY_11wp_cli_core8business13observability8validate5tests7tmp_dir
FNDA:1,_RNvNtNtNtNtCskTKHy6T9bpY_11wp_cli_core8business13observability8validate5testss_42build_and_validate_passes_when_ratio_meets
FNF:6
FNH:6
DA:10,1
DA:11,1
DA:12,1
DA:13,1
DA:14,1
DA:15,1
DA:16,1
DA:17,1
DA:19,1
DA:20,1
DA:22,1
DA:23,1
DA:24,0
DA:25,1
DA:26,1
DA:27,1
DA:28,1
DA:29,1
DA:31,1
DA:32,1
DA:33,1
DA:35,1
DA:37,0
DA:38,1
DA:40,0
DA:41,0
DA:42,0
DA:43,0
DA:44,0
DA:45,0
DA:46,0
DA:47,0
DA:49,0
DA:50,0
DA:51,0
DA:53,0
DA:55,1
DA:56,1
DA:66,1
DA:67,1
DA:68,1
DA:69,1
DA:70,1
DA:71,1
DA:72,1
DA:73,1
DA:74,1
DA:75,1
DA:77,1
DA:78,1
DA:79,1
DA:80,1
DA:81,1
DA:88,1
DA:89,1
DA:91,1
DA:92,1
DA:93,1
DA:94,1
DA:95,1
DA:105,1
DA:106,1
DA:108,1
DA:109,1
DA:110,1
DA:111,1
DA:112,1
DA:129,1
DA:130,1
DA:133,1
DA:134,1
DA:135,1
DA:136,1
DA:137,1
DA:138,1
DA:140,1
DA:142,1
DA:143,1
DA:144,1
DA:145,1
DA:148,1
DA:149,1
DA:150,1
BRF:0
BRH:0
LF:83
LH:69
end_of_record
SF:/Users/zwk/src_code/wp-labs/wp-motor/crates/wp-cli-core/src/data/clean.rs
FN:21,_RNvMNtNtCskTKHy6T9bpY_11wp_cli_core4data5cleanNtB2_15DataCleanReport13cleaned_count
FN:27,_RNvNtNtCskTKHy6T9bpY_11wp_cli_core4data5clean13clean_outputs
FN:51,_RNvNtNtCskTKHy6T9bpY_11wp_cli_core4data5clean17append_clean_item
FN:21,_RNvMNtNtCs1d81em2mb8H_11wp_cli_core4data5cleanNtB2_15DataCleanReport13cleaned_count
FN:27,_RNvNtNtCs1d81em2mb8H_11wp_cli_core4data5clean13clean_outputs
FN:51,_RNvNtNtCs1d81em2mb8H_11wp_cli_core4data5clean17append_clean_item
FNDA:0,_RNvMNtNtCskTKHy6T9bpY_11wp_cli_core4data5cleanNtB2_15DataCleanReport13cleaned_count
FNDA:0,_RNvNtNtCskTKHy6T9bpY_11wp_cli_core4data5clean13clean_outputs
FNDA:0,_RNvNtNtCskTKHy6T9bpY_11wp_cli_core4data5clean17append_clean_item
FNDA:0,_RNvMNtNtCs1d81em2mb8H_11wp_cli_core4data5cleanNtB2_15DataCleanReport13cleaned_count
FNDA:0,_RNvNtNtCs1d81em2mb8H_11wp_cli_core4data5clean13clean_outputs
FNDA:0,_RNvNtNtCs1d81em2mb8H_11wp_cli_core4data5clean17append_clean_item
FNF:3
FNH:0
DA:21,0
DA:22,0
DA:23,0
DA:27,0
DA:28,0
DA:29,0
DA:30,0
DA:31,0
DA:32,0
DA:33,0
DA:34,0
DA:36,0
DA:37,0
DA:40,0
DA:41,0
DA:42,0
DA:44,0
DA:45,0
DA:48,0
DA:49,0
DA:51,0
DA:52,0
DA:53,0
DA:54,0
DA:55,0
DA:56,0
DA:57,0
DA:58,0
DA:59,0
DA:60,0
DA:61,0
DA:62,0
DA:63,0
DA:64,0
DA:65,0
DA:66,0
DA:67,0
DA:68,0
DA:69,0
DA:70,0
DA:71,0
DA:72,0
DA:73,0
DA:74,0
BRF:0
BRH:0
LF:44
LH:0
end_of_record
SF:/Users/zwk/src_code/wp-labs/wp-motor/crates/wp-cli-core/src/knowdb/mod.rs
FN:155,_RNCNvNtCs1d81em2mb8H_11wp_cli_core6knowdb4init0B5_
FN:203,_RNCNvNtCs1d81em2mb8H_11wp_cli_core6knowdb5checks_0B5_
FN:31,_RNvNtCskTKHy6T9bpY_11wp_cli_core6knowdb25postgres_provider_example
FN:48,_RNvNtCskTKHy6T9bpY_11wp_cli_core6knowdb4init
FN:253,_RNvNtNtCskTKHy6T9bpY_11wp_cli_core6knowdb5testss_37init_writes_postgres_provider_example
FN:203,_RNCNvNtCskTKHy6T9bpY_11wp_cli_core6knowdb5checks_0B5_
FN:181,_RNvNtCskTKHy6T9bpY_11wp_cli_core6knowdb5check
FN:224,_RNvNtCskTKHy6T9bpY_11wp_cli_core6knowdb5clean
FN:155,_RNCNvNtCskTKHy6T9bpY_11wp_cli_core6knowdb4init0B5_
FN:31,_RNvNtCs1d81em2mb8H_11wp_cli_core6knowdb25postgres_provider_example
FN:48,_RNvNtCs1d81em2mb8H_11wp_cli_core6knowdb4init
FN:181,_RNvNtCs1d81em2mb8H_11wp_cli_core6knowdb5check
FN:224,_RNvNtCs1d81em2mb8H_11wp_cli_core6knowdb5clean
FNDA:0,_RNCNvNtCs1d81em2mb8H_11wp_cli_core6knowdb4init0B5_
FNDA:1,_RNCNvNtCs1d81em2mb8H_11wp_cli_core6knowdb5checks_0B5_
FNDA:1,_RNvNtCskTKHy6T9bpY_11wp_cli_core6knowdb25postgres_provider_example
FNDA:1,_RNvNtCskTKHy6T9bpY_11wp_cli_core6knowdb4init
FNDA:1,_RNvNtNtCskTKHy6T9bpY_11wp_cli_core6knowdb5testss_37init_writes_postgres_provider_example
FNDA:0,_RNCNvNtCskTKHy6T9bpY_11wp_cli_core6knowdb5checks_0B5_
FNDA:0,_RNvNtCskTKHy6T9bpY_11wp_cli_core6knowdb5check
FNDA:0,_RNvNtCskTKHy6T9bpY_11wp_cli_core6knowdb5clean
FNDA:0,_RNCNvNtCskTKHy6T9bpY_11wp_cli_core6knowdb4init0B5_
FNDA:12,_RNvNtCs1d81em2mb8H_11wp_cli_core6knowdb25postgres_provider_example
FNDA:12,_RNvNtCs1d81em2mb8H_11wp_cli_core6knowdb4init
FNDA:2,_RNvNtCs1d81em2mb8H_11wp_cli_core6knowdb5check
FNDA:1,_RNvNtCs1d81em2mb8H_11wp_cli_core6knowdb5clean
FNF:7
FNH:6
DA:31,13
DA:32,13
DA:33,13
DA:34,13
DA:35,13
DA:36,13
DA:37,13
DA:38,13
DA:39,13
DA:40,13
DA:41,13
DA:42,13
DA:43,13
DA:44,13
DA:45,13
DA:46,13
DA:48,13
DA:100,13
DA:101,0
DA:102,0
DA:103,0
DA:104,0
DA:105,0
DA:106,0
DA:107,0
DA:108,0
DA:109,0
DA:110,0
DA:111,0
DA:112,0
DA:113,0
DA:114,0
DA:115,0
DA:116,0
DA:117,0
DA:118,0
DA:119,0
DA:120,0
DA:121,0
DA:122,0
DA:123,0
DA:124,0
DA:125,0
DA:126,0
DA:127,0
DA:128,0
DA:129,0
DA:131,13
DA:132,13
DA:133,13
DA:134,13
DA:135,13
DA:136,13
DA:137,13
DA:138,13
DA:139,13
DA:140,13
DA:141,13
DA:142,13
DA:143,13
DA:144,13
DA:145,13
DA:146,13
DA:147,13
DA:148,13
DA:149,13
DA:150,13
DA:152,13
DA:153,13
DA:154,13
DA:155,13
DA:156,0
DA:157,0
DA:158,0
DA:159,13
DA:160,0
DA:161,13
DA:162,13
DA:163,13
DA:164,13
DA:165,13
DA:166,13
DA:167,13
DA:169,0
DA:170,13
DA:171,13
DA:173,0
DA:174,13
DA:175,13
DA:177,0
DA:178,13
DA:179,13
DA:181,2
DA:183,2
DA:184,2
DA:185,2
DA:186,1
DA:187,1
DA:188,1
DA:189,1
DA:190,1
DA:191,0
DA:192,1
DA:193,1
DA:194,1
DA:195,1
DA:196,1
DA:197,1
DA:198,1
DA:199,1
DA:200,1
DA:201,1
DA:202,1
DA:203,1
DA:204,1
DA:205,1
DA:206,1
DA:207,1
DA:208,1
DA:209,0
DA:210,0
DA:211,1
DA:212,1
DA:213,1
DA:214,1
DA:215,1
DA:216,1
DA:217,1
DA:218,1
DA:219,1
DA:221,1
DA:222,2
DA:224,1
DA:225,1
DA:226,1
DA:227,1
DA:228,1
DA:229,1
DA:230,1
DA:231,1
DA:233,0
DA:234,0
DA:235,0
DA:236,0
DA:239,1
DA:240,1
DA:241,0
DA:242,0
DA:243,1
DA:244,1
DA:245,1
DA:253,1
DA:254,1
DA:255,1
DA:257,1
DA:258,1
DA:260,1
DA:261,1
DA:262,1
DA:263,1
DA:265,1
DA:266,1
BRF:0
BRH:0
LF:164
LH:118
end_of_record
SF:/Users/zwk/src_code/wp-labs/wp-motor/crates/wp-cli-core/src/rescue/stat.rs
FN:109,_RNvMNtNtCs1d81em2mb8H_11wp_cli_core6rescue4statNtB2_17RescueStatSummary10print_json
FN:59,_RNvMNtNtCs1d81em2mb8H_11wp_cli_core6rescue4statNtB2_17RescueStatSummary11print_table
FN:117,_RNvMNtNtCs1d81em2mb8H_11wp_cli_core6rescue4statNtB2_17RescueStatSummary9print_csv
FN:183,_RNvNtNtCs1d81em2mb8H_11wp_cli_core6rescue4stat11count_lines
FN:139,_RNvNtNtCs1d81em2mb8H_11wp_cli_core6rescue4stat12format_bytes
FN:156,_RNvNtNtCs1d81em2mb8H_11wp_cli_core6rescue4stat15parse_sink_name
FN:191,_RNvNtNtCs1d81em2mb8H_11wp_cli_core6rescue4stat16scan_rescue_stat
FN:175,_RNvNtNtCs1d81em2mb8H_11wp_cli_core6rescue4stat20relative_rescue_path
FN:160,_RNCNvNtNtCs1d81em2mb8H_11wp_cli_core6rescue4stat15parse_sink_name0B7_
FN:161,_RNCNvNtNtCs1d81em2mb8H_11wp_cli_core6rescue4stat15parse_sink_names_0B7_
FN:202,_RNCNvNtNtCs1d81em2mb8H_11wp_cli_core6rescue4stat16scan_rescue_stat0B7_
FN:222,_RNCNvNtNtCs1d81em2mb8H_11wp_cli_core6rescue4stat16scan_rescue_stats0_0B7_
FN:239,_RNCNvNtNtCs1d81em2mb8H_11wp_cli_core6rescue4stat16scan_rescue_stats1_0B7_
FN:259,_RNCNvNtNtCs1d81em2mb8H_11wp_cli_core6rescue4stat16scan_rescue_stats2_0B7_
FN:209,_RNCNvNtNtCs1d81em2mb8H_11wp_cli_core6rescue4stat16scan_rescue_stats_0B7_
FN:277,_RNvNtNtNtCskTKHy6T9bpY_11wp_cli_core6rescue4stat5tests16cleanup_test_dir
FN:270,_RNvNtNtNtCskTKHy6T9bpY_11wp_cli_core6rescue4stat5tests21setup_test_rescue_dir
FN:282,_RNvNtNtNtCskTKHy6T9bpY_11wp_cli_core6rescue4stat5testss_17test_format_bytes
FN:292,_RNvNtNtNtCskTKHy6T9bpY_11wp_cli_core6rescue4stat5testss_20test_parse_sink_name
FN:323,_RNvNtNtNtCskTKHy6T9bpY_11wp_cli_core6rescue4stat5testss_20test_scan_with_files
FN:302,_RNvNtNtNtCskTKHy6T9bpY_11wp_cli_core6rescue4stat5testss_25test_scan_empty_directory
FN:415,_RNvNtNtNtCskTKHy6T9bpY_11wp_cli_core6rescue4stat5testss_25test_stat_summary_default
FN:356,_RNvNtNtNtCskTKHy6T9bpY_11wp_cli_core6rescue4stat5testss_28test_scan_ignores_lock_files
FN:376,_RNvNtNtNtCskTKHy6T9bpY_11wp_cli_core6rescue4stat5testss_28test_scan_nested_directories
FN:315,_RNvNtNtNtCskTKHy6T9bpY_11wp_cli_core6rescue4stat5testss_31test_scan_nonexistent_directory
FN:405,_RNvNtNtNtCskTKHy6T9bpY_11wp_cli_core6rescue4stat5testss_49test_relative_rescue_path_prefers_path_under_root
FN:160,_RNCNvNtNtCskTKHy6T9bpY_11wp_cli_core6rescue4stat15parse_sink_name0B7_
FN:161,_RNCNvNtNtCskTKHy6T9bpY_11wp_cli_core6rescue4stat15parse_sink_names_0B7_
FN:202,_RNCNvNtNtCskTKHy6T9bpY_11wp_cli_core6rescue4stat16scan_rescue_stat0B7_
FN:222,_RNCNvNtNtCskTKHy6T9bpY_11wp_cli_core6rescue4stat16scan_rescue_stats0_0B7_
FN:239,_RNCNvNtNtCskTKHy6T9bpY_11wp_cli_core6rescue4stat16scan_rescue_stats1_0B7_
FN:259,_RNCNvNtNtCskTKHy6T9bpY_11wp_cli_core6rescue4stat16scan_rescue_stats2_0B7_
FN:209,_RNCNvNtNtCskTKHy6T9bpY_11wp_cli_core6rescue4stat16scan_rescue_stats_0B7_
FN:183,_RNvNtNtCskTKHy6T9bpY_11wp_cli_core6rescue4stat11count_lines
FN:139,_RNvNtNtCskTKHy6T9bpY_11wp_cli_core6rescue4stat12format_bytes
FN:156,_RNvNtNtCskTKHy6T9bpY_11wp_cli_core6rescue4stat15parse_sink_name
FN:191,_RNvNtNtCskTKHy6T9bpY_11wp_cli_core6rescue4stat16scan_rescue_stat
FN:175,_RNvNtNtCskTKHy6T9bpY_11wp_cli_core6rescue4stat20relative_rescue_path
FN:109,_RNvMNtNtCskTKHy6T9bpY_11wp_cli_core6rescue4statNtB2_17RescueStatSummary10print_json
FN:59,_RNvMNtNtCskTKHy6T9bpY_11wp_cli_core6rescue4statNtB2_17RescueStatSummary11print_table
FN:117,_RNvMNtNtCskTKHy6T9bpY_11wp_cli_core6rescue4statNtB2_17RescueStatSummary9print_csv
FN:398,_RNCNvNtNtNtCskTKHy6T9bpY_11wp_cli_core6rescue4stat5testss_28test_scan_nested_directories0B9_
FNDA:0,_RNvMNtNtCs1d81em2mb8H_11wp_cli_core6rescue4statNtB2_17RescueStatSummary10print_json
FNDA:0,_RNvMNtNtCs1d81em2mb8H_11wp_cli_core6rescue4statNtB2_17RescueStatSummary11print_table
FNDA:0,_RNvMNtNtCs1d81em2mb8H_11wp_cli_core6rescue4statNtB2_17RescueStatSummary9print_csv
FNDA:0,_RNvNtNtCs1d81em2mb8H_11wp_cli_core6rescue4stat11count_lines
FNDA:0,_RNvNtNtCs1d81em2mb8H_11wp_cli_core6rescue4stat12format_bytes
FNDA:0,_RNvNtNtCs1d81em2mb8H_11wp_cli_core6rescue4stat15parse_sink_name
FNDA:0,_RNvNtNtCs1d81em2mb8H_11wp_cli_core6rescue4stat16scan_rescue_stat
FNDA:0,_RNvNtNtCs1d81em2mb8H_11wp_cli_core6rescue4stat20relative_rescue_path
FNDA:0,_RNCNvNtNtCs1d81em2mb8H_11wp_cli_core6rescue4stat15parse_sink_name0B7_
FNDA:0,_RNCNvNtNtCs1d81em2mb8H_11wp_cli_core6rescue4stat15parse_sink_names_0B7_
FNDA:0,_RNCNvNtNtCs1d81em2mb8H_11wp_cli_core6rescue4stat16scan_rescue_stat0B7_
FNDA:0,_RNCNvNtNtCs1d81em2mb8H_11wp_cli_core6rescue4stat16scan_rescue_stats0_0B7_
FNDA:0,_RNCNvNtNtCs1d81em2mb8H_11wp_cli_core6rescue4stat16scan_rescue_stats1_0B7_
FNDA:0,_RNCNvNtNtCs1d81em2mb8H_11wp_cli_core6rescue4stat16scan_rescue_stats2_0B7_
FNDA:0,_RNCNvNtNtCs1d81em2mb8H_11wp_cli_core6rescue4stat16scan_rescue_stats_0B7_
FNDA:4,_RNvNtNtNtCskTKHy6T9bpY_11wp_cli_core6rescue4stat5tests16cleanup_test_dir
FNDA:4,_RNvNtNtNtCskTKHy6T9bpY_11wp_cli_core6rescue4stat5tests21setup_test_rescue_dir
FNDA:1,_RNvNtNtNtCskTKHy6T9bpY_11wp_cli_core6rescue4stat5testss_17test_format_bytes
FNDA:1,_RNvNtNtNtCskTKHy6T9bpY_11wp_cli_core6rescue4stat5testss_20test_parse_sink_name
FNDA:1,_RNvNtNtNtCskTKHy6T9bpY_11wp_cli_core6rescue4stat5testss_20test_scan_with_files
FNDA:1,_RNvNtNtNtCskTKHy6T9bpY_11wp_cli_core6rescue4stat5testss_25test_scan_empty_directory
FNDA:1,_RNvNtNtNtCskTKHy6T9bpY_11wp_cli_core6rescue4stat5testss_25test_stat_summary_default
FNDA:1,_RNvNtNtNtCskTKHy6T9bpY_11wp_cli_core6rescue4stat5testss_28test_scan_ignores_lock_files
FNDA:1,_RNvNtNtNtCskTKHy6T9bpY_11wp_cli_core6rescue4stat5testss_28test_scan_nested_directories
FNDA:1,_RNvNtNtNtCskTKHy6T9bpY_11wp_cli_core6rescue4stat5testss_31test_scan_nonexistent_directory
FNDA:1,_RNvNtNtNtCskTKHy6T9bpY_11wp_cli_core6rescue4stat5testss_49test_relative_rescue_path_prefers_path_under_root
FNDA:8,_RNCNvNtNtCskTKHy6T9bpY_11wp_cli_core6rescue4stat15parse_sink_name0B7_
FNDA:8,_RNCNvNtNtCskTKHy6T9bpY_11wp_cli_core6rescue4stat15parse_sink_names_0B7_
FNDA:12,_RNCNvNtNtCskTKHy6T9bpY_11wp_cli_core6rescue4stat16scan_rescue_stat0B7_
FNDA:6,_RNCNvNtNtCskTKHy6T9bpY_11wp_cli_core6rescue4stat16scan_rescue_stats0_0B7_
FNDA:5,_RNCNvNtNtCskTKHy6T9bpY_11wp_cli_core6rescue4stat16scan_rescue_stats1_0B7_
FNDA:4,_RNCNvNtNtCskTKHy6T9bpY_11wp_cli_core6rescue4stat16scan_rescue_stats2_0B7_
FNDA:7,_RNCNvNtNtCskTKHy6T9bpY_11wp_cli_core6rescue4stat16scan_rescue_stats_0B7_
FNDA:6,_RNvNtNtCskTKHy6T9bpY_11wp_cli_core6rescue4stat11count_lines
FNDA:6,_RNvNtNtCskTKHy6T9bpY_11wp_cli_core6rescue4stat12format_bytes
FNDA:8,_RNvNtNtCskTKHy6T9bpY_11wp_cli_core6rescue4stat15parse_sink_name
FNDA:5,_RNvNtNtCskTKHy6T9bpY_11wp_cli_core6rescue4stat16scan_rescue_stat
FNDA:6,_RNvNtNtCskTKHy6T9bpY_11wp_cli_core6rescue4stat20relative_rescue_path
FNDA:0,_RNvMNtNtCskTKHy6T9bpY_11wp_cli_core6rescue4statNtB2_17RescueStatSummary10print_json
FNDA:0,_RNvMNtNtCskTKHy6T9bpY_11wp_cli_core6rescue4statNtB2_17RescueStatSummary11print_table
FNDA:0,_RNvMNtNtCskTKHy6T9bpY_11wp_cli_core6rescue4statNtB2_17RescueStatSummary9print_csv
FNDA:2,_RNCNvNtNtNtCskTKHy6T9bpY_11wp_cli_core6rescue4stat5testss_28test_scan_nested_directories0B9_
FNF:27
FNH:24
DA:59,0
DA:60,0
DA:61,0
DA:62,0
DA:63,0
DA:64,0
DA:65,0
DA:66,0
DA:67,0
DA:70,0
DA:72,0
DA:73,0
DA:74,0
DA:75,0
DA:78,0
DA:79,0
DA:80,0
DA:81,0
DA:82,0
DA:83,0
DA:84,0
DA:85,0
DA:86,0
DA:87,0
DA:88,0
DA:89,0
DA:91,0
DA:92,0
DA:93,0
DA:94,0
DA:95,0
DA:96,0
DA:97,0
DA:98,0
DA:99,0
DA:100,0
DA:101,0
DA:102,0
DA:103,0
DA:104,0
DA:105,0
DA:106,0
DA:109,0
DA:110,0
DA:111,0
DA:112,0
DA:114,0
DA:117,0
DA:118,0
DA:119,0
DA:120,0
DA:121,0
DA:122,0
DA:123,0
DA:124,0
DA:125,0
DA:127,0
DA:128,0
DA:129,0
DA:130,0
DA:131,0
DA:132,0
DA:133,0
DA:135,0
DA:139,6
DA:144,6
DA:145,1
DA:146,5
DA:147,1
DA:148,4
DA:149,2
DA:151,2
DA:153,6
DA:156,8
DA:157,8
DA:158,8
DA:159,8
DA:160,8
DA:161,8
DA:162,8
DA:164,8
DA:165,8
DA:166,2
DA:167,2
DA:169,2
DA:170,6
DA:172,6
DA:173,8
DA:175,6
DA:176,6
DA:177,6
DA:178,6
DA:179,6
DA:180,6
DA:183,6
DA:184,6
DA:185,6
DA:186,0
DA:188,6
DA:191,5
DA:192,5
DA:193,5
DA:194,5
DA:195,5
DA:197,5
DA:198,5
DA:199,1
DA:200,4
DA:202,12
DA:203,12
DA:206,12
DA:207,5
DA:208,7
DA:209,7
DA:210,7
DA:211,1
DA:212,6
DA:214,6
DA:215,6
DA:216,0
DA:219,6
DA:220,6
DA:221,6
DA:222,6
DA:223,6
DA:224,6
DA:225,6
DA:226,6
DA:229,6
DA:230,6
DA:231,6
DA:234,6
DA:235,6
DA:236,6
DA:237,6
DA:238,6
DA:239,5
DA:240,5
DA:241,5
DA:242,6
DA:243,6
DA:244,6
DA:247,6
DA:248,5
DA:249,5
DA:250,5
DA:251,5
DA:252,5
DA:253,5
DA:254,5
DA:255,5
DA:259,4
DA:261,4
DA:262,5
DA:270,4
DA:271,4
DA:272,4
DA:273,4
DA:274,4
DA:275,4
DA:277,4
DA:278,4
DA:279,4
DA:282,1
DA:283,1
DA:284,1
DA:285,1
DA:286,1
DA:287,1
DA:288,1
DA:289,1
DA:292,1
DA:293,1
DA:294,1
DA:295,1
DA:297,1
DA:298,1
DA:299,1
DA:302,1
DA:303,1
DA:304,1
DA:306,1
DA:307,1
DA:308,1
DA:309,1
DA:311,1
DA:312,1
DA:315,1
DA:316,1
DA:318,1
DA:319,1
DA:320,1
DA:323,1
DA:324,1
DA:327,1
DA:328,1
DA:329,1
DA:331,1
DA:332,1
DA:333,1
DA:335,1
DA:337,1
DA:338,1
DA:339,1
DA:341,1
DA:342,1
DA:343,1
DA:345,1
DA:346,1
DA:347,1
DA:350,1
DA:352,1
DA:353,1
DA:356,1
DA:357,1
DA:360,1
DA:361,1
DA:363,1
DA:364,1
DA:366,1
DA:369,1
DA:370,1
DA:372,1
DA:373,1
DA:376,1
DA:377,1
DA:380,1
DA:381,1
DA:383,1
DA:384,1
DA:386,1
DA:387,1
DA:389,1
DA:391,1
DA:392,1
DA:393,1
DA:394,1
DA:395,1
DA:396,1
DA:397,1
DA:398,2
DA:401,1
DA:402,1
DA:405,1
DA:406,1
DA:407,1
DA:408,1
DA:409,1
DA:412,1
DA:415,1
DA:416,1
DA:417,1
DA:418,1
DA:419,1
DA:420,1
DA:421,1
BRF:0
BRH:0
LF:263
LH:197
end_of_record
SF:/Users/zwk/src_code/wp-labs/wp-motor/crates/wp-cli-core/src/utils/banner.rs
FN:25,_RNvNtNtCskTKHy6T9bpY_11wp_cli_core5utils6banner12print_banner
FN:5,_RNvNtNtCskTKHy6T9bpY_11wp_cli_core5utils6banner16split_quiet_args
FNDA:0,_RNvNtNtCskTKHy6T9bpY_11wp_cli_core5utils6banner12print_banner
FNDA:0,_RNvNtNtCskTKHy6T9bpY_11wp_cli_core5utils6banner16split_quiet_args
FNF:2
FNH:0
DA:5,0
DA:6,0
DA:7,0
DA:8,0
DA:9,0
DA:10,0
DA:12,0
DA:13,0
DA:14,0
DA:15,0
DA:16,0
DA:17,0
DA:18,0
DA:20,0
DA:21,0
DA:25,0
DA:26,0
DA:27,0
DA:28,0
DA:29,0
DA:30,0
DA:32,0
DA:34,0
DA:35,0
DA:37,0
DA:38,0
DA:39,0
DA:40,0
DA:41,0
DA:42,0
BRF:0
BRH:0
LF:30
LH:0
end_of_record
SF:/Users/zwk/src_code/wp-labs/wp-motor/crates/wp-cli-core/src/utils/fs/fsutils.rs
FN:49,_RNCNvNtNtNtCs1d81em2mb8H_11wp_cli_core5utils2fs7fsutils15find_sink_files0B9_
FN:9,_RNCNvNtNtNtCs1d81em2mb8H_11wp_cli_core5utils2fs7fsutils8is_match0B9_
FN:34,_RNvNtNtNtCs1d81em2mb8H_11wp_cli_core5utils2fs7fsutils12resolve_path
FN:26,_RNvNtNtNtCs1d81em2mb8H_11wp_cli_core5utils2fs7fsutils14normalize_path
FN:43,_RNvNtNtNtCs1d81em2mb8H_11wp_cli_core5utils2fs7fsutils15find_sink_files
FN:12,_RNvNtNtNtCs1d81em2mb8H_11wp_cli_core5utils2fs7fsutils16count_lines_file
FN:5,_RNvNtNtNtCs1d81em2mb8H_11wp_cli_core5utils2fs7fsutils8is_match
FN:59,_RNvNtNtNtNtCs1d81em2mb8H_11wp_cli_core5utils2fs7fsutils9bytecount5countB9_
FN:34,_RNvNtNtNtCskTKHy6T9bpY_11wp_cli_core5utils2fs7fsutils12resolve_path
FN:26,_RNvNtNtNtCskTKHy6T9bpY_11wp_cli_core5utils2fs7fsutils14normalize_path
FN:12,_RNvNtNtNtCskTKHy6T9bpY_11wp_cli_core5utils2fs7fsutils16count_lines_file
FN:5,_RNvNtNtNtCskTKHy6T9bpY_11wp_cli_core5utils2fs7fsutils8is_match
FN:59,_RNvNtNtNtNtCskTKHy6T9bpY_11wp_cli_core5utils2fs7fsutils9bytecount5countB9_
FN:9,_RNCNvNtNtNtCskTKHy6T9bpY_11wp_cli_core5utils2fs7fsutils8is_match0B9_
FN:49,_RNCNvNtNtNtCskTKHy6T9bpY_11wp_cli_core5utils2fs7fsutils15find_sink_files0B9_
FN:43,_RNvNtNtNtCskTKHy6T9bpY_11wp_cli_core5utils2fs7fsutils15find_sink_files
FNDA:0,_RNCNvNtNtNtCs1d81em2mb8H_11wp_cli_core5utils2fs7fsutils15find_sink_files0B9_
FNDA:0,_RNCNvNtNtNtCs1d81em2mb8H_11wp_cli_core5utils2fs7fsutils8is_match0B9_
FNDA:8,_RNvNtNtNtCs1d81em2mb8H_11wp_cli_core5utils2fs7fsutils12resolve_path
FNDA:8,_RNvNtNtNtCs1d81em2mb8H_11wp_cli_core5utils2fs7fsutils14normalize_path
FNDA:0,_RNvNtNtNtCs1d81em2mb8H_11wp_cli_core5utils2fs7fsutils15find_sink_files
FNDA:12,_RNvNtNtNtCs1d81em2mb8H_11wp_cli_core5utils2fs7fsutils16count_lines_file
FNDA:0,_RNvNtNtNtCs1d81em2mb8H_11wp_cli_core5utils2fs7fsutils8is_match
FNDA:9,_RNvNtNtNtNtCs1d81em2mb8H_11wp_cli_core5utils2fs7fsutils9bytecount5countB9_
FNDA:1,_RNvNtNtNtCskTKHy6T9bpY_11wp_cli_core5utils2fs7fsutils12resolve_path
FNDA:1,_RNvNtNtNtCskTKHy6T9bpY_11wp_cli_core5utils2fs7fsutils14normalize_path
FNDA:1,_RNvNtNtNtCskTKHy6T9bpY_11wp_cli_core5utils2fs7fsutils16count_lines_file
FNDA:2,_RNvNtNtNtCskTKHy6T9bpY_11wp_cli_core5utils2fs7fsutils8is_match
FNDA:1,_RNvNtNtNtNtCskTKHy6T9bpY_11wp_cli_core5utils2fs7fsutils9bytecount5countB9_
FNDA:0,_RNCNvNtNtNtCskTKHy6T9bpY_11wp_cli_core5utils2fs7fsutils8is_match0B9_
FNDA:0,_RNCNvNtNtNtCskTKHy6T9bpY_11wp_cli_core5utils2fs7fsutils15find_sink_files0B9_
FNDA:0,_RNvNtNtNtCskTKHy6T9bpY_11wp_cli_core5utils2fs7fsutils15find_sink_files
FNF:8
FNH:5
DA:5,2
DA:6,2
DA:7,2
DA:8,0
DA:9,0
DA:10,2
DA:12,13
DA:13,13
DA:14,11
DA:15,11
DA:17,21
DA:18,21
DA:19,11
DA:20,10
DA:21,10
DA:23,11
DA:24,13
DA:26,9
DA:27,9
DA:28,9
DA:29,0
DA:30,9
DA:31,9
DA:32,9
DA:34,9
DA:35,9
DA:36,9
DA:37,7
DA:39,2
DA:41,9
DA:43,0
DA:44,0
DA:45,0
DA:46,0
DA:47,0
DA:48,0
DA:49,0
DA:50,0
DA:51,0
DA:52,0
DA:54,0
DA:55,0
DA:59,10
DA:60,10
DA:61,142
DA:62,132
DA:63,30
DA:64,102
DA:66,10
DA:67,10
BRF:0
BRH:0
LF:52
LH:35
end_of_record
SF:/Users/zwk/src_code/wp-labs/wp-motor/crates/wp-cli-core/src/utils/pretty/helpers.rs
FN:50,_RNvNtNtNtCs1d81em2mb8H_11wp_cli_core5utils6pretty7helpers18short_display_path
FN:61,_RNvNtNtNtCs1d81em2mb8H_11wp_cli_core5utils6pretty7helpers18truncate_path_tail
FN:4,_RNvNtNtNtCs1d81em2mb8H_11wp_cli_core5utils6pretty7helpers5fmt_f
FN:11,_RNvNtNtNtCs1d81em2mb8H_11wp_cli_core5utils6pretty7helpers8basis_cn
FN:23,_RNvNtNtNtCs1d81em2mb8H_11wp_cli_core5utils6pretty7helpers8colorize
FN:19,_RNvNtNtNtCs1d81em2mb8H_11wp_cli_core5utils6pretty7helpers8no_color
FN:31,_RINvNtNtNtCs1d81em2mb8H_11wp_cli_core5utils6pretty7helpers10color_warnReEB8_
FN:43,_RINvNtNtNtCs1d81em2mb8H_11wp_cli_core5utils6pretty7helpers7bg_failNtNtCsiTraAjBDcu4_5alloc6string6StringEB8_
FN:40,_RINvNtNtNtCs1d81em2mb8H_11wp_cli_core5utils6pretty7helpers7bg_passReEB8_
FN:46,_RINvNtNtNtCs1d81em2mb8H_11wp_cli_core5utils6pretty7helpers7bg_warnNtNtCsiTraAjBDcu4_5alloc6string6StringEB8_
FN:37,_RINvNtNtNtCs1d81em2mb8H_11wp_cli_core5utils6pretty7helpers8color_bgNtNtCsiTraAjBDcu4_5alloc6string6StringEB8_
FN:37,_RINvNtNtNtCs1d81em2mb8H_11wp_cli_core5utils6pretty7helpers8color_bgReEB8_
FN:34,_RINvNtNtNtCs1d81em2mb8H_11wp_cli_core5utils6pretty7helpers9color_errNtNtCsiTraAjBDcu4_5alloc6string6StringEB8_
FN:34,_RINvNtNtNtCs1d81em2mb8H_11wp_cli_core5utils6pretty7helpers9color_errReEB8_
FN:53,_RNCNvNtNtNtCs1d81em2mb8H_11wp_cli_core5utils6pretty7helpers18short_display_path0B9_
FN:54,_RNCNvNtNtNtCs1d81em2mb8H_11wp_cli_core5utils6pretty7helpers18short_display_paths_0B9_
FN:75,_RNCNvNtNtNtCs1d81em2mb8H_11wp_cli_core5utils6pretty7helpers18truncate_path_tail0B9_
FN:96,_RNvNtNtNtNtCskTKHy6T9bpY_11wp_cli_core5utils6pretty7helpers5testss_18basis_pretty_names
FN:88,_RNvNtNtNtNtCskTKHy6T9bpY_11wp_cli_core5utils6pretty7helpers5testss_23fmt_f_compacts_decimals
FN:103,_RNvNtNtNtNtCskTKHy6T9bpY_11wp_cli_core5utils6pretty7helpers5testss_44short_display_path_keeps_short_relative_path
FN:111,_RNvNtNtNtNtCskTKHy6T9bpY_11wp_cli_core5utils6pretty7helpers5testss_47short_display_path_truncates_long_absolute_path
FN:125,_RNvNtNtNtNtCskTKHy6T9bpY_11wp_cli_core5utils6pretty7helpers5testss_61short_display_path_prefers_relative_to_root_before_truncation
FN:31,_RINvNtNtNtCskTKHy6T9bpY_11wp_cli_core5utils6pretty7helpers10color_warnpEB8_
FN:43,_RINvNtNtNtCskTKHy6T9bpY_11wp_cli_core5utils6pretty7helpers7bg_failpEB8_
FN:40,_RINvNtNtNtCskTKHy6T9bpY_11wp_cli_core5utils6pretty7helpers7bg_passpEB8_
FN:46,_RINvNtNtNtCskTKHy6T9bpY_11wp_cli_core5utils6pretty7helpers7bg_warnpEB8_
FN:37,_RINvNtNtNtCskTKHy6T9bpY_11wp_cli_core5utils6pretty7helpers8color_bgpEB8_
FN:34,_RINvNtNtNtCskTKHy6T9bpY_11wp_cli_core5utils6pretty7helpers9color_errpEB8_
FN:23,_RNvNtNtNtCskTKHy6T9bpY_11wp_cli_core5utils6pretty7helpers8colorize
FN:19,_RNvNtNtNtCskTKHy6T9bpY_11wp_cli_core5utils6pretty7helpers8no_color
FN:53,_RNCNvNtNtNtCskTKHy6T9bpY_11wp_cli_core5utils6pretty7helpers18short_display_path0B9_
FN:54,_RNCNvNtNtNtCskTKHy6T9bpY_11wp_cli_core5utils6pretty7helpers18short_display_paths_0B9_
FN:75,_RNCNvNtNtNtCskTKHy6T9bpY_11wp_cli_core5utils6pretty7helpers18truncate_path_tail0B9_
FN:50,_RNvNtNtNtCskTKHy6T9bpY_11wp_cli_core5utils6pretty7helpers18short_display_path
FN:61,_RNvNtNtNtCskTKHy6T9bpY_11wp_cli_core5utils6pretty7helpers18truncate_path_tail
FN:4,_RNvNtNtNtCskTKHy6T9bpY_11wp_cli_core5utils6pretty7helpers5fmt_f
FN:11,_RNvNtNtNtCskTKHy6T9bpY_11wp_cli_core5utils6pretty7helpers8basis_cn
FNDA:0,_RNvNtNtNtCs1d81em2mb8H_11wp_cli_core5utils6pretty7helpers18short_display_path
FNDA:0,_RNvNtNtNtCs1d81em2mb8H_11wp_cli_core5utils6pretty7helpers18truncate_path_tail
FNDA:0,_RNvNtNtNtCs1d81em2mb8H_11wp_cli_core5utils6pretty7helpers5fmt_f
FNDA:0,_RNvNtNtNtCs1d81em2mb8H_11wp_cli_core5utils6pretty7helpers8basis_cn
FNDA:0,_RNvNtNtNtCs1d81em2mb8H_11wp_cli_core5utils6pretty7helpers8colorize
FNDA:0,_RNvNtNtNtCs1d81em2mb8H_11wp_cli_core5utils6pretty7helpers8no_color
FNDA:0,_RINvNtNtNtCs1d81em2mb8H_11wp_cli_core5utils6pretty7helpers10color_warnReEB8_
FNDA:0,_RINvNtNtNtCs1d81em2mb8H_11wp_cli_core5utils6pretty7helpers7bg_failNtNtCsiTraAjBDcu4_5alloc6string6StringEB8_
FNDA:0,_RINvNtNtNtCs1d81em2mb8H_11wp_cli_core5utils6pretty7helpers7bg_passReEB8_
FNDA:0,_RINvNtNtNtCs1d81em2mb8H_11wp_cli_core5utils6pretty7helpers7bg_warnNtNtCsiTraAjBDcu4_5alloc6string6StringEB8_
FNDA:0,_RINvNtNtNtCs1d81em2mb8H_11wp_cli_core5utils6pretty7helpers8color_bgNtNtCsiTraAjBDcu4_5alloc6string6StringEB8_
FNDA:0,_RINvNtNtNtCs1d81em2mb8H_11wp_cli_core5utils6pretty7helpers8color_bgReEB8_
FNDA:0,_RINvNtNtNtCs1d81em2mb8H_11wp_cli_core5utils6pretty7helpers9color_errNtNtCsiTraAjBDcu4_5alloc6string6StringEB8_
FNDA:0,_RINvNtNtNtCs1d81em2mb8H_11wp_cli_core5utils6pretty7helpers9color_errReEB8_
FNDA:0,_RNCNvNtNtNtCs1d81em2mb8H_11wp_cli_core5utils6pretty7helpers18short_display_path0B9_
FNDA:0,_RNCNvNtNtNtCs1d81em2mb8H_11wp_cli_core5utils6pretty7helpers18short_display_paths_0B9_
FNDA:0,_RNCNvNtNtNtCs1d81em2mb8H_11wp_cli_core5utils6pretty7helpers18truncate_path_tail0B9_
FNDA:1,_RNvNtNtNtNtCskTKHy6T9bpY_11wp_cli_core5utils6pretty7helpers5testss_18basis_pretty_names
FNDA:1,_RNvNtNtNtNtCskTKHy6T9bpY_11wp_cli_core5utils6pretty7helpers5testss_23fmt_f_compacts_decimals
FNDA:1,_RNvNtNtNtNtCskTKHy6T9bpY_11wp_cli_core5utils6pretty7helpers5testss_44short_display_path_keeps_short_relative_path
FNDA:1,_RNvNtNtNtNtCskTKHy6T9bpY_11wp_cli_core5utils6pretty7helpers5testss_47short_display_path_truncates_long_absolute_path
FNDA:1,_RNvNtNtNtNtCskTKHy6T9bpY_11wp_cli_core5utils6pretty7helpers5testss_61short_display_path_prefers_relative_to_root_before_truncation
FNDA:0,_RINvNtNtNtCskTKHy6T9bpY_11wp_cli_core5utils6pretty7helpers10color_warnpEB8_
FNDA:0,_RINvNtNtNtCskTKHy6T9bpY_11wp_cli_core5utils6pretty7helpers7bg_failpEB8_
FNDA:0,_RINvNtNtNtCskTKHy6T9bpY_11wp_cli_core5utils6pretty7helpers7bg_passpEB8_
FNDA:0,_RINvNtNtNtCskTKHy6T9bpY_11wp_cli_core5utils6pretty7helpers7bg_warnpEB8_
FNDA:0,_RINvNtNtNtCskTKHy6T9bpY_11wp_cli_core5utils6pretty7helpers8color_bgpEB8_
FNDA:0,_RINvNtNtNtCskTKHy6T9bpY_11wp_cli_core5utils6pretty7helpers9color_errpEB8_
FNDA:0,_RNvNtNtNtCskTKHy6T9bpY_11wp_cli_core5utils6pretty7helpers8colorize
FNDA:0,_RNvNtNtNtCskTKHy6T9bpY_11wp_cli_core5utils6pretty7helpers8no_color
FNDA:1,_RNCNvNtNtNtCskTKHy6T9bpY_11wp_cli_core5utils6pretty7helpers18short_display_path0B9_
FNDA:0,_RNCNvNtNtNtCskTKHy6T9bpY_11wp_cli_core5utils6pretty7helpers18short_display_paths_0B9_
FNDA:21,_RNCNvNtNtNtCskTKHy6T9bpY_11wp_cli_core5utils6pretty7helpers18truncate_path_tail0B9_
FNDA:13,_RNvNtNtNtCskTKHy6T9bpY_11wp_cli_core5utils6pretty7helpers18short_display_path
FNDA:13,_RNvNtNtNtCskTKHy6T9bpY_11wp_cli_core5utils6pretty7helpers18truncate_path_tail
FNDA:10,_RNvNtNtNtCskTKHy6T9bpY_11wp_cli_core5utils6pretty7helpers5fmt_f
FNDA:3,_RNvNtNtNtCskTKHy6T9bpY_11wp_cli_core5utils6pretty7helpers8basis_cn
FNF:20
FNH:11
DA:4,10
DA:6,10
DA:7,10
DA:8,10
DA:9,10
DA:11,3
DA:12,3
DA:13,1
DA:14,1
DA:15,1
DA:17,3
DA:19,0
DA:20,0
DA:21,0
DA:23,0
DA:24,0
DA:25,0
DA:27,0
DA:29,0
DA:31,0
DA:32,0
DA:33,0
DA:34,0
DA:35,0
DA:36,0
DA:37,0
DA:38,0
DA:39,0
DA:40,0
DA:41,0
DA:42,0
DA:43,0
DA:44,0
DA:45,0
DA:46,0
DA:47,0
DA:48,0
DA:50,13
DA:51,13
DA:52,1
DA:53,1
DA:54,1
DA:56,12
DA:58,13
DA:59,13
DA:61,13
DA:62,13
DA:63,0
DA:64,13
DA:66,13
DA:67,13
DA:68,13
DA:69,6
DA:70,7
DA:72,7
DA:73,7
DA:74,7
DA:75,21
DA:76,7
DA:77,7
DA:79,7
DA:80,13
DA:88,1
DA:89,1
DA:90,1
DA:91,1
DA:92,1
DA:93,1
DA:96,1
DA:97,1
DA:98,1
DA:99,1
DA:100,1
DA:103,1
DA:104,1
DA:105,1
DA:108,1
DA:111,1
DA:112,1
DA:113,1
DA:114,1
DA:115,1
DA:116,1
DA:117,1
DA:122,1
DA:125,1
DA:126,1
DA:127,1
DA:128,1
DA:129,1
DA:130,1
DA:131,1
DA:136,1
BRF:0
BRH:0
LF:96
LH:68
end_of_record
SF:/Users/zwk/src_code/wp-labs/wp-motor/crates/wp-cli-core/src/utils/pretty/sinks.rs
FN:61,_RNvNtNtNtNtCskTKHy6T9bpY_11wp_cli_core5utils6pretty5sinks5testss_22test_print_rows_format
FN:48,_RNvNtNtNtNtCskTKHy6T9bpY_11wp_cli_core5utils6pretty5sinks5testss_23test_truncate_path_long
FN:55,_RNvNtNtNtNtCskTKHy6T9bpY_11wp_cli_core5utils6pretty5sinks5testss_24test_truncate_path_exact
FN:39,_RNvNtNtNtNtCskTKHy6T9bpY_11wp_cli_core5utils6pretty5sinks5testss_24test_truncate_path_short
FN:8,_RNvNtNtNtCskTKHy6T9bpY_11wp_cli_core5utils6pretty5sinks10print_rows
FNDA:1,_RNvNtNtNtNtCskTKHy6T9bpY_11wp_cli_core5utils6pretty5sinks5testss_22test_print_rows_format
FNDA:1,_RNvNtNtNtNtCskTKHy6T9bpY_11wp_cli_core5utils6pretty5sinks5testss_23test_truncate_path_long
FNDA:1,_RNvNtNtNtNtCskTKHy6T9bpY_11wp_cli_core5utils6pretty5sinks5testss_24test_truncate_path_exact
FNDA:1,_RNvNtNtNtNtCskTKHy6T9bpY_11wp_cli_core5utils6pretty5sinks5testss_24test_truncate_path_short
FNDA:1,_RNvNtNtNtCskTKHy6T9bpY_11wp_cli_core5utils6pretty5sinks10print_rows
FNF:5
FNH:5
DA:8,1
DA:9,1
DA:10,1
DA:11,1
DA:12,1
DA:14,3
DA:15,2
DA:16,2
DA:18,2
DA:19,2
DA:20,2
DA:21,2
DA:23,2
DA:24,2
DA:25,2
DA:27,2
DA:30,1
DA:31,1
DA:32,1
DA:39,1
DA:40,1
DA:41,1
DA:42,1
DA:45,1
DA:48,1
DA:49,1
DA:50,1
DA:51,1
DA:52,1
DA:55,1
DA:56,1
DA:57,1
DA:58,1
DA:61,1
DA:62,1
DA:63,1
DA:64,1
DA:65,1
DA:66,1
DA:67,1
DA:68,1
DA:69,1
DA:70,1
DA:71,1
DA:72,1
DA:73,1
DA:74,1
DA:75,1
DA:76,1
DA:80,1
DA:81,1
BRF:0
BRH:0
LF:51
LH:51
end_of_record
SF:/Users/zwk/src_code/wp-labs/wp-motor/crates/wp-cli-core/src/utils/pretty/sources.rs
FN:19,_RNCNvNtNtNtCs1d81em2mb8H_11wp_cli_core5utils6pretty7sources21print_src_files_table0B9_
FN:21,_RNCNvNtNtNtCs1d81em2mb8H_11wp_cli_core5utils6pretty7sources21print_src_files_tables0_0B9_
FN:20,_RNCNvNtNtNtCs1d81em2mb8H_11wp_cli_core5utils6pretty7sources21print_src_files_tables_0B9_
FN:10,_RNvNtNtNtCskTKHy6T9bpY_11wp_cli_core5utils6pretty7sources21print_src_files_table
FN:19,_RNCNvNtNtNtCskTKHy6T9bpY_11wp_cli_core5utils6pretty7sources21print_src_files_table0B9_
FN:21,_RNCNvNtNtNtCskTKHy6T9bpY_11wp_cli_core5utils6pretty7sources21print_src_files_tables0_0B9_
FN:20,_RNCNvNtNtNtCskTKHy6T9bpY_11wp_cli_core5utils6pretty7sources21print_src_files_tables_0B9_
FN:52,_RNvNtNtNtNtCskTKHy6T9bpY_11wp_cli_core5utils6pretty7sources5testss_23test_truncate_path_long
FN:59,_RNvNtNtNtNtCskTKHy6T9bpY_11wp_cli_core5utils6pretty7sources5testss_24test_truncate_path_exact
FN:43,_RNvNtNtNtNtCskTKHy6T9bpY_11wp_cli_core5utils6pretty7sources5testss_24test_truncate_path_short
FN:65,_RNvNtNtNtNtCskTKHy6T9bpY_11wp_cli_core5utils6pretty7sources5testss_34print_sources_table_does_not_panic
FNDA:0,_RNCNvNtNtNtCs1d81em2mb8H_11wp_cli_core5utils6pretty7sources21print_src_files_table0B9_
FNDA:0,_RNCNvNtNtNtCs1d81em2mb8H_11wp_cli_core5utils6pretty7sources21print_src_files_tables0_0B9_
FNDA:0,_RNCNvNtNtNtCs1d81em2mb8H_11wp_cli_core5utils6pretty7sources21print_src_files_tables_0B9_
FNDA:1,_RNvNtNtNtCskTKHy6T9bpY_11wp_cli_core5utils6pretty7sources21print_src_files_table
FNDA:1,_RNCNvNtNtNtCskTKHy6T9bpY_11wp_cli_core5utils6pretty7sources21print_src_files_table0B9_
FNDA:1,_RNCNvNtNtNtCskTKHy6T9bpY_11wp_cli_core5utils6pretty7sources21print_src_files_tables0_0B9_
FNDA:1,_RNCNvNtNtNtCskTKHy6T9bpY_11wp_cli_core5utils6pretty7sources21print_src_files_tables_0B9_
FNDA:1,_RNvNtNtNtNtCskTKHy6T9bpY_11wp_cli_core5utils6pretty7sources5testss_23test_truncate_path_long
FNDA:1,_RNvNtNtNtNtCskTKHy6T9bpY_11wp_cli_core5utils6pretty7sources5testss_24test_truncate_path_exact
FNDA:1,_RNvNtNtNtNtCskTKHy6T9bpY_11wp_cli_core5utils6pretty7sources5testss_24test_truncate_path_short
FNDA:1,_RNvNtNtNtNtCskTKHy6T9bpY_11wp_cli_core5utils6pretty7sources5testss_34print_sources_table_does_not_panic
FNF:8
FNH:8
DA:10,1
DA:11,1
DA:12,1
DA:13,1
DA:14,1
DA:15,3
DA:16,2
DA:17,2
DA:18,2
DA:19,2
DA:20,2
DA:21,2
DA:22,2
DA:24,2
DA:25,2
DA:26,2
DA:27,2
DA:28,2
DA:29,2
DA:31,2
DA:33,1
DA:34,1
DA:35,1
DA:43,1
DA:44,1
DA:45,1
DA:46,1
DA:49,1
DA:52,1
DA:53,1
DA:54,1
DA:55,1
DA:56,1
DA:59,1
DA:60,1
DA:61,1
DA:62,1
DA:65,1
DA:66,1
DA:67,1
DA:68,1
DA:69,1
DA:70,1
DA:71,1
DA:72,1
DA:73,1
DA:74,1
DA:75,1
DA:76,1
DA:77,1
DA:78,1
DA:79,1
DA:80,1
DA:81,1
DA:82,1
DA:83,1
DA:84,1
DA:86,1
DA:87,1
BRF:0
BRH:0
LF:62
LH:62
end_of_record
SF:/Users/zwk/src_code/wp-labs/wp-motor/crates/wp-cli-core/src/utils/pretty/validate.rs
FN:253,_RNCNCNvNtNtNtCs1d81em2mb8H_11wp_cli_core5utils6pretty8validate21print_validate_tabless0_00Bb_
FN:111,_RNCNCNvNtNtNtCs1d81em2mb8H_11wp_cli_core5utils6pretty8validate23print_validate_evidences0_00Bb_
FN:424,_RNCNCNvNtNtNtCs1d81em2mb8H_11wp_cli_core5utils6pretty8validate29print_validate_tables_verboses0_00Bb_
FN:14,_RNCNvNtNtNtCs1d81em2mb8H_11wp_cli_core5utils6pretty8validate21print_validate_report0B9_
FN:20,_RNCNvNtNtNtCs1d81em2mb8H_11wp_cli_core5utils6pretty8validate21print_validate_reports_0B9_
FN:223,_RNCNvNtNtNtCs1d81em2mb8H_11wp_cli_core5utils6pretty8validate21print_validate_tables0B9_
FN:250,_RNCNvNtNtNtCs1d81em2mb8H_11wp_cli_core5utils6pretty8validate21print_validate_tabless0_0B9_
FN:258,_RNCNvNtNtNtCs1d81em2mb8H_11wp_cli_core5utils6pretty8validate21print_validate_tabless1_0B9_
FN:264,_RNCNvNtNtNtCs1d81em2mb8H_11wp_cli_core5utils6pretty8validate21print_validate_tabless3_0B9_
FN:344,_RNCNvNtNtNtCs1d81em2mb8H_11wp_cli_core5utils6pretty8validate21print_validate_tabless4_0B9_
FN:345,_RNCNvNtNtNtCs1d81em2mb8H_11wp_cli_core5utils6pretty8validate21print_validate_tabless5_0B9_
FN:92,_RNCNvNtNtNtCs1d81em2mb8H_11wp_cli_core5utils6pretty8validate23print_validate_evidence0B9_
FN:108,_RNCNvNtNtNtCs1d81em2mb8H_11wp_cli_core5utils6pretty8validate23print_validate_evidences0_0B9_
FN:118,_RNCNvNtNtNtCs1d81em2mb8H_11wp_cli_core5utils6pretty8validate23print_validate_evidences1_0B9_
FN:57,_RNCNvNtNtNtCs1d81em2mb8H_11wp_cli_core5utils6pretty8validate23print_validate_headline0B9_
FN:63,_RNCNvNtNtNtCs1d81em2mb8H_11wp_cli_core5utils6pretty8validate23print_validate_headlines_0B9_
FN:402,_RNCNvNtNtNtCs1d81em2mb8H_11wp_cli_core5utils6pretty8validate29print_validate_tables_verbose0B9_
FN:421,_RNCNvNtNtNtCs1d81em2mb8H_11wp_cli_core5utils6pretty8validate29print_validate_tables_verboses0_0B9_
FN:429,_RNCNvNtNtNtCs1d81em2mb8H_11wp_cli_core5utils6pretty8validate29print_validate_tables_verboses1_0B9_
FN:439,_RNCNvNtNtNtCs1d81em2mb8H_11wp_cli_core5utils6pretty8validate29print_validate_tables_verboses4_0B9_
FN:561,_RNvNtNtNtNtCskTKHy6T9bpY_11wp_cli_core5utils6pretty8validate5tests14mk_group_range
FN:538,_RNvNtNtNtNtCskTKHy6T9bpY_11wp_cli_core5utils6pretty8validate5tests14mk_group_ratio
FN:590,_RNvNtNtNtNtCskTKHy6T9bpY_11wp_cli_core5utils6pretty8validate5testss_27concise_tables_do_not_panic
FN:584,_RNvNtNtNtNtCskTKHy6T9bpY_11wp_cli_core5utils6pretty8validate5testss_43verbose_tables_ratio_and_range_do_not_panic
FN:215,_RNvNtNtNtCskTKHy6T9bpY_11wp_cli_core5utils6pretty8validate21print_validate_tables
FN:395,_RNvNtNtNtCskTKHy6T9bpY_11wp_cli_core5utils6pretty8validate29print_validate_tables_verbose
FN:111,_RNCNCNvNtNtNtCskTKHy6T9bpY_11wp_cli_core5utils6pretty8validate23print_validate_evidences0_00Bb_
FN:14,_RNCNvNtNtNtCskTKHy6T9bpY_11wp_cli_core5utils6pretty8validate21print_validate_report0B9_
FN:20,_RNCNvNtNtNtCskTKHy6T9bpY_11wp_cli_core5utils6pretty8validate21print_validate_reports_0B9_
FN:92,_RNCNvNtNtNtCskTKHy6T9bpY_11wp_cli_core5utils6pretty8validate23print_validate_evidence0B9_
FN:108,_RNCNvNtNtNtCskTKHy6T9bpY_11wp_cli_core5utils6pretty8validate23print_validate_evidences0_0B9_
FN:118,_RNCNvNtNtNtCskTKHy6T9bpY_11wp_cli_core5utils6pretty8validate23print_validate_evidences1_0B9_
FN:57,_RNCNvNtNtNtCskTKHy6T9bpY_11wp_cli_core5utils6pretty8validate23print_validate_headline0B9_
FN:63,_RNCNvNtNtNtCskTKHy6T9bpY_11wp_cli_core5utils6pretty8validate23print_validate_headlines_0B9_
FN:9,_RNvNtNtNtCskTKHy6T9bpY_11wp_cli_core5utils6pretty8validate21print_validate_report
FN:84,_RNvNtNtNtCskTKHy6T9bpY_11wp_cli_core5utils6pretty8validate23print_validate_evidence
FN:52,_RNvNtNtNtCskTKHy6T9bpY_11wp_cli_core5utils6pretty8validate23print_validate_headline
FN:253,_RNCNCNvNtNtNtCskTKHy6T9bpY_11wp_cli_core5utils6pretty8validate21print_validate_tabless0_00Bb_
FN:424,_RNCNCNvNtNtNtCskTKHy6T9bpY_11wp_cli_core5utils6pretty8validate29print_validate_tables_verboses0_00Bb_
FN:223,_RNCNvNtNtNtCskTKHy6T9bpY_11wp_cli_core5utils6pretty8validate21print_validate_tables0B9_
FN:250,_RNCNvNtNtNtCskTKHy6T9bpY_11wp_cli_core5utils6pretty8validate21print_validate_tabless0_0B9_
FN:258,_RNCNvNtNtNtCskTKHy6T9bpY_11wp_cli_core5utils6pretty8validate21print_validate_tabless1_0B9_
FN:264,_RNCNvNtNtNtCskTKHy6T9bpY_11wp_cli_core5utils6pretty8validate21print_validate_tabless3_0B9_
FN:344,_RNCNvNtNtNtCskTKHy6T9bpY_11wp_cli_core5utils6pretty8validate21print_validate_tabless4_0B9_
FN:345,_RNCNvNtNtNtCskTKHy6T9bpY_11wp_cli_core5utils6pretty8validate21print_validate_tabless5_0B9_
FN:402,_RNCNvNtNtNtCskTKHy6T9bpY_11wp_cli_core5utils6pretty8validate29print_validate_tables_verbose0B9_
FN:421,_RNCNvNtNtNtCskTKHy6T9bpY_11wp_cli_core5utils6pretty8validate29print_validate_tables_verboses0_0B9_
FN:429,_RNCNvNtNtNtCskTKHy6T9bpY_11wp_cli_core5utils6pretty8validate29print_validate_tables_verboses1_0B9_
FN:439,_RNCNvNtNtNtCskTKHy6T9bpY_11wp_cli_core5utils6pretty8validate29print_validate_tables_verboses4_0B9_
FNDA:0,_RNCNCNvNtNtNtCs1d81em2mb8H_11wp_cli_core5utils6pretty8validate21print_validate_tabless0_00Bb_
FNDA:0,_RNCNCNvNtNtNtCs1d81em2mb8H_11wp_cli_core5utils6pretty8validate23print_validate_evidences0_00Bb_
FNDA:0,_RNCNCNvNtNtNtCs1d81em2mb8H_11wp_cli_core5utils6pretty8validate29print_validate_tables_verboses0_00Bb_
FNDA:0,_RNCNvNtNtNtCs1d81em2mb8H_11wp_cli_core5utils6pretty8validate21print_validate_report0B9_
FNDA:0,_RNCNvNtNtNtCs1d81em2mb8H_11wp_cli_core5utils6pretty8validate21print_validate_reports_0B9_
FNDA:0,_RNCNvNtNtNtCs1d81em2mb8H_11wp_cli_core5utils6pretty8validate21print_validate_tables0B9_
FNDA:0,_RNCNvNtNtNtCs1d81em2mb8H_11wp_cli_core5utils6pretty8validate21print_validate_tabless0_0B9_
FNDA:0,_RNCNvNtNtNtCs1d81em2mb8H_11wp_cli_core5utils6pretty8validate21print_validate_tabless1_0B9_
FNDA:0,_RNCNvNtNtNtCs1d81em2mb8H_11wp_cli_core5utils6pretty8validate21print_validate_tabless3_0B9_
FNDA:0,_RNCNvNtNtNtCs1d81em2mb8H_11wp_cli_core5utils6pretty8validate21print_validate_tabless4_0B9_
FNDA:0,_RNCNvNtNtNtCs1d81em2mb8H_11wp_cli_core5utils6pretty8validate21print_validate_tabless5_0B9_
FNDA:0,_RNCNvNtNtNtCs1d81em2mb8H_11wp_cli_core5utils6pretty8validate23print_validate_evidence0B9_
FNDA:0,_RNCNvNtNtNtCs1d81em2mb8H_11wp_cli_core5utils6pretty8validate23print_validate_evidences0_0B9_
FNDA:0,_RNCNvNtNtNtCs1d81em2mb8H_11wp_cli_core5utils6pretty8validate23print_validate_evidences1_0B9_
FNDA:0,_RNCNvNtNtNtCs1d81em2mb8H_11wp_cli_core5utils6pretty8validate23print_validate_headline0B9_
FNDA:0,_RNCNvNtNtNtCs1d81em2mb8H_11wp_cli_core5utils6pretty8validate23print_validate_headlines_0B9_
FNDA:0,_RNCNvNtNtNtCs1d81em2mb8H_11wp_cli_core5utils6pretty8validate29print_validate_tables_verbose0B9_
FNDA:0,_RNCNvNtNtNtCs1d81em2mb8H_11wp_cli_core5utils6pretty8validate29print_validate_tables_verboses0_0B9_
FNDA:0,_RNCNvNtNtNtCs1d81em2mb8H_11wp_cli_core5utils6pretty8validate29print_validate_tables_verboses1_0B9_
FNDA:0,_RNCNvNtNtNtCs1d81em2mb8H_11wp_cli_core5utils6pretty8validate29print_validate_tables_verboses4_0B9_
FNDA:1,_RNvNtNtNtNtCskTKHy6T9bpY_11wp_cli_core5utils6pretty8validate5tests14mk_group_range
FNDA:1,_RNvNtNtNtNtCskTKHy6T9bpY_11wp_cli_core5utils6pretty8validate5tests14mk_group_ratio
FNDA:1,_RNvNtNtNtNtCskTKHy6T9bpY_11wp_cli_core5utils6pretty8validate5testss_27concise_tables_do_not_panic
FNDA:1,_RNvNtNtNtNtCskTKHy6T9bpY_11wp_cli_core5utils6pretty8validate5testss_43verbose_tables_ratio_and_range_do_not_panic
FNDA:1,_RNvNtNtNtCskTKHy6T9bpY_11wp_cli_core5utils6pretty8validate21print_validate_tables
FNDA:2,_RNvNtNtNtCskTKHy6T9bpY_11wp_cli_core5utils6pretty8validate29print_validate_tables_verbose
FNDA:0,_RNCNCNvNtNtNtCskTKHy6T9bpY_11wp_cli_core5utils6pretty8validate23print_validate_evidences0_00Bb_
FNDA:0,_RNCNvNtNtNtCskTKHy6T9bpY_11wp_cli_core5utils6pretty8validate21print_validate_report0B9_
FNDA:0,_RNCNvNtNtNtCskTKHy6T9bpY_11wp_cli_core5utils6pretty8validate21print_validate_reports_0B9_
FNDA:0,_RNCNvNtNtNtCskTKHy6T9bpY_11wp_cli_core5utils6pretty8validate23print_validate_evidence0B9_
FNDA:0,_RNCNvNtNtNtCskTKHy6T9bpY_11wp_cli_core5utils6pretty8validate23print_validate_evidences0_0B9_
FNDA:0,_RNCNvNtNtNtCskTKHy6T9bpY_11wp_cli_core5utils6pretty8validate23print_validate_evidences1_0B9_
FNDA:0,_RNCNvNtNtNtCskTKHy6T9bpY_11wp_cli_core5utils6pretty8validate23print_validate_headline0B9_
FNDA:0,_RNCNvNtNtNtCskTKHy6T9bpY_11wp_cli_core5utils6pretty8validate23print_validate_headlines_0B9_
FNDA:0,_RNvNtNtNtCskTKHy6T9bpY_11wp_cli_core5utils6pretty8validate21print_validate_report
FNDA:0,_RNvNtNtNtCskTKHy6T9bpY_11wp_cli_core5utils6pretty8validate23print_validate_evidence
FNDA:0,_RNvNtNtNtCskTKHy6T9bpY_11wp_cli_core5utils6pretty8validate23print_validate_headline
FNDA:0,_RNCNCNvNtNtNtCskTKHy6T9bpY_11wp_cli_core5utils6pretty8validate21print_validate_tabless0_00Bb_
FNDA:0,_RNCNCNvNtNtNtCskTKHy6T9bpY_11wp_cli_core5utils6pretty8validate29print_validate_tables_verboses0_00Bb_
FNDA:1,_RNCNvNtNtNtCskTKHy6T9bpY_11wp_cli_core5utils6pretty8validate21print_validate_tables0B9_
FNDA:0,_RNCNvNtNtNtCskTKHy6T9bpY_11wp_cli_core5utils6pretty8validate21print_validate_tabless0_0B9_
FNDA:0,_RNCNvNtNtNtCskTKHy6T9bpY_11wp_cli_core5utils6pretty8validate21print_validate_tabless1_0B9_
FNDA:0,_RNCNvNtNtNtCskTKHy6T9bpY_11wp_cli_core5utils6pretty8validate21print_validate_tabless3_0B9_
FNDA:0,_RNCNvNtNtNtCskTKHy6T9bpY_11wp_cli_core5utils6pretty8validate21print_validate_tabless4_0B9_
FNDA:0,_RNCNvNtNtNtCskTKHy6T9bpY_11wp_cli_core5utils6pretty8validate21print_validate_tabless5_0B9_
FNDA:2,_RNCNvNtNtNtCskTKHy6T9bpY_11wp_cli_core5utils6pretty8validate29print_validate_tables_verbose0B9_
FNDA:0,_RNCNvNtNtNtCskTKHy6T9bpY_11wp_cli_core5utils6pretty8validate29print_validate_tables_verboses0_0B9_
FNDA:0,_RNCNvNtNtNtCskTKHy6T9bpY_11wp_cli_core5utils6pretty8validate29print_validate_tables_verboses1_0B9_
FNDA:0,_RNCNvNtNtNtCskTKHy6T9bpY_11wp_cli_core5utils6pretty8validate29print_validate_tables_verboses4_0B9_
FNF:29
FNH:8
DA:9,0
DA:10,0
DA:11,0
DA:12,0
DA:13,0
DA:14,0
DA:15,0
DA:16,0
DA:17,0
DA:18,0
DA:19,0
DA:20,0
DA:21,0
DA:22,0
DA:25,0
DA:26,0
DA:27,0
DA:28,0
DA:29,0
DA:30,0
DA:31,0
DA:32,0
DA:33,0
DA:34,0
DA:35,0
DA:37,0
DA:38,0
DA:39,0
DA:40,0
DA:41,0
DA:43,0
DA:44,0
DA:45,0
DA:46,0
DA:47,0
DA:49,0
DA:52,0
DA:53,0
DA:54,0
DA:55,0
DA:56,0
DA:57,0
DA:58,0
DA:59,0
DA:60,0
DA:61,0
DA:62,0
DA:63,0
DA:64,0
DA:65,0
DA:68,0
DA:69,0
DA:70,0
DA:71,0
DA:72,0
DA:73,0
DA:74,0
DA:75,0
DA:76,0
DA:77,0
DA:78,0
DA:79,0
DA:84,0
DA:85,0
DA:86,0
DA:87,0
DA:88,0
DA:90,0
DA:91,0
DA:92,0
DA:93,0
DA:94,0
DA:95,0
DA:97,0
DA:98,0
DA:99,0
DA:100,0
DA:101,0
DA:102,0
DA:103,0
DA:104,0
DA:106,0
DA:107,0
DA:108,0
DA:109,0
DA:110,0
DA:111,0
DA:112,0
DA:113,0
DA:116,0
DA:118,0
DA:119,0
DA:120,0
DA:122,0
DA:126,0
DA:127,0
DA:128,0
DA:129,0
DA:130,0
DA:132,0
DA:135,0
DA:138,0
DA:139,0
DA:141,0
DA:146,0
DA:147,0
DA:148,0
DA:149,0
DA:151,0
DA:153,0
DA:154,0
DA:155,0
DA:156,0
DA:157,0
DA:158,0
DA:159,0
DA:160,0
DA:161,0
DA:164,0
DA:165,0
DA:166,0
DA:167,0
DA:168,0
DA:169,0
DA:170,0
DA:171,0
DA:172,0
DA:174,0
DA:176,0
DA:177,0
DA:180,0
DA:181,0
DA:186,0
DA:187,0
DA:188,0
DA:189,0
DA:190,0
DA:191,0
DA:192,0
DA:193,0
DA:195,0
DA:197,0
DA:198,0
DA:201,0
DA:202,0
DA:207,0
DA:210,0
DA:215,1
DA:216,1
DA:217,1
DA:218,1
DA:219,1
DA:221,1
DA:222,1
DA:223,1
DA:224,1
DA:225,1
DA:226,1
DA:245,1
DA:246,1
DA:248,2
DA:249,1
DA:250,1
DA:251,0
DA:252,0
DA:253,0
DA:254,0
DA:255,0
DA:256,1
DA:258,0
DA:260,1
DA:261,0
DA:263,1
DA:264,1
DA:265,1
DA:266,0
DA:267,0
DA:268,0
DA:269,0
DA:270,0
DA:271,0
DA:272,0
DA:273,0
DA:274,0
DA:275,1
DA:276,2
DA:277,1
DA:278,0
DA:279,0
DA:280,0
DA:281,0
DA:282,0
DA:283,0
DA:284,0
DA:285,0
DA:286,0
DA:287,0
DA:288,0
DA:290,0
DA:291,0
DA:292,0
DA:293,0
DA:294,0
DA:295,0
DA:296,0
DA:297,0
DA:298,0
DA:299,0
DA:300,0
DA:301,0
DA:303,0
DA:304,0
DA:305,0
DA:307,0
DA:311,1
DA:312,1
DA:313,0
DA:315,0
DA:316,0
DA:318,0
DA:319,0
DA:320,0
DA:321,0
DA:323,0
DA:327,0
DA:328,0
DA:329,0
DA:330,0
DA:331,0
DA:333,0
DA:334,0
DA:335,0
DA:336,0
DA:337,0
DA:339,0
DA:340,0
DA:341,0
DA:342,0
DA:343,0
DA:344,0
DA:345,0
DA:346,0
DA:347,0
DA:349,0
DA:350,0
DA:352,0
DA:353,0
DA:355,0
DA:357,0
DA:359,0
DA:361,0
DA:362,0
DA:364,0
DA:365,0
DA:366,0
DA:367,0
DA:368,0
DA:369,0
DA:370,0
DA:371,0
DA:372,0
DA:373,0
DA:374,0
DA:375,0
DA:377,0
DA:378,0
DA:380,0
DA:381,0
DA:383,0
DA:385,0
DA:387,0
DA:389,0
DA:390,0
DA:391,1
DA:395,2
DA:396,2
DA:397,2
DA:398,2
DA:399,2
DA:400,2
DA:401,2
DA:402,2
DA:403,2
DA:404,2
DA:405,2
DA:417,2
DA:419,4
DA:420,2
DA:421,2
DA:422,0
DA:423,0
DA:424,0
DA:425,0
DA:426,0
DA:427,2
DA:429,0
DA:431,2
DA:432,0
DA:434,2
DA:436,0
DA:437,0
DA:439,2
DA:441,4
DA:442,2
DA:443,0
DA:445,2
DA:448,2
DA:449,2
DA:450,1
DA:451,1
DA:452,1
DA:454,0
DA:457,1
DA:458,1
DA:459,1
DA:461,2
DA:462,0
DA:463,2
DA:464,1
DA:465,1
DA:466,0
DA:468,1
DA:470,1
DA:472,1
DA:473,1
DA:474,1
DA:475,0
DA:477,1
DA:479,1
DA:481,2
DA:483,0
DA:485,2
DA:486,2
DA:487,2
DA:488,2
DA:489,2
DA:490,2
DA:491,2
DA:492,2
DA:493,2
DA:497,2
DA:498,0
DA:499,2
DA:500,2
DA:501,2
DA:502,2
DA:503,2
DA:504,2
DA:506,4
DA:507,2
DA:508,2
DA:509,2
DA:510,2
DA:511,2
DA:512,2
DA:513,2
DA:514,2
DA:516,2
DA:517,14
DA:519,14
DA:520,4
DA:522,10
DA:524,14
DA:526,2
DA:528,2
DA:529,2
DA:538,1
DA:539,1
DA:540,1
DA:541,1
DA:542,1
DA:543,1
DA:544,1
DA:546,1
DA:547,1
DA:548,1
DA:549,1
DA:550,1
DA:551,1
DA:552,1
DA:553,1
DA:554,1
DA:555,1
DA:557,1
DA:558,1
DA:559,1
DA:561,1
DA:562,1
DA:563,1
DA:564,1
DA:565,1
DA:566,1
DA:567,1
DA:569,1
DA:570,1
DA:571,1
DA:572,1
DA:573,1
DA:574,1
DA:575,1
DA:576,1
DA:577,1
DA:578,1
DA:579,1
DA:580,1
DA:581,1
DA:584,1
DA:585,1
DA:586,1
DA:587,1
DA:590,1
DA:591,1
DA:592,1
DA:593,1
DA:594,1
DA:595,1
DA:596,1
DA:598,1
DA:599,1
DA:600,1
DA:601,1
DA:602,1
DA:603,1
DA:604,1
BRF:0
BRH:0
LF:444
LH:163
end_of_record
SF:/Users/zwk/src_code/wp-labs/wp-motor/crates/wp-cli-core/src/utils/stats/stats.rs
FN:37,_RNCNvNtNtNtCs1d81em2mb8H_11wp_cli_core5utils5stats5stats11group_input0B9_
FN:33,_RNvNtNtNtCs1d81em2mb8H_11wp_cli_core5utils5stats5stats11group_input
FN:28,_RNvNtNtNtCs1d81em2mb8H_11wp_cli_core5utils5stats5stats15load_stats_file
FN:37,_RNCNvNtNtNtCskTKHy6T9bpY_11wp_cli_core5utils5stats5stats11group_input0B9_
FN:33,_RNvNtNtNtCskTKHy6T9bpY_11wp_cli_core5utils5stats5stats11group_input
FN:28,_RNvNtNtNtCskTKHy6T9bpY_11wp_cli_core5utils5stats5stats15load_stats_file
FNDA:0,_RNCNvNtNtNtCs1d81em2mb8H_11wp_cli_core5utils5stats5stats11group_input0B9_
FNDA:0,_RNvNtNtNtCs1d81em2mb8H_11wp_cli_core5utils5stats5stats11group_input
FNDA:0,_RNvNtNtNtCs1d81em2mb8H_11wp_cli_core5utils5stats5stats15load_stats_file
FNDA:0,_RNCNvNtNtNtCskTKHy6T9bpY_11wp_cli_core5utils5stats5stats11group_input0B9_
FNDA:0,_RNvNtNtNtCskTKHy6T9bpY_11wp_cli_core5utils5stats5stats11group_input
FNDA:0,_RNvNtNtNtCskTKHy6T9bpY_11wp_cli_core5utils5stats5stats15load_stats_file
FNF:3
FNH:0
DA:28,0
DA:29,0
DA:30,0
DA:31,0
DA:33,0
DA:34,0
DA:35,0
DA:36,0
DA:37,0
DA:38,0
DA:39,0
BRF:0
BRH:0
LF:12
LH:0
end_of_record
SF:/Users/zwk/src_code/wp-labs/wp-motor/crates/wp-cli-core/src/utils/types.rs
FN:14,_RINvMNtNtCs1d81em2mb8H_11wp_cli_core5utils5typesNtB3_3Ctx3newpEB7_
FN:114,_RNCNvMs1_NtNtCs1d81em2mb8H_11wp_cli_core5utils5typesNtB7_14ValidateReport14has_error_fail0Bb_
FN:14,_RINvMNtNtCs1d81em2mb8H_11wp_cli_core5utils5typesNtB3_3Ctx3newNtNtCsiTraAjBDcu4_5alloc6string6StringECs1HpxBQtxS5F_24integration_stat_sources
FN:14,_RINvMNtNtCskTKHy6T9bpY_11wp_cli_core5utils5typesNtB3_3Ctx3newNtNtCsiTraAjBDcu4_5alloc6string6StringEB7_
FN:114,_RNCNvMs1_NtNtCskTKHy6T9bpY_11wp_cli_core5utils5typesNtB7_14ValidateReport14has_error_fail0Bb_
FN:93,_RNvMs0_NtNtCskTKHy6T9bpY_11wp_cli_core5utils5typesNtB5_10GroupAccum3new
FN:100,_RNvMs0_NtNtCskTKHy6T9bpY_11wp_cli_core5utils5typesNtB5_10GroupAccum8add_sink
FN:111,_RNvMs1_NtNtCskTKHy6T9bpY_11wp_cli_core5utils5typesNtB5_14ValidateReport14has_error_fail
FN:52,_RNvMs_NtNtCskTKHy6T9bpY_11wp_cli_core5utils5typesNtB4_3Row2ok
FN:61,_RNvMs_NtNtCskTKHy6T9bpY_11wp_cli_core5utils5typesNtB4_3Row3err
FNDA:0,_RINvMNtNtCs1d81em2mb8H_11wp_cli_core5utils5typesNtB3_3Ctx3newpEB7_
FNDA:0,_RNCNvMs1_NtNtCs1d81em2mb8H_11wp_cli_core5utils5typesNtB7_14ValidateReport14has_error_fail0Bb_
FNDA:9,_RINvMNtNtCs1d81em2mb8H_11wp_cli_core5utils5typesNtB3_3Ctx3newNtNtCsiTraAjBDcu4_5alloc6string6StringECs1HpxBQtxS5F_24integration_stat_sources
FNDA:1,_RINvMNtNtCskTKHy6T9bpY_11wp_cli_core5utils5typesNtB3_3Ctx3newNtNtCsiTraAjBDcu4_5alloc6string6StringEB7_
FNDA:5,_RNCNvMs1_NtNtCskTKHy6T9bpY_11wp_cli_core5utils5typesNtB7_14ValidateReport14has_error_fail0Bb_
FNDA:10,_RNvMs0_NtNtCskTKHy6T9bpY_11wp_cli_core5utils5typesNtB5_10GroupAccum3new
FNDA:12,_RNvMs0_NtNtCskTKHy6T9bpY_11wp_cli_core5utils5typesNtB5_10GroupAccum8add_sink
FNDA:7,_RNvMs1_NtNtCskTKHy6T9bpY_11wp_cli_core5utils5typesNtB5_14ValidateReport14has_error_fail
FNDA:1,_RNvMs_NtNtCskTKHy6T9bpY_11wp_cli_core5utils5typesNtB4_3Row2ok
FNDA:0,_RNvMs_NtNtCskTKHy6T9bpY_11wp_cli_core5utils5typesNtB4_3Row3err
FNF:7
FNH:6
DA:14,10
DA:15,10
DA:16,10
DA:17,10
DA:18,10
DA:19,10
DA:20,10
DA:21,10
DA:22,10
DA:52,1
DA:53,1
DA:54,1
DA:55,1
DA:56,1
DA:57,1
DA:58,1
DA:59,1
DA:60,1
DA:61,0
DA:62,0
DA:63,0
DA:64,0
DA:65,0
DA:66,0
DA:67,0
DA:68,0
DA:69,0
DA:93,10
DA:94,10
DA:95,10
DA:96,10
DA:97,10
DA:98,10
DA:99,10
DA:100,12
DA:101,12
DA:102,12
DA:111,7
DA:112,7
DA:113,7
DA:114,7
DA:115,7
BRF:0
BRH:0
LF:43
LH:34
end_of_record
SF:/Users/zwk/src_code/wp-labs/wp-motor/crates/wp-cli-core/src/utils/validate/core.rs
FN:104,_RNCNCNvNtNtNtCs1d81em2mb8H_11wp_cli_core5utils8validate4core15validate_groupss2_00Bb_
FN:139,_RNCNCNvNtNtNtCs1d81em2mb8H_11wp_cli_core5utils8validate4core19validate_with_statss0_00Bb_
FN:145,_RNCNCNvNtNtNtCs1d81em2mb8H_11wp_cli_core5utils8validate4core19validate_with_statss1_00Bb_
FN:231,_RNCNCNvNtNtNtCs1d81em2mb8H_11wp_cli_core5utils8validate4core19validate_with_statss4_00Bb_
FN:10,_RNCNvNtNtNtCs1d81em2mb8H_11wp_cli_core5utils8validate4core15validate_groups0B9_
FN:86,_RNCNvNtNtNtCs1d81em2mb8H_11wp_cli_core5utils8validate4core15validate_groupss0_0B9_
FN:104,_RNCNvNtNtNtCs1d81em2mb8H_11wp_cli_core5utils8validate4core15validate_groupss2_0B9_
FN:16,_RNCNvNtNtNtCs1d81em2mb8H_11wp_cli_core5utils8validate4core15validate_groupss_0B9_
FN:129,_RNCNvNtNtNtCs1d81em2mb8H_11wp_cli_core5utils8validate4core19validate_with_stats0B9_
FN:136,_RNCNvNtNtNtCs1d81em2mb8H_11wp_cli_core5utils8validate4core19validate_with_statss0_0B9_
FN:142,_RNCNvNtNtNtCs1d81em2mb8H_11wp_cli_core5utils8validate4core19validate_with_statss1_0B9_
FN:213,_RNCNvNtNtNtCs1d81em2mb8H_11wp_cli_core5utils8validate4core19validate_with_statss2_0B9_
FN:231,_RNCNvNtNtNtCs1d81em2mb8H_11wp_cli_core5utils8validate4core19validate_with_statss4_0B9_
FN:104,_RNCNCNvNtNtNtCskTKHy6T9bpY_11wp_cli_core5utils8validate4core15validate_groupss2_00Bb_
FN:139,_RNCNCNvNtNtNtCskTKHy6T9bpY_11wp_cli_core5utils8validate4core19validate_with_statss0_00Bb_
FN:145,_RNCNCNvNtNtNtCskTKHy6T9bpY_11wp_cli_core5utils8validate4core19validate_with_statss1_00Bb_
FN:231,_RNCNCNvNtNtNtCskTKHy6T9bpY_11wp_cli_core5utils8validate4core19validate_with_statss4_00Bb_
FN:10,_RNCNvNtNtNtCskTKHy6T9bpY_11wp_cli_core5utils8validate4core15validate_groups0B9_
FN:86,_RNCNvNtNtNtCskTKHy6T9bpY_11wp_cli_core5utils8validate4core15validate_groupss0_0B9_
FN:104,_RNCNvNtNtNtCskTKHy6T9bpY_11wp_cli_core5utils8validate4core15validate_groupss2_0B9_
FN:16,_RNCNvNtNtNtCskTKHy6T9bpY_11wp_cli_core5utils8validate4core15validate_groupss_0B9_
FN:129,_RNCNvNtNtNtCskTKHy6T9bpY_11wp_cli_core5utils8validate4core19validate_with_stats0B9_
FN:136,_RNCNvNtNtNtCskTKHy6T9bpY_11wp_cli_core5utils8validate4core19validate_with_statss0_0B9_
FN:142,_RNCNvNtNtNtCskTKHy6T9bpY_11wp_cli_core5utils8validate4core19validate_with_statss1_0B9_
FN:213,_RNCNvNtNtNtCskTKHy6T9bpY_11wp_cli_core5utils8validate4core19validate_with_statss2_0B9_
FN:231,_RNCNvNtNtNtCskTKHy6T9bpY_11wp_cli_core5utils8validate4core19validate_with_statss4_0B9_
FN:5,_RNvNtNtNtCskTKHy6T9bpY_11wp_cli_core5utils8validate4core15validate_groups
FN:120,_RNvNtNtNtCskTKHy6T9bpY_11wp_cli_core5utils8validate4core19validate_with_stats
FN:247,_RNvNtNtNtCskTKHy6T9bpY_11wp_cli_core5utils8validate4core6to_sev
FN:262,_RNvNtNtNtNtCskTKHy6T9bpY_11wp_cli_core5utils8validate4core5tests8mk_group
FN:270,_RNvNtNtNtNtCskTKHy6T9bpY_11wp_cli_core5utils8validate4core5tests8se_ratio
FN:351,_RNvNtNtNtNtCskTKHy6T9bpY_11wp_cli_core5utils8validate4core5testss_19others_max_exceeded
FN:383,_RNvNtNtNtNtCskTKHy6T9bpY_11wp_cli_core5utils8validate4core5testss_21sum_tol_out_of_bounds
FN:411,_RNvNtNtNtNtCskTKHy6T9bpY_11wp_cli_core5utils8validate4core5testss_27with_stats_uses_group_input
FN:330,_RNvNtNtNtNtCskTKHy6T9bpY_11wp_cli_core5utils8validate4core5testss_31ignore_when_min_samples_not_met
FN:305,_RNvNtNtNtNtCskTKHy6T9bpY_11wp_cli_core5utils8validate4core5testss_33fail_when_error_mode_and_exceeded
FN:280,_RNvNtNtNtNtCskTKHy6T9bpY_11wp_cli_core5utils8validate4core5testss_36pass_when_warn_mode_even_if_exceeded
FN:378,_RNCNvNtNtNtNtCskTKHy6T9bpY_11wp_cli_core5utils8validate4core5testss_19others_max_exceeded0Bb_
FN:407,_RNCNvNtNtNtNtCskTKHy6T9bpY_11wp_cli_core5utils8validate4core5testss_21sum_tol_out_of_bounds0Bb_
FN:347,_RNCNvNtNtNtNtCskTKHy6T9bpY_11wp_cli_core5utils8validate4core5testss_31ignore_when_min_samples_not_met0Bb_
FN:325,_RNCNvNtNtNtNtCskTKHy6T9bpY_11wp_cli_core5utils8validate4core5testss_33fail_when_error_mode_and_exceeded0Bb_
FN:300,_RNCNvNtNtNtNtCskTKHy6T9bpY_11wp_cli_core5utils8validate4core5testss_36pass_when_warn_mode_even_if_exceeded0Bb_
FNDA:0,_RNCNCNvNtNtNtCs1d81em2mb8H_11wp_cli_core5utils8validate4core15validate_groupss2_00Bb_
FNDA:0,_RNCNCNvNtNtNtCs1d81em2mb8H_11wp_cli_core5utils8validate4core19validate_with_statss0_00Bb_
FNDA:0,_RNCNCNvNtNtNtCs1d81em2mb8H_11wp_cli_core5utils8validate4core19validate_with_statss1_00Bb_
FNDA:0,_RNCNCNvNtNtNtCs1d81em2mb8H_11wp_cli_core5utils8validate4core19validate_with_statss4_00Bb_
FNDA:0,_RNCNvNtNtNtCs1d81em2mb8H_11wp_cli_core5utils8validate4core15validate_groups0B9_
FNDA:0,_RNCNvNtNtNtCs1d81em2mb8H_11wp_cli_core5utils8validate4core15validate_groupss0_0B9_
FNDA:0,_RNCNvNtNtNtCs1d81em2mb8H_11wp_cli_core5utils8validate4core15validate_groupss2_0B9_
FNDA:0,_RNCNvNtNtNtCs1d81em2mb8H_11wp_cli_core5utils8validate4core15validate_groupss_0B9_
FNDA:0,_RNCNvNtNtNtCs1d81em2mb8H_11wp_cli_core5utils8validate4core19validate_with_stats0B9_
FNDA:0,_RNCNvNtNtNtCs1d81em2mb8H_11wp_cli_core5utils8validate4core19validate_with_statss0_0B9_
FNDA:0,_RNCNvNtNtNtCs1d81em2mb8H_11wp_cli_core5utils8validate4core19validate_with_statss1_0B9_
FNDA:0,_RNCNvNtNtNtCs1d81em2mb8H_11wp_cli_core5utils8validate4core19validate_with_statss2_0B9_
FNDA:0,_RNCNvNtNtNtCs1d81em2mb8H_11wp_cli_core5utils8validate4core19validate_with_statss4_0B9_
FNDA:2,_RNCNCNvNtNtNtCskTKHy6T9bpY_11wp_cli_core5utils8validate4core15validate_groupss2_00Bb_
FNDA:1,_RNCNCNvNtNtNtCskTKHy6T9bpY_11wp_cli_core5utils8validate4core19validate_with_statss0_00Bb_
FNDA:0,_RNCNCNvNtNtNtCskTKHy6T9bpY_11wp_cli_core5utils8validate4core19validate_with_statss1_00Bb_
FNDA:0,_RNCNCNvNtNtNtCskTKHy6T9bpY_11wp_cli_core5utils8validate4core19validate_with_statss4_00Bb_
FNDA:6,_RNCNvNtNtNtCskTKHy6T9bpY_11wp_cli_core5utils8validate4core15validate_groups0B9_
FNDA:2,_RNCNvNtNtNtCskTKHy6T9bpY_11wp_cli_core5utils8validate4core15validate_groupss0_0B9_
FNDA:2,_RNCNvNtNtNtCskTKHy6T9bpY_11wp_cli_core5utils8validate4core15validate_groupss2_0B9_
FNDA:6,_RNCNvNtNtNtCskTKHy6T9bpY_11wp_cli_core5utils8validate4core15validate_groupss_0B9_
FNDA:1,_RNCNvNtNtNtCskTKHy6T9bpY_11wp_cli_core5utils8validate4core19validate_with_stats0B9_
FNDA:1,_RNCNvNtNtNtCskTKHy6T9bpY_11wp_cli_core5utils8validate4core19validate_with_statss0_0B9_
FNDA:1,_RNCNvNtNtNtCskTKHy6T9bpY_11wp_cli_core5utils8validate4core19validate_with_statss1_0B9_
FNDA:0,_RNCNvNtNtNtCskTKHy6T9bpY_11wp_cli_core5utils8validate4core19validate_with_statss2_0B9_
FNDA:0,_RNCNvNtNtNtCskTKHy6T9bpY_11wp_cli_core5utils8validate4core19validate_with_statss4_0B9_
FNDA:6,_RNvNtNtNtCskTKHy6T9bpY_11wp_cli_core5utils8validate4core15validate_groups
FNDA:1,_RNvNtNtNtCskTKHy6T9bpY_11wp_cli_core5utils8validate4core19validate_with_stats
FNDA:6,_RNvNtNtNtCskTKHy6T9bpY_11wp_cli_core5utils8validate4core6to_sev
FNDA:6,_RNvNtNtNtNtCskTKHy6T9bpY_11wp_cli_core5utils8validate4core5tests8mk_group
FNDA:7,_RNvNtNtNtNtCskTKHy6T9bpY_11wp_cli_core5utils8validate4core5tests8se_ratio
FNDA:1,_RNvNtNtNtNtCskTKHy6T9bpY_11wp_cli_core5utils8validate4core5testss_19others_max_exceeded
FNDA:1,_RNvNtNtNtNtCskTKHy6T9bpY_11wp_cli_core5utils8validate4core5testss_21sum_tol_out_of_bounds
FNDA:1,_RNvNtNtNtNtCskTKHy6T9bpY_11wp_cli_core5utils8validate4core5testss_27with_stats_uses_group_input
FNDA:1,_RNvNtNtNtNtCskTKHy6T9bpY_11wp_cli_core5utils8validate4core5testss_31ignore_when_min_samples_not_met
FNDA:1,_RNvNtNtNtNtCskTKHy6T9bpY_11wp_cli_core5utils8validate4core5testss_33fail_when_error_mode_and_exceeded
FNDA:1,_RNvNtNtNtNtCskTKHy6T9bpY_11wp_cli_core5utils8validate4core5testss_36pass_when_warn_mode_even_if_exceeded
FNDA:1,_RNCNvNtNtNtNtCskTKHy6T9bpY_11wp_cli_core5utils8validate4core5testss_19others_max_exceeded0Bb_
FNDA:3,_RNCNvNtNtNtNtCskTKHy6T9bpY_11wp_cli_core5utils8validate4core5testss_21sum_tol_out_of_bounds0Bb_
FNDA:1,_RNCNvNtNtNtNtCskTKHy6T9bpY_11wp_cli_core5utils8validate4core5testss_31ignore_when_min_samples_not_met0Bb_
FNDA:1,_RNCNvNtNtNtNtCskTKHy6T9bpY_11wp_cli_core5utils8validate4core5testss_33fail_when_error_mode_and_exceeded0Bb_
FNDA:1,_RNCNvNtNtNtNtCskTKHy6T9bpY_11wp_cli_core5utils8validate4core5testss_36pass_when_warn_mode_even_if_exceeded0Bb_
FNF:29
FNH:25
DA:5,6
DA:6,6
DA:8,6
DA:9,6
DA:10,6
DA:11,6
DA:12,6
DA:14,12
DA:15,6
DA:16,6
DA:17,6
DA:18,0
DA:19,6
DA:20,0
DA:22,6
DA:23,6
DA:24,6
DA:26,0
DA:27,0
DA:28,0
DA:29,0
DA:30,0
DA:31,0
DA:32,0
DA:33,6
DA:34,6
DA:35,5
DA:37,1
DA:38,1
DA:39,1
DA:40,1
DA:41,1
DA:42,1
DA:43,1
DA:44,5
DA:46,12
DA:47,7
DA:48,6
DA:49,6
DA:50,6
DA:51,6
DA:52,4
DA:53,4
DA:54,4
DA:55,4
DA:56,4
DA:57,4
DA:58,4
DA:59,4
DA:60,4
DA:61,4
DA:62,0
DA:63,6
DA:64,6
DA:65,6
DA:66,0
DA:67,0
DA:68,0
DA:69,0
DA:70,0
DA:71,0
DA:72,0
DA:73,0
DA:74,0
DA:75,0
DA:76,0
DA:77,0
DA:78,0
DA:79,6
DA:82,5
DA:83,1
DA:84,1
DA:85,1
DA:86,2
DA:87,1
DA:88,1
DA:89,1
DA:90,1
DA:91,1
DA:92,1
DA:93,1
DA:94,1
DA:95,1
DA:96,1
DA:97,1
DA:98,4
DA:100,5
DA:101,1
DA:102,1
DA:103,1
DA:104,2
DA:105,1
DA:106,1
DA:107,1
DA:108,1
DA:109,1
DA:110,1
DA:111,1
DA:112,1
DA:113,1
DA:114,4
DA:117,6
DA:118,6
DA:120,1
DA:121,1
DA:122,1
DA:123,1
DA:124,1
DA:125,1
DA:127,1
DA:128,1
DA:129,1
DA:130,1
DA:131,1
DA:132,1
DA:134,2
DA:135,1
DA:136,1
DA:137,1
DA:138,1
DA:139,1
DA:140,1
DA:141,1
DA:142,1
DA:143,1
DA:145,1
DA:147,0
DA:148,0
DA:150,1
DA:151,1
DA:152,1
DA:153,0
DA:154,0
DA:155,0
DA:156,0
DA:157,0
DA:158,0
DA:159,0
DA:160,1
DA:161,1
DA:162,1
DA:164,0
DA:165,0
DA:166,0
DA:167,0
DA:168,0
DA:169,0
DA:170,0
DA:171,1
DA:173,2
DA:174,1
DA:175,1
DA:176,1
DA:177,1
DA:178,1
DA:179,0
DA:180,0
DA:181,0
DA:182,0
DA:183,0
DA:184,0
DA:185,0
DA:186,0
DA:187,0
DA:188,1
DA:189,0
DA:190,1
DA:191,1
DA:192,1
DA:193,0
DA:194,0
DA:195,0
DA:196,0
DA:197,0
DA:198,0
DA:199,0
DA:200,0
DA:201,0
DA:202,0
DA:203,0
DA:204,0
DA:205,0
DA:206,1
DA:209,1
DA:210,0
DA:211,0
DA:212,0
DA:213,0
DA:214,0
DA:215,0
DA:216,0
DA:217,0
DA:218,0
DA:219,0
DA:220,0
DA:221,0
DA:222,0
DA:223,0
DA:224,0
DA:225,1
DA:227,1
DA:228,0
DA:229,0
DA:230,0
DA:231,0
DA:232,0
DA:233,0
DA:234,0
DA:235,0
DA:236,0
DA:237,0
DA:238,0
DA:239,0
DA:240,0
DA:241,1
DA:244,1
DA:245,1
DA:247,6
DA:248,6
DA:249,1
DA:250,5
DA:251,0
DA:253,6
DA:262,6
DA:263,6
DA:264,14
DA:265,8
DA:266,8
DA:267,6
DA:268,6
DA:270,7
DA:271,7
DA:272,7
DA:273,7
DA:274,7
DA:275,7
DA:276,7
DA:277,7
DA:280,1
DA:282,1
DA:283,1
DA:284,1
DA:285,1
DA:286,1
DA:287,1
DA:288,1
DA:289,1
DA:290,1
DA:291,1
DA:292,1
DA:293,1
DA:294,1
DA:295,1
DA:296,1
DA:297,1
DA:298,1
DA:299,1
DA:300,1
DA:302,1
DA:305,1
DA:307,1
DA:308,1
DA:309,1
DA:310,1
DA:311,1
DA:312,1
DA:313,1
DA:314,1
DA:315,1
DA:316,1
DA:317,1
DA:318,1
DA:319,1
DA:320,1
DA:321,1
DA:322,1
DA:323,1
DA:324,1
DA:325,1
DA:327,1
DA:330,1
DA:332,1
DA:333,1
DA:334,1
DA:335,1
DA:336,1
DA:337,1
DA:338,1
DA:339,1
DA:340,1
DA:341,1
DA:342,1
DA:343,1
DA:344,1
DA:345,1
DA:346,1
DA:347,1
DA:348,1
DA:351,1
DA:353,1
DA:354,1
DA:355,1
DA:356,1
DA:357,1
DA:358,1
DA:359,1
DA:360,1
DA:361,1
DA:362,1
DA:363,1
DA:364,1
DA:365,1
DA:366,1
DA:367,1
DA:368,1
DA:369,1
DA:370,1
DA:371,1
DA:373,1
DA:374,1
DA:375,1
DA:376,1
DA:377,1
DA:378,1
DA:380,1
DA:383,1
DA:385,1
DA:386,1
DA:387,1
DA:388,1
DA:389,1
DA:390,1
DA:391,1
DA:392,1
DA:393,1
DA:394,1
DA:395,1
DA:396,1
DA:397,1
DA:398,1
DA:399,1
DA:400,1
DA:401,1
DA:402,1
DA:403,1
DA:405,1
DA:406,1
DA:407,3
DA:408,1
DA:411,1
DA:413,1
DA:414,1
DA:415,1
DA:416,1
DA:417,1
DA:418,1
DA:419,1
DA:420,1
DA:421,1
DA:422,1
DA:423,1
DA:424,1
DA:425,1
DA:426,1
DA:427,1
DA:428,1
DA:429,1
DA:430,1
DA:431,1
DA:432,1
DA:433,1
DA:434,1
DA:435,1
DA:437,1
DA:438,1
BRF:0
BRH:0
LF:393
LH:298
end_of_record
SF:/Users/zwk/src_code/wp-labs/wp-motor/crates/wp-condition/src/cond/mod.rs
FN:36,_RNvMNtCse9Z851cb6K4_12wp_condition4condINtB2_15ConditionParserINtNtNtNtCseivYNzHQkxG_13wp_model_core5model4data5field5FieldNtNtNtB15_5types5value5ValueENtNtNtCs48GgPJaqr2Q_9wp_config4cond5parse17FieldDataOperatorNtNtNtCsjit0JYdlpo8_9orion_exp8operator7symbols10RustSymbolE3expB2w_
FN:33,_RNvMNtCse9Z851cb6K4_12wp_condition4condINtB2_15ConditionParserNtNtNtNtCs4LPn2VmCcs_3oml8language6syntax9accessors12CondAccessorNtNtNtB16_6parser4cond6SQLGetNtNtNtCsjit0JYdlpo8_9orion_exp8operator7symbols9SQLSymbolE7end_expB16_
FN:36,_RNvMNtCse9Z851cb6K4_12wp_condition4condINtB2_15ConditionParserpppE3expB4_
FN:33,_RNvMNtCse9Z851cb6K4_12wp_condition4condINtB2_15ConditionParserpppE7end_expB4_
FN:36,_RNvMNtCse9Z851cb6K4_12wp_condition4condINtB2_15ConditionParserNtNtNtNtCsikXTExXJHPl_3oml8language6syntax9accessors12CondAccessorNtNtNtB16_6parser4cond6SQLGetNtNtNtCsjit0JYdlpo8_9orion_exp8operator7symbols9SQLSymbolE3expB16_
FN:33,_RNvMNtCse9Z851cb6K4_12wp_condition4condINtB2_15ConditionParserNtNtNtNtCsikXTExXJHPl_3oml8language6syntax9accessors12CondAccessorNtNtNtB16_6parser4cond6SQLGetNtNtNtCsjit0JYdlpo8_9orion_exp8operator7symbols9SQLSymbolE7end_expB16_
FN:33,_RNvMNtCs5bUMDJqkv9q_12wp_condition4condINtB2_15ConditionParserpppE7end_expB4_
FN:36,_RNvMNtCs5bUMDJqkv9q_12wp_condition4condINtB2_15ConditionParsermNtNtB2_4test6ObjGetNtNtNtCsjit0JYdlpo8_9orion_exp8operator7symbols10RustSymbolE3expB4_
FN:36,_RNvMNtCse9Z851cb6K4_12wp_condition4condINtB2_15ConditionParserINtNtNtNtCseivYNzHQkxG_13wp_model_core5model4data5field5FieldNtNtNtB15_5types5value5ValueENtNtNtCsiL6gS0SCXXG_9wp_config4cond5parse17FieldDataOperatorNtNtNtCsjit0JYdlpo8_9orion_exp8operator7symbols10RustSymbolE3expB2w_
FNDA:3,_RNvMNtCse9Z851cb6K4_12wp_condition4condINtB2_15ConditionParserINtNtNtNtCseivYNzHQkxG_13wp_model_core5model4data5field5FieldNtNtNtB15_5types5value5ValueENtNtNtCs48GgPJaqr2Q_9wp_config4cond5parse17FieldDataOperatorNtNtNtCsjit0JYdlpo8_9orion_exp8operator7symbols10RustSymbolE3expB2w_
FNDA:3,_RNvMNtCse9Z851cb6K4_12wp_condition4condINtB2_15ConditionParserNtNtNtNtCs4LPn2VmCcs_3oml8language6syntax9accessors12CondAccessorNtNtNtB16_6parser4cond6SQLGetNtNtNtCsjit0JYdlpo8_9orion_exp8operator7symbols9SQLSymbolE7end_expB16_
FNDA:0,_RNvMNtCse9Z851cb6K4_12wp_condition4condINtB2_15ConditionParserpppE3expB4_
FNDA:0,_RNvMNtCse9Z851cb6K4_12wp_condition4condINtB2_15ConditionParserpppE7end_expB4_
FNDA:7,_RNvMNtCse9Z851cb6K4_12wp_condition4condINtB2_15ConditionParserNtNtNtNtCsikXTExXJHPl_3oml8language6syntax9accessors12CondAccessorNtNtNtB16_6parser4cond6SQLGetNtNtNtCsjit0JYdlpo8_9orion_exp8operator7symbols9SQLSymbolE3expB16_
FNDA:15,_RNvMNtCse9Z851cb6K4_12wp_condition4condINtB2_15ConditionParserNtNtNtNtCsikXTExXJHPl_3oml8language6syntax9accessors12CondAccessorNtNtNtB16_6parser4cond6SQLGetNtNtNtCsjit0JYdlpo8_9orion_exp8operator7symbols9SQLSymbolE7end_expB16_
FNDA:0,_RNvMNtCs5bUMDJqkv9q_12wp_condition4condINtB2_15ConditionParserpppE7end_expB4_
FNDA:9,_RNvMNtCs5bUMDJqkv9q_12wp_condition4condINtB2_15ConditionParsermNtNtB2_4test6ObjGetNtNtNtCsjit0JYdlpo8_9orion_exp8operator7symbols10RustSymbolE3expB4_
FNDA:27,_RNvMNtCse9Z851cb6K4_12wp_condition4condINtB2_15ConditionParserINtNtNtNtCseivYNzHQkxG_13wp_model_core5model4data5field5FieldNtNtNtB15_5types5value5ValueENtNtNtCsiL6gS0SCXXG_9wp_config4cond5parse17FieldDataOperatorNtNtNtCsjit0JYdlpo8_9orion_exp8operator7symbols10RustSymbolE3expB2w_
FNF:2
FNH:2
DA:33,18
DA:34,18
DA:35,18
DA:36,46
DA:37,46
DA:38,46
BRF:0
BRH:0
LF:6
LH:6
end_of_record
SF:/Users/zwk/src_code/wp-labs/wp-motor/crates/wp-condition/src/cond/parser.rs
FN:96,_RNvMs0_NtNtCse9Z851cb6K4_12wp_condition4cond6parserINtB7_15ConditionParserINtNtNtNtCseivYNzHQkxG_13wp_model_core5model4data5field5FieldNtNtNtB1h_5types5value5ValueENtNtNtCs48GgPJaqr2Q_9wp_config4cond5parse17FieldDataOperatorNtNtNtCsjit0JYdlpo8_9orion_exp8operator7symbols10RustSymbolE8lev0_expB2I_
FN:126,_RNvMs0_NtNtCse9Z851cb6K4_12wp_condition4cond6parserINtB7_15ConditionParserINtNtNtNtCseivYNzHQkxG_13wp_model_core5model4data5field5FieldNtNtNtB1h_5types5value5ValueENtNtNtCs48GgPJaqr2Q_9wp_config4cond5parse17FieldDataOperatorNtNtNtCsjit0JYdlpo8_9orion_exp8operator7symbols10RustSymbolE8lev1_expB2I_
FN:43,_RNvMs0_NtNtCse9Z851cb6K4_12wp_condition4cond6parserINtB7_15ConditionParserINtNtNtNtCseivYNzHQkxG_13wp_model_core5model4data5field5FieldNtNtNtB1h_5types5value5ValueENtNtNtCs48GgPJaqr2Q_9wp_config4cond5parse17FieldDataOperatorNtNtNtCsjit0JYdlpo8_9orion_exp8operator7symbols10RustSymbolE8lev2_expB2I_
FN:171,_RNvMs0_NtNtCse9Z851cb6K4_12wp_condition4cond6parserINtB7_15ConditionParserINtNtNtNtCseivYNzHQkxG_13wp_model_core5model4data5field5FieldNtNtNtB1h_5types5value5ValueENtNtNtCs48GgPJaqr2Q_9wp_config4cond5parse17FieldDataOperatorNtNtNtCsjit0JYdlpo8_9orion_exp8operator7symbols10RustSymbolE9group_expB2I_
FN:96,_RNvMs0_NtNtCse9Z851cb6K4_12wp_condition4cond6parserINtB7_15ConditionParserNtNtNtNtCs4LPn2VmCcs_3oml8language6syntax9accessors12CondAccessorNtNtNtB1i_6parser4cond6SQLGetNtNtNtCsjit0JYdlpo8_9orion_exp8operator7symbols9SQLSymbolE8lev0_expB1i_
FN:126,_RNvMs0_NtNtCse9Z851cb6K4_12wp_condition4cond6parserINtB7_15ConditionParserNtNtNtNtCs4LPn2VmCcs_3oml8language6syntax9accessors12CondAccessorNtNtNtB1i_6parser4cond6SQLGetNtNtNtCsjit0JYdlpo8_9orion_exp8operator7symbols9SQLSymbolE8lev1_expB1i_
FN:43,_RNvMs0_NtNtCse9Z851cb6K4_12wp_condition4cond6parserINtB7_15ConditionParserNtNtNtNtCs4LPn2VmCcs_3oml8language6syntax9accessors12CondAccessorNtNtNtB1i_6parser4cond6SQLGetNtNtNtCsjit0JYdlpo8_9orion_exp8operator7symbols9SQLSymbolE8lev2_expB1i_
FN:171,_RNvMs0_NtNtCse9Z851cb6K4_12wp_condition4cond6parserINtB7_15ConditionParserNtNtNtNtCs4LPn2VmCcs_3oml8language6syntax9accessors12CondAccessorNtNtNtB1i_6parser4cond6SQLGetNtNtNtCsjit0JYdlpo8_9orion_exp8operator7symbols9SQLSymbolE9group_expB1i_
FN:177,_RNvNtNtCse9Z851cb6K4_12wp_condition4cond6parser8peek_str
FN:96,_RNvMs0_NtNtCse9Z851cb6K4_12wp_condition4cond6parserINtB7_15ConditionParserpppE8lev0_expB9_
FN:126,_RNvMs0_NtNtCse9Z851cb6K4_12wp_condition4cond6parserINtB7_15ConditionParserpppE8lev1_expB9_
FN:43,_RNvMs0_NtNtCse9Z851cb6K4_12wp_condition4cond6parserINtB7_15ConditionParserpppE8lev2_expB9_
FN:171,_RNvMs0_NtNtCse9Z851cb6K4_12wp_condition4cond6parserINtB7_15ConditionParserpppE9group_expB9_
FN:16,_RNvXNtNtCse9Z851cb6K4_12wp_condition4cond6parserNtNtCsjit0JYdlpo8_9orion_exp8operator13LogicOperatorINtB4_10SymbolFromNtNtCsd0ttX5geu3a_13wp_primitives6symbol11LogicSymbolE7op_from
FN:26,_RNvXs_NtNtCse9Z851cb6K4_12wp_condition4cond6parserNtNtCsjit0JYdlpo8_9orion_exp8operator11CmpOperatorINtB6_10SymbolFromNtNtCsd0ttX5geu3a_13wp_primitives6symbol9CmpSymbolE7op_from
FN:183,_RNvXs1_NtNtCse9Z851cb6K4_12wp_condition4cond6parserNtNtNtCsjit0JYdlpo8_9orion_exp8operator7symbols10RustSymbolNtB7_19LogicSymbolProvider10and_symbol
FN:205,_RNvXs1_NtNtCse9Z851cb6K4_12wp_condition4cond6parserNtNtNtCsjit0JYdlpo8_9orion_exp8operator7symbols10RustSymbolNtB7_19LogicSymbolProvider10not_symbol
FN:194,_RNvXs1_NtNtCse9Z851cb6K4_12wp_condition4cond6parserNtNtNtCsjit0JYdlpo8_9orion_exp8operator7symbols10RustSymbolNtB7_19LogicSymbolProvider9or_symbol
FN:218,_RNvXs2_NtNtCse9Z851cb6K4_12wp_condition4cond6parserNtNtNtCsjit0JYdlpo8_9orion_exp8operator7symbols9SQLSymbolNtB7_19LogicSymbolProvider10and_symbol
FN:240,_RNvXs2_NtNtCse9Z851cb6K4_12wp_condition4cond6parserNtNtNtCsjit0JYdlpo8_9orion_exp8operator7symbols9SQLSymbolNtB7_19LogicSymbolProvider10not_symbol
FN:229,_RNvXs2_NtNtCse9Z851cb6K4_12wp_condition4cond6parserNtNtNtCsjit0JYdlpo8_9orion_exp8operator7symbols9SQLSymbolNtB7_19LogicSymbolProvider9or_symbol
FN:96,_RNvMs0_NtNtCse9Z851cb6K4_12wp_condition4cond6parserINtB7_15ConditionParserNtNtNtNtCsikXTExXJHPl_3oml8language6syntax9accessors12CondAccessorNtNtNtB1i_6parser4cond6SQLGetNtNtNtCsjit0JYdlpo8_9orion_exp8operator7symbols9SQLSymbolE8lev0_expB1i_
FN:126,_RNvMs0_NtNtCse9Z851cb6K4_12wp_condition4cond6parserINtB7_15ConditionParserNtNtNtNtCsikXTExXJHPl_3oml8language6syntax9accessors12CondAccessorNtNtNtB1i_6parser4cond6SQLGetNtNtNtCsjit0JYdlpo8_9orion_exp8operator7symbols9SQLSymbolE8lev1_expB1i_
FN:43,_RNvMs0_NtNtCse9Z851cb6K4_12wp_condition4cond6parserINtB7_15ConditionParserNtNtNtNtCsikXTExXJHPl_3oml8language6syntax9accessors12CondAccessorNtNtNtB1i_6parser4cond6SQLGetNtNtNtCsjit0JYdlpo8_9orion_exp8operator7symbols9SQLSymbolE8lev2_expB1i_
FN:171,_RNvMs0_NtNtCse9Z851cb6K4_12wp_condition4cond6parserINtB7_15ConditionParserNtNtNtNtCsikXTExXJHPl_3oml8language6syntax9accessors12CondAccessorNtNtNtB1i_6parser4cond6SQLGetNtNtNtCsjit0JYdlpo8_9orion_exp8operator7symbols9SQLSymbolE9group_expB1i_
FN:16,_RNvXNtNtCs5bUMDJqkv9q_12wp_condition4cond6parserNtNtCsjit0JYdlpo8_9orion_exp8operator13LogicOperatorINtB4_10SymbolFromNtNtCsd0ttX5geu3a_13wp_primitives6symbol11LogicSymbolE7op_from
FN:218,_RNvXs2_NtNtCs5bUMDJqkv9q_12wp_condition4cond6parserNtNtNtCsjit0JYdlpo8_9orion_exp8operator7symbols9SQLSymbolNtB7_19LogicSymbolProvider10and_symbol
FN:240,_RNvXs2_NtNtCs5bUMDJqkv9q_12wp_condition4cond6parserNtNtNtCsjit0JYdlpo8_9orion_exp8operator7symbols9SQLSymbolNtB7_19LogicSymbolProvider10not_symbol
FN:229,_RNvXs2_NtNtCs5bUMDJqkv9q_12wp_condition4cond6parserNtNtNtCsjit0JYdlpo8_9orion_exp8operator7symbols9SQLSymbolNtB7_19LogicSymbolProvider9or_symbol
FN:183,_RNvXs1_NtNtCs5bUMDJqkv9q_12wp_condition4cond6parserNtNtNtCsjit0JYdlpo8_9orion_exp8operator7symbols10RustSymbolNtB7_19LogicSymbolProvider10and_symbol
FN:205,_RNvXs1_NtNtCs5bUMDJqkv9q_12wp_condition4cond6parserNtNtNtCsjit0JYdlpo8_9orion_exp8operator7symbols10RustSymbolNtB7_19LogicSymbolProvider10not_symbol
FN:194,_RNvXs1_NtNtCs5bUMDJqkv9q_12wp_condition4cond6parserNtNtNtCsjit0JYdlpo8_9orion_exp8operator7symbols10RustSymbolNtB7_19LogicSymbolProvider9or_symbol
FN:177,_RNvNtNtCs5bUMDJqkv9q_12wp_condition4cond6parser8peek_str
FN:26,_RNvXs_NtNtCs5bUMDJqkv9q_12wp_condition4cond6parserNtNtCsjit0JYdlpo8_9orion_exp8operator11CmpOperatorINtB6_10SymbolFromNtNtCsd0ttX5geu3a_13wp_primitives6symbol9CmpSymbolE7op_from
FN:96,_RNvMs0_NtNtCs5bUMDJqkv9q_12wp_condition4cond6parserINtB7_15ConditionParsermNtNtB7_4test6ObjGetNtNtNtCsjit0JYdlpo8_9orion_exp8operator7symbols10RustSymbolE8lev0_expB9_
FN:126,_RNvMs0_NtNtCs5bUMDJqkv9q_12wp_condition4cond6parserINtB7_15ConditionParsermNtNtB7_4test6ObjGetNtNtNtCsjit0JYdlpo8_9orion_exp8operator7symbols10RustSymbolE8lev1_expB9_
FN:43,_RNvMs0_NtNtCs5bUMDJqkv9q_12wp_condition4cond6parserINtB7_15ConditionParsermNtNtB7_4test6ObjGetNtNtNtCsjit0JYdlpo8_9orion_exp8operator7symbols10RustSymbolE8lev2_expB9_
FN:171,_RNvMs0_NtNtCs5bUMDJqkv9q_12wp_condition4cond6parserINtB7_15ConditionParsermNtNtB7_4test6ObjGetNtNtNtCsjit0JYdlpo8_9orion_exp8operator7symbols10RustSymbolE9group_expB9_
FN:96,_RNvMs0_NtNtCse9Z851cb6K4_12wp_condition4cond6parserINtB7_15ConditionParserINtNtNtNtCseivYNzHQkxG_13wp_model_core5model4data5field5FieldNtNtNtB1h_5types5value5ValueENtNtNtCsiL6gS0SCXXG_9wp_config4cond5parse17FieldDataOperatorNtNtNtCsjit0JYdlpo8_9orion_exp8operator7symbols10RustSymbolE8lev0_expB2I_
FN:126,_RNvMs0_NtNtCse9Z851cb6K4_12wp_condition4cond6parserINtB7_15ConditionParserINtNtNtNtCseivYNzHQkxG_13wp_model_core5model4data5field5FieldNtNtNtB1h_5types5value5ValueENtNtNtCsiL6gS0SCXXG_9wp_config4cond5parse17FieldDataOperatorNtNtNtCsjit0JYdlpo8_9orion_exp8operator7symbols10RustSymbolE8lev1_expB2I_
FN:43,_RNvMs0_NtNtCse9Z851cb6K4_12wp_condition4cond6parserINtB7_15ConditionParserINtNtNtNtCseivYNzHQkxG_13wp_model_core5model4data5field5FieldNtNtNtB1h_5types5value5ValueENtNtNtCsiL6gS0SCXXG_9wp_config4cond5parse17FieldDataOperatorNtNtNtCsjit0JYdlpo8_9orion_exp8operator7symbols10RustSymbolE8lev2_expB2I_
FN:171,_RNvMs0_NtNtCse9Z851cb6K4_12wp_condition4cond6parserINtB7_15ConditionParserINtNtNtNtCseivYNzHQkxG_13wp_model_core5model4data5field5FieldNtNtNtB1h_5types5value5ValueENtNtNtCsiL6gS0SCXXG_9wp_config4cond5parse17FieldDataOperatorNtNtNtCsjit0JYdlpo8_9orion_exp8operator7symbols10RustSymbolE9group_expB2I_
FNDA:0,_RNvMs0_NtNtCse9Z851cb6K4_12wp_condition4cond6parserINtB7_15ConditionParserINtNtNtNtCseivYNzHQkxG_13wp_model_core5model4data5field5FieldNtNtNtB1h_5types5value5ValueENtNtNtCs48GgPJaqr2Q_9wp_config4cond5parse17FieldDataOperatorNtNtNtCsjit0JYdlpo8_9orion_exp8operator7symbols10RustSymbolE8lev0_expB2I_
FNDA:0,_RNvMs0_NtNtCse9Z851cb6K4_12wp_condition4cond6parserINtB7_15ConditionParserINtNtNtNtCseivYNzHQkxG_13wp_model_core5model4data5field5FieldNtNtNtB1h_5types5value5ValueENtNtNtCs48GgPJaqr2Q_9wp_config4cond5parse17FieldDataOperatorNtNtNtCsjit0JYdlpo8_9orion_exp8operator7symbols10RustSymbolE8lev1_expB2I_
FNDA:3,_RNvMs0_NtNtCse9Z851cb6K4_12wp_condition4cond6parserINtB7_15ConditionParserINtNtNtNtCseivYNzHQkxG_13wp_model_core5model4data5field5FieldNtNtNtB1h_5types5value5ValueENtNtNtCs48GgPJaqr2Q_9wp_config4cond5parse17FieldDataOperatorNtNtNtCsjit0JYdlpo8_9orion_exp8operator7symbols10RustSymbolE8lev2_expB2I_
FNDA:0,_RNvMs0_NtNtCse9Z851cb6K4_12wp_condition4cond6parserINtB7_15ConditionParserINtNtNtNtCseivYNzHQkxG_13wp_model_core5model4data5field5FieldNtNtNtB1h_5types5value5ValueENtNtNtCs48GgPJaqr2Q_9wp_config4cond5parse17FieldDataOperatorNtNtNtCsjit0JYdlpo8_9orion_exp8operator7symbols10RustSymbolE9group_expB2I_
FNDA:0,_RNvMs0_NtNtCse9Z851cb6K4_12wp_condition4cond6parserINtB7_15ConditionParserNtNtNtNtCs4LPn2VmCcs_3oml8language6syntax9accessors12CondAccessorNtNtNtB1i_6parser4cond6SQLGetNtNtNtCsjit0JYdlpo8_9orion_exp8operator7symbols9SQLSymbolE8lev0_expB1i_
FNDA:0,_RNvMs0_NtNtCse9Z851cb6K4_12wp_condition4cond6parserINtB7_15ConditionParserNtNtNtNtCs4LPn2VmCcs_3oml8language6syntax9accessors12CondAccessorNtNtNtB1i_6parser4cond6SQLGetNtNtNtCsjit0JYdlpo8_9orion_exp8operator7symbols9SQLSymbolE8lev1_expB1i_
FNDA:3,_RNvMs0_NtNtCse9Z851cb6K4_12wp_condition4cond6parserINtB7_15ConditionParserNtNtNtNtCs4LPn2VmCcs_3oml8language6syntax9accessors12CondAccessorNtNtNtB1i_6parser4cond6SQLGetNtNtNtCsjit0JYdlpo8_9orion_exp8operator7symbols9SQLSymbolE8lev2_expB1i_
FNDA:0,_RNvMs0_NtNtCse9Z851cb6K4_12wp_condition4cond6parserINtB7_15ConditionParserNtNtNtNtCs4LPn2VmCcs_3oml8language6syntax9accessors12CondAccessorNtNtNtB1i_6parser4cond6SQLGetNtNtNtCsjit0JYdlpo8_9orion_exp8operator7symbols9SQLSymbolE9group_expB1i_
FNDA:707,_RNvNtNtCse9Z851cb6K4_12wp_condition4cond6parser8peek_str
FNDA:0,_RNvMs0_NtNtCse9Z851cb6K4_12wp_condition4cond6parserINtB7_15ConditionParserpppE8lev0_expB9_
FNDA:0,_RNvMs0_NtNtCse9Z851cb6K4_12wp_condition4cond6parserINtB7_15ConditionParserpppE8lev1_expB9_
FNDA:0,_RNvMs0_NtNtCse9Z851cb6K4_12wp_condition4cond6parserINtB7_15ConditionParserpppE8lev2_expB9_
FNDA:0,_RNvMs0_NtNtCse9Z851cb6K4_12wp_condition4cond6parserINtB7_15ConditionParserpppE9group_expB9_
FNDA:0,_RNvXNtNtCse9Z851cb6K4_12wp_condition4cond6parserNtNtCsjit0JYdlpo8_9orion_exp8operator13LogicOperatorINtB4_10SymbolFromNtNtCsd0ttX5geu3a_13wp_primitives6symbol11LogicSymbolE7op_from
FNDA:138,_RNvXs_NtNtCse9Z851cb6K4_12wp_condition4cond6parserNtNtCsjit0JYdlpo8_9orion_exp8operator11CmpOperatorINtB6_10SymbolFromNtNtCsd0ttX5geu3a_13wp_primitives6symbol9CmpSymbolE7op_from
FNDA:14,_RNvXs1_NtNtCse9Z851cb6K4_12wp_condition4cond6parserNtNtNtCsjit0JYdlpo8_9orion_exp8operator7symbols10RustSymbolNtB7_19LogicSymbolProvider10and_symbol
FNDA:3,_RNvXs1_NtNtCse9Z851cb6K4_12wp_condition4cond6parserNtNtNtCsjit0JYdlpo8_9orion_exp8operator7symbols10RustSymbolNtB7_19LogicSymbolProvider10not_symbol
FNDA:22,_RNvXs1_NtNtCse9Z851cb6K4_12wp_condition4cond6parserNtNtNtCsjit0JYdlpo8_9orion_exp8operator7symbols10RustSymbolNtB7_19LogicSymbolProvider9or_symbol
FNDA:4,_RNvXs2_NtNtCse9Z851cb6K4_12wp_condition4cond6parserNtNtNtCsjit0JYdlpo8_9orion_exp8operator7symbols9SQLSymbolNtB7_19LogicSymbolProvider10and_symbol
FNDA:3,_RNvXs2_NtNtCse9Z851cb6K4_12wp_condition4cond6parserNtNtNtCsjit0JYdlpo8_9orion_exp8operator7symbols9SQLSymbolNtB7_19LogicSymbolProvider10not_symbol
FNDA:5,_RNvXs2_NtNtCse9Z851cb6K4_12wp_condition4cond6parserNtNtNtCsjit0JYdlpo8_9orion_exp8operator7symbols9SQLSymbolNtB7_19LogicSymbolProvider9or_symbol
FNDA:3,_RNvMs0_NtNtCse9Z851cb6K4_12wp_condition4cond6parserINtB7_15ConditionParserNtNtNtNtCsikXTExXJHPl_3oml8language6syntax9accessors12CondAccessorNtNtNtB1i_6parser4cond6SQLGetNtNtNtCsjit0JYdlpo8_9orion_exp8operator7symbols9SQLSymbolE8lev0_expB1i_
FNDA:4,_RNvMs0_NtNtCse9Z851cb6K4_12wp_condition4cond6parserINtB7_15ConditionParserNtNtNtNtCsikXTExXJHPl_3oml8language6syntax9accessors12CondAccessorNtNtNtB1i_6parser4cond6SQLGetNtNtNtCsjit0JYdlpo8_9orion_exp8operator7symbols9SQLSymbolE8lev1_expB1i_
FNDA:29,_RNvMs0_NtNtCse9Z851cb6K4_12wp_condition4cond6parserINtB7_15ConditionParserNtNtNtNtCsikXTExXJHPl_3oml8language6syntax9accessors12CondAccessorNtNtNtB1i_6parser4cond6SQLGetNtNtNtCsjit0JYdlpo8_9orion_exp8operator7symbols9SQLSymbolE8lev2_expB1i_
FNDA:2,_RNvMs0_NtNtCse9Z851cb6K4_12wp_condition4cond6parserINtB7_15ConditionParserNtNtNtNtCsikXTExXJHPl_3oml8language6syntax9accessors12CondAccessorNtNtNtB1i_6parser4cond6SQLGetNtNtNtCsjit0JYdlpo8_9orion_exp8operator7symbols9SQLSymbolE9group_expB1i_
FNDA:0,_RNvXNtNtCs5bUMDJqkv9q_12wp_condition4cond6parserNtNtCsjit0JYdlpo8_9orion_exp8operator13LogicOperatorINtB4_10SymbolFromNtNtCsd0ttX5geu3a_13wp_primitives6symbol11LogicSymbolE7op_from
FNDA:0,_RNvXs2_NtNtCs5bUMDJqkv9q_12wp_condition4cond6parserNtNtNtCsjit0JYdlpo8_9orion_exp8operator7symbols9SQLSymbolNtB7_19LogicSymbolProvider10and_symbol
FNDA:0,_RNvXs2_NtNtCs5bUMDJqkv9q_12wp_condition4cond6parserNtNtNtCsjit0JYdlpo8_9orion_exp8operator7symbols9SQLSymbolNtB7_19LogicSymbolProvider10not_symbol
FNDA:0,_RNvXs2_NtNtCs5bUMDJqkv9q_12wp_condition4cond6parserNtNtNtCsjit0JYdlpo8_9orion_exp8operator7symbols9SQLSymbolNtB7_19LogicSymbolProvider9or_symbol
FNDA:3,_RNvXs1_NtNtCs5bUMDJqkv9q_12wp_condition4cond6parserNtNtNtCsjit0JYdlpo8_9orion_exp8operator7symbols10RustSymbolNtB7_19LogicSymbolProvider10and_symbol
FNDA:0,_RNvXs1_NtNtCs5bUMDJqkv9q_12wp_condition4cond6parserNtNtNtCsjit0JYdlpo8_9orion_exp8operator7symbols10RustSymbolNtB7_19LogicSymbolProvider10not_symbol
FNDA:2,_RNvXs1_NtNtCs5bUMDJqkv9q_12wp_condition4cond6parserNtNtNtCsjit0JYdlpo8_9orion_exp8operator7symbols10RustSymbolNtB7_19LogicSymbolProvider9or_symbol
FNDA:78,_RNvNtNtCs5bUMDJqkv9q_12wp_condition4cond6parser8peek_str
FNDA:14,_RNvXs_NtNtCs5bUMDJqkv9q_12wp_condition4cond6parserNtNtCsjit0JYdlpo8_9orion_exp8operator11CmpOperatorINtB6_10SymbolFromNtNtCsd0ttX5geu3a_13wp_primitives6symbol9CmpSymbolE7op_from
FNDA:0,_RNvMs0_NtNtCs5bUMDJqkv9q_12wp_condition4cond6parserINtB7_15ConditionParsermNtNtB7_4test6ObjGetNtNtNtCsjit0JYdlpo8_9orion_exp8operator7symbols10RustSymbolE8lev0_expB9_
FNDA:3,_RNvMs0_NtNtCs5bUMDJqkv9q_12wp_condition4cond6parserINtB7_15ConditionParsermNtNtB7_4test6ObjGetNtNtNtCsjit0JYdlpo8_9orion_exp8operator7symbols10RustSymbolE8lev1_expB9_
FNDA:12,_RNvMs0_NtNtCs5bUMDJqkv9q_12wp_condition4cond6parserINtB7_15ConditionParsermNtNtB7_4test6ObjGetNtNtNtCsjit0JYdlpo8_9orion_exp8operator7symbols10RustSymbolE8lev2_expB9_
FNDA:1,_RNvMs0_NtNtCs5bUMDJqkv9q_12wp_condition4cond6parserINtB7_15ConditionParsermNtNtB7_4test6ObjGetNtNtNtCsjit0JYdlpo8_9orion_exp8operator7symbols10RustSymbolE9group_expB9_
FNDA:3,_RNvMs0_NtNtCse9Z851cb6K4_12wp_condition4cond6parserINtB7_15ConditionParserINtNtNtNtCseivYNzHQkxG_13wp_model_core5model4data5field5FieldNtNtNtB1h_5types5value5ValueENtNtNtCsiL6gS0SCXXG_9wp_config4cond5parse17FieldDataOperatorNtNtNtCsjit0JYdlpo8_9orion_exp8operator7symbols10RustSymbolE8lev0_expB2I_
FNDA:14,_RNvMs0_NtNtCse9Z851cb6K4_12wp_condition4cond6parserINtB7_15ConditionParserINtNtNtNtCseivYNzHQkxG_13wp_model_core5model4data5field5FieldNtNtNtB1h_5types5value5ValueENtNtNtCsiL6gS0SCXXG_9wp_config4cond5parse17FieldDataOperatorNtNtNtCsjit0JYdlpo8_9orion_exp8operator7symbols10RustSymbolE8lev1_expB2I_
FNDA:64,_RNvMs0_NtNtCse9Z851cb6K4_12wp_condition4cond6parserINtB7_15ConditionParserINtNtNtNtCseivYNzHQkxG_13wp_model_core5model4data5field5FieldNtNtNtB1h_5types5value5ValueENtNtNtCsiL6gS0SCXXG_9wp_config4cond5parse17FieldDataOperatorNtNtNtCsjit0JYdlpo8_9orion_exp8operator7symbols10RustSymbolE8lev2_expB2I_
FNDA:15,_RNvMs0_NtNtCse9Z851cb6K4_12wp_condition4cond6parserINtB7_15ConditionParserINtNtNtNtCseivYNzHQkxG_13wp_model_core5model4data5field5FieldNtNtNtB1h_5types5value5ValueENtNtNtCsiL6gS0SCXXG_9wp_config4cond5parse17FieldDataOperatorNtNtNtCsjit0JYdlpo8_9orion_exp8operator7symbols10RustSymbolE9group_expB2I_
FNF:13
FNH:12
DA:16,0
DA:17,0
DA:18,0
DA:19,0
DA:20,0
DA:22,0
DA:26,152
DA:27,152
DA:28,53
DA:29,59
DA:30,3
DA:31,19
DA:32,4
DA:33,11
DA:34,3
DA:36,152
DA:43,111
DA:44,111
DA:46,270
DA:47,270
DA:48,96
DA:49,174
DA:50,174
DA:51,90
DA:53,14
DA:54,14
DA:55,160
DA:56,160
DA:57,14
DA:58,14
DA:59,14
DA:60,146
DA:61,6
DA:62,6
DA:63,6
DA:64,6
DA:65,140
DA:66,19
DA:67,19
DA:68,19
DA:69,19
DA:70,19
DA:71,19
DA:72,19
DA:73,19
DA:74,121
DA:75,29
DA:76,29
DA:77,29
DA:78,29
DA:79,29
DA:80,29
DA:81,29
DA:82,29
DA:84,92
DA:85,91
DA:86,91
DA:89,110
DA:90,110
DA:91,0
DA:93,111
DA:96,6
DA:97,6
DA:99,6
DA:100,6
DA:101,0
DA:102,6
DA:103,6
DA:104,4
DA:106,0
DA:107,0
DA:108,6
DA:110,6
DA:111,0
DA:112,0
DA:113,0
DA:115,6
DA:116,6
DA:117,6
DA:120,6
DA:121,6
DA:122,0
DA:124,6
DA:126,21
DA:127,21
DA:129,44
DA:130,44
DA:131,11
DA:132,33
DA:133,33
DA:134,24
DA:136,6
DA:137,6
DA:138,27
DA:139,27
DA:140,4
DA:141,4
DA:142,4
DA:143,23
DA:144,0
DA:145,0
DA:146,0
DA:147,0
DA:148,23
DA:149,2
DA:150,2
DA:151,2
DA:152,2
DA:153,2
DA:154,2
DA:155,2
DA:156,2
DA:157,21
DA:158,4
DA:160,17
DA:161,17
DA:162,17
DA:165,21
DA:166,21
DA:167,0
DA:169,21
DA:171,18
DA:172,18
DA:173,18
DA:174,18
DA:175,18
DA:177,785
DA:178,785
DA:179,98
DA:180,785
DA:183,17
DA:184,17
DA:185,17
DA:186,17
DA:187,17
DA:188,17
DA:189,17
DA:190,17
DA:191,17
DA:192,17
DA:194,24
DA:195,24
DA:196,24
DA:197,24
DA:198,24
DA:199,24
DA:200,24
DA:201,24
DA:202,24
DA:203,24
DA:205,3
DA:206,3
DA:207,3
DA:208,3
DA:209,3
DA:210,3
DA:211,3
DA:212,3
DA:213,3
DA:214,3
DA:218,4
DA:219,4
DA:220,4
DA:221,4
DA:222,4
DA:223,4
DA:224,4
DA:225,4
DA:226,4
DA:227,4
DA:229,5
DA:230,5
DA:231,5
DA:232,5
DA:233,5
DA:234,5
DA:235,5
DA:236,5
DA:237,5
DA:238,5
DA:240,3
DA:241,3
DA:242,3
DA:243,3
DA:244,3
DA:245,3
DA:246,3
DA:247,3
DA:248,3
DA:249,3
BRF:0
BRH:0
LF:190
LH:171
end_of_record
SF:/Users/zwk/src_code/wp-labs/wp-motor/crates/wp-condition/src/cond/test.rs
FN:47,_RNvNtNtCs5bUMDJqkv9q_12wp_condition4cond4tests_24test_express_exec_simple
FN:14,_RNvXNtNtCs5bUMDJqkv9q_12wp_condition4cond4testNtB2_6ObjGetINtB4_9CmpParsermNtNtNtCsjit0JYdlpo8_9orion_exp8operator7symbols10RustSymbolE7cmp_exp
FN:32,_RNvXs_NtNtCs5bUMDJqkv9q_12wp_condition4cond4testNtB4_4VMapINtNtCsjit0JYdlpo8_9orion_exp6traits11ValueGettermE9get_value
FNDA:1,_RNvNtNtCs5bUMDJqkv9q_12wp_condition4cond4tests_24test_express_exec_simple
FNDA:14,_RNvXNtNtCs5bUMDJqkv9q_12wp_condition4cond4testNtB2_6ObjGetINtB4_9CmpParsermNtNtNtCsjit0JYdlpo8_9orion_exp8operator7symbols10RustSymbolE7cmp_exp
FNDA:13,_RNvXs_NtNtCs5bUMDJqkv9q_12wp_condition4cond4testNtB4_4VMapINtNtCsjit0JYdlpo8_9orion_exp6traits11ValueGettermE9get_value
FNF:3
FNH:3
DA:14,14
DA:15,14
DA:16,14
DA:17,14
DA:18,14
DA:19,14
DA:20,14
DA:21,14
DA:22,14
DA:23,14
DA:25,14
DA:26,14
DA:32,13
DA:33,13
DA:34,13
DA:47,1
DA:48,1
DA:50,1
DA:51,1
DA:52,1
DA:54,1
DA:55,1
DA:56,1
DA:58,1
DA:59,1
DA:60,1
DA:62,1
DA:63,1
DA:64,1
DA:66,1
DA:67,1
DA:68,1
DA:70,1
DA:71,1
DA:72,1
DA:74,1
DA:75,1
DA:76,1
DA:78,1
DA:79,1
DA:80,1
DA:82,1
DA:83,1
DA:84,1
DA:86,1
DA:87,1
BRF:0
BRH:0
LF:46
LH:46
end_of_record
SF:/Users/zwk/src_code/wp-labs/wp-motor/crates/wp-condition/src/sql_symbol.rs
FN:72,_RNvNtCse9Z851cb6K4_12wp_condition10sql_symbol14symbol_sql_cmp
FN:132,_RNvNtCse9Z851cb6K4_12wp_condition10sql_symbol16symbol_sql_logic
FN:9,_RNvNtCse9Z851cb6K4_12wp_condition10sql_symbol17symbol_sql_cmp_eq
FN:29,_RNvNtCse9Z851cb6K4_12wp_condition10sql_symbol17symbol_sql_cmp_ge
FN:40,_RNvNtCse9Z851cb6K4_12wp_condition10sql_symbol17symbol_sql_cmp_gt
FN:51,_RNvNtCse9Z851cb6K4_12wp_condition10sql_symbol17symbol_sql_cmp_le
FN:62,_RNvNtCse9Z851cb6K4_12wp_condition10sql_symbol17symbol_sql_cmp_lt
FN:19,_RNvNtCse9Z851cb6K4_12wp_condition10sql_symbol17symbol_sql_cmp_ne
FN:111,_RNvNtCse9Z851cb6K4_12wp_condition10sql_symbol19symbol_sql_logic_or
FN:101,_RNvNtCse9Z851cb6K4_12wp_condition10sql_symbol20symbol_sql_logic_and
FN:121,_RNvNtCse9Z851cb6K4_12wp_condition10sql_symbol20symbol_sql_logic_not
FN:92,_RNvXNtCse9Z851cb6K4_12wp_condition10sql_symbolNtNtCsjit0JYdlpo8_9orion_exp8operator13LogicOperatorINtNtCsaNl6UpbT7bw_4core7convert4FromNtB2_13SQLogicSymbolE4from
FN:72,_RNvNtCs5bUMDJqkv9q_12wp_condition10sql_symbol14symbol_sql_cmp
FN:132,_RNvNtCs5bUMDJqkv9q_12wp_condition10sql_symbol16symbol_sql_logic
FN:9,_RNvNtCs5bUMDJqkv9q_12wp_condition10sql_symbol17symbol_sql_cmp_eq
FN:29,_RNvNtCs5bUMDJqkv9q_12wp_condition10sql_symbol17symbol_sql_cmp_ge
FN:40,_RNvNtCs5bUMDJqkv9q_12wp_condition10sql_symbol17symbol_sql_cmp_gt
FN:51,_RNvNtCs5bUMDJqkv9q_12wp_condition10sql_symbol17symbol_sql_cmp_le
FN:62,_RNvNtCs5bUMDJqkv9q_12wp_condition10sql_symbol17symbol_sql_cmp_lt
FN:19,_RNvNtCs5bUMDJqkv9q_12wp_condition10sql_symbol17symbol_sql_cmp_ne
FN:111,_RNvNtCs5bUMDJqkv9q_12wp_condition10sql_symbol19symbol_sql_logic_or
FN:101,_RNvNtCs5bUMDJqkv9q_12wp_condition10sql_symbol20symbol_sql_logic_and
FN:121,_RNvNtCs5bUMDJqkv9q_12wp_condition10sql_symbol20symbol_sql_logic_not
FN:92,_RNvXNtCs5bUMDJqkv9q_12wp_condition10sql_symbolNtNtCsjit0JYdlpo8_9orion_exp8operator13LogicOperatorINtNtCsaNl6UpbT7bw_4core7convert4FromNtB2_13SQLogicSymbolE4from
FNDA:71,_RNvNtCse9Z851cb6K4_12wp_condition10sql_symbol14symbol_sql_cmp
FNDA:0,_RNvNtCse9Z851cb6K4_12wp_condition10sql_symbol16symbol_sql_logic
FNDA:71,_RNvNtCse9Z851cb6K4_12wp_condition10sql_symbol17symbol_sql_cmp_eq
FNDA:40,_RNvNtCse9Z851cb6K4_12wp_condition10sql_symbol17symbol_sql_cmp_ge
FNDA:38,_RNvNtCse9Z851cb6K4_12wp_condition10sql_symbol17symbol_sql_cmp_gt
FNDA:42,_RNvNtCse9Z851cb6K4_12wp_condition10sql_symbol17symbol_sql_cmp_le
FNDA:38,_RNvNtCse9Z851cb6K4_12wp_condition10sql_symbol17symbol_sql_cmp_lt
FNDA:42,_RNvNtCse9Z851cb6K4_12wp_condition10sql_symbol17symbol_sql_cmp_ne
FNDA:0,_RNvNtCse9Z851cb6K4_12wp_condition10sql_symbol19symbol_sql_logic_or
FNDA:0,_RNvNtCse9Z851cb6K4_12wp_condition10sql_symbol20symbol_sql_logic_and
FNDA:0,_RNvNtCse9Z851cb6K4_12wp_condition10sql_symbol20symbol_sql_logic_not
FNDA:0,_RNvXNtCse9Z851cb6K4_12wp_condition10sql_symbolNtNtCsjit0JYdlpo8_9orion_exp8operator13LogicOperatorINtNtCsaNl6UpbT7bw_4core7convert4FromNtB2_13SQLogicSymbolE4from
FNDA:0,_RNvNtCs5bUMDJqkv9q_12wp_condition10sql_symbol14symbol_sql_cmp
FNDA:0,_RNvNtCs5bUMDJqkv9q_12wp_condition10sql_symbol16symbol_sql_logic
FNDA:0,_RNvNtCs5bUMDJqkv9q_12wp_condition10sql_symbol17symbol_sql_cmp_eq
FNDA:0,_RNvNtCs5bUMDJqkv9q_12wp_condition10sql_symbol17symbol_sql_cmp_ge
FNDA:0,_RNvNtCs5bUMDJqkv9q_12wp_condition10sql_symbol17symbol_sql_cmp_gt
FNDA:0,_RNvNtCs5bUMDJqkv9q_12wp_condition10sql_symbol17symbol_sql_cmp_le
FNDA:0,_RNvNtCs5bUMDJqkv9q_12wp_condition10sql_symbol17symbol_sql_cmp_lt
FNDA:0,_RNvNtCs5bUMDJqkv9q_12wp_condition10sql_symbol17symbol_sql_cmp_ne
FNDA:0,_RNvNtCs5bUMDJqkv9q_12wp_condition10sql_symbol19symbol_sql_logic_or
FNDA:0,_RNvNtCs5bUMDJqkv9q_12wp_condition10sql_symbol20symbol_sql_logic_and
FNDA:0,_RNvNtCs5bUMDJqkv9q_12wp_condition10sql_symbol20symbol_sql_logic_not
FNDA:0,_RNvXNtCs5bUMDJqkv9q_12wp_condition10sql_symbolNtNtCsjit0JYdlpo8_9orion_exp8operator13LogicOperatorINtNtCsaNl6UpbT7bw_4core7convert4FromNtB2_13SQLogicSymbolE4from
FNF:12
FNH:7
DA:9,71
DA:10,71
DA:11,71
DA:12,71
DA:13,71
DA:14,71
DA:15,71
DA:16,71
DA:17,29
DA:18,71
DA:19,42
DA:20,42
DA:21,42
DA:22,42
DA:23,42
DA:24,42
DA:25,42
DA:26,42
DA:27,0
DA:28,42
DA:29,40
DA:30,40
DA:31,40
DA:32,40
DA:33,40
DA:34,40
DA:35,40
DA:36,40
DA:37,2
DA:38,40
DA:40,38
DA:41,38
DA:42,38
DA:43,38
DA:44,38
DA:45,38
DA:46,38
DA:47,38
DA:48,1
DA:49,38
DA:51,42
DA:52,42
DA:53,42
DA:54,42
DA:55,42
DA:56,42
DA:57,42
DA:58,42
DA:59,2
DA:60,42
DA:62,38
DA:63,38
DA:64,38
DA:65,38
DA:66,38
DA:67,38
DA:68,38
DA:69,38
DA:70,0
DA:71,38
DA:72,71
DA:73,71
DA:74,71
DA:75,71
DA:76,71
DA:77,71
DA:78,71
DA:79,71
DA:80,71
DA:81,71
DA:82,71
DA:92,0
DA:93,0
DA:94,0
DA:95,0
DA:96,0
DA:98,0
DA:101,0
DA:102,0
DA:103,0
DA:104,0
DA:105,0
DA:106,0
DA:107,0
DA:108,0
DA:109,0
DA:110,0
DA:111,0
DA:112,0
DA:113,0
DA:114,0
DA:115,0
DA:116,0
DA:117,0
DA:118,0
DA:119,0
DA:120,0
DA:121,0
DA:122,0
DA:123,0
DA:124,0
DA:125,0
DA:126,0
DA:127,0
DA:128,0
DA:129,0
DA:130,0
DA:132,0
DA:133,0
DA:134,0
DA:135,0
DA:136,0
DA:137,0
DA:138,0
DA:139,0
BRF:0
BRH:0
LF:115
LH:69
end_of_record
SF:/Users/zwk/src_code/wp-labs/wp-motor/crates/wp-config/src/buildin/file.rs
FN:27,_RNvMNtNtCs48GgPJaqr2Q_9wp_config7buildin4fileNtB2_12FileSinkConf7use_cli
FN:65,_RNvXs0_NtNtCs48GgPJaqr2Q_9wp_config7buildin4fileNtB5_12FileSinkConfNtNtNtB9_6loader6traits12ConfigLoader13load_from_str
FN:61,_RNvXs0_NtNtCs48GgPJaqr2Q_9wp_config7buildin4fileNtB5_12FileSinkConfNtNtNtB9_6loader6traits12ConfigLoader16config_type_name
FN:76,_RNvXs0_NtNtCs48GgPJaqr2Q_9wp_config7buildin4fileNtB5_12FileSinkConfNtNtNtB9_6loader6traits12ConfigLoader8validate
FN:35,_RNvXs_NtNtCs48GgPJaqr2Q_9wp_config7buildin4fileNtB4_12FileSinkConfNtNtCsg0PsmjmNqSl_12wp_conf_base9structure8Validate8validate
FN:18,_RINvMNtNtCs48GgPJaqr2Q_9wp_config7buildin4fileNtB3_12FileSinkConf3newpEB7_
FN:22,_RINvMNtNtCs48GgPJaqr2Q_9wp_config7buildin4fileNtB3_12FileSinkConf8new_pathpEB7_
FN:67,_RNCNvXs0_NtNtCs48GgPJaqr2Q_9wp_config7buildin4fileNtB7_12FileSinkConfNtNtNtBb_6loader6traits12ConfigLoader13load_from_str0Bb_
FN:46,_RNCNvXs_NtNtCs48GgPJaqr2Q_9wp_config7buildin4fileNtB6_12FileSinkConfNtNtCsg0PsmjmNqSl_12wp_conf_base9structure8Validate8validate0Ba_
FN:67,_RNCNvXs0_NtNtCsiL6gS0SCXXG_9wp_config7buildin4fileNtB7_12FileSinkConfNtNtNtBb_6loader6traits12ConfigLoader13load_from_str0Bb_
FN:46,_RNCNvXs_NtNtCsiL6gS0SCXXG_9wp_config7buildin4fileNtB6_12FileSinkConfNtNtCsg0PsmjmNqSl_12wp_conf_base9structure8Validate8validate0Ba_
FN:89,_RNvNtNtNtCsiL6gS0SCXXG_9wp_config7buildin4file5testss_32config_loader_file_sink_from_str
FN:99,_RNvNtNtNtCsiL6gS0SCXXG_9wp_config7buildin4file5testss_33config_loader_file_sink_from_path
FN:114,_RNvNtNtNtCsiL6gS0SCXXG_9wp_config7buildin4file5testss_34config_loader_file_sink_validation
FN:18,_RINvMNtNtCsiL6gS0SCXXG_9wp_config7buildin4fileNtB3_12FileSinkConf3newpEB7_
FN:22,_RINvMNtNtCsiL6gS0SCXXG_9wp_config7buildin4fileNtB3_12FileSinkConf8new_pathpEB7_
FN:27,_RNvMNtNtCsiL6gS0SCXXG_9wp_config7buildin4fileNtB2_12FileSinkConf7use_cli
FN:65,_RNvXs0_NtNtCsiL6gS0SCXXG_9wp_config7buildin4fileNtB5_12FileSinkConfNtNtNtB9_6loader6traits12ConfigLoader13load_from_str
FN:61,_RNvXs0_NtNtCsiL6gS0SCXXG_9wp_config7buildin4fileNtB5_12FileSinkConfNtNtNtB9_6loader6traits12ConfigLoader16config_type_name
FN:76,_RNvXs0_NtNtCsiL6gS0SCXXG_9wp_config7buildin4fileNtB5_12FileSinkConfNtNtNtB9_6loader6traits12ConfigLoader8validate
FN:35,_RNvXs_NtNtCsiL6gS0SCXXG_9wp_config7buildin4fileNtB4_12FileSinkConfNtNtCsg0PsmjmNqSl_12wp_conf_base9structure8Validate8validate
FNDA:0,_RNvMNtNtCs48GgPJaqr2Q_9wp_config7buildin4fileNtB2_12FileSinkConf7use_cli
FNDA:0,_RNvXs0_NtNtCs48GgPJaqr2Q_9wp_config7buildin4fileNtB5_12FileSinkConfNtNtNtB9_6loader6traits12ConfigLoader13load_from_str
FNDA:0,_RNvXs0_NtNtCs48GgPJaqr2Q_9wp_config7buildin4fileNtB5_12FileSinkConfNtNtNtB9_6loader6traits12ConfigLoader16config_type_name
FNDA:0,_RNvXs0_NtNtCs48GgPJaqr2Q_9wp_config7buildin4fileNtB5_12FileSinkConfNtNtNtB9_6loader6traits12ConfigLoader8validate
FNDA:0,_RNvXs_NtNtCs48GgPJaqr2Q_9wp_config7buildin4fileNtB4_12FileSinkConfNtNtCsg0PsmjmNqSl_12wp_conf_base9structure8Validate8validate
FNDA:0,_RINvMNtNtCs48GgPJaqr2Q_9wp_config7buildin4fileNtB3_12FileSinkConf3newpEB7_
FNDA:0,_RINvMNtNtCs48GgPJaqr2Q_9wp_config7buildin4fileNtB3_12FileSinkConf8new_pathpEB7_
FNDA:0,_RNCNvXs0_NtNtCs48GgPJaqr2Q_9wp_config7buildin4fileNtB7_12FileSinkConfNtNtNtBb_6loader6traits12ConfigLoader13load_from_str0Bb_
FNDA:0,_RNCNvXs_NtNtCs48GgPJaqr2Q_9wp_config7buildin4fileNtB6_12FileSinkConfNtNtCsg0PsmjmNqSl_12wp_conf_base9structure8Validate8validate0Ba_
FNDA:0,_RNCNvXs0_NtNtCsiL6gS0SCXXG_9wp_config7buildin4fileNtB7_12FileSinkConfNtNtNtBb_6loader6traits12ConfigLoader13load_from_str0Bb_
FNDA:0,_RNCNvXs_NtNtCsiL6gS0SCXXG_9wp_config7buildin4fileNtB6_12FileSinkConfNtNtCsg0PsmjmNqSl_12wp_conf_base9structure8Validate8validate0Ba_
FNDA:1,_RNvNtNtNtCsiL6gS0SCXXG_9wp_config7buildin4file5testss_32config_loader_file_sink_from_str
FNDA:1,_RNvNtNtNtCsiL6gS0SCXXG_9wp_config7buildin4file5testss_33config_loader_file_sink_from_path
FNDA:1,_RNvNtNtNtCsiL6gS0SCXXG_9wp_config7buildin4file5testss_34config_loader_file_sink_validation
FNDA:0,_RINvMNtNtCsiL6gS0SCXXG_9wp_config7buildin4fileNtB3_12FileSinkConf3newpEB7_
FNDA:0,_RINvMNtNtCsiL6gS0SCXXG_9wp_config7buildin4fileNtB3_12FileSinkConf8new_pathpEB7_
FNDA:0,_RNvMNtNtCsiL6gS0SCXXG_9wp_config7buildin4fileNtB2_12FileSinkConf7use_cli
FNDA:3,_RNvXs0_NtNtCsiL6gS0SCXXG_9wp_config7buildin4fileNtB5_12FileSinkConfNtNtNtB9_6loader6traits12ConfigLoader13load_from_str
FNDA:0,_RNvXs0_NtNtCsiL6gS0SCXXG_9wp_config7buildin4fileNtB5_12FileSinkConfNtNtNtB9_6loader6traits12ConfigLoader16config_type_name
FNDA:2,_RNvXs0_NtNtCsiL6gS0SCXXG_9wp_config7buildin4fileNtB5_12FileSinkConfNtNtNtB9_6loader6traits12ConfigLoader8validate
FNDA:2,_RNvXs_NtNtCsiL6gS0SCXXG_9wp_config7buildin4fileNtB4_12FileSinkConfNtNtCsg0PsmjmNqSl_12wp_conf_base9structure8Validate8validate
FNF:12
FNH:6
DA:18,0
DA:19,0
DA:20,0
DA:22,0
DA:23,0
DA:24,0
DA:25,0
DA:26,0
DA:27,0
DA:28,0
DA:29,0
DA:30,0
DA:31,0
DA:35,2
DA:36,2
DA:37,1
DA:38,1
DA:39,1
DA:40,1
DA:41,1
DA:42,1
DA:43,1
DA:44,1
DA:46,0
DA:47,0
DA:48,0
DA:49,0
DA:50,0
DA:51,1
DA:52,1
DA:53,2
DA:61,0
DA:62,0
DA:63,0
DA:65,3
DA:67,3
DA:68,0
DA:69,0
DA:70,0
DA:71,0
DA:73,3
DA:74,3
DA:76,2
DA:78,2
DA:79,2
DA:89,1
DA:90,1
DA:91,1
DA:93,1
DA:94,1
DA:95,1
DA:96,1
DA:99,1
DA:103,1
DA:104,1
DA:106,1
DA:108,1
DA:109,1
DA:110,1
DA:111,1
DA:114,1
DA:115,1
DA:119,1
DA:120,1
DA:122,1
DA:124,1
DA:125,1
BRF:0
BRH:0
LF:71
LH:42
end_of_record
SF:/Users/zwk/src_code/wp-labs/wp-motor/crates/wp-config/src/buildin/syslog.rs
FN:28,_RNCNvMNtNtCs48GgPJaqr2Q_9wp_config7buildin6syslogNtB4_14SyslogSinkConf17resolved_app_name0B8_
FN:30,_RNCNvMNtNtCs48GgPJaqr2Q_9wp_config7buildin6syslogNtB4_14SyslogSinkConf17resolved_app_names0_0B8_
FN:31,_RNCNvMNtNtCs48GgPJaqr2Q_9wp_config7buildin6syslogNtB4_14SyslogSinkConf17resolved_app_names1_0B8_
FN:29,_RNCNvMNtNtCs48GgPJaqr2Q_9wp_config7buildin6syslogNtB4_14SyslogSinkConf17resolved_app_names_0B8_
FN:116,_RNCNvXs2_NtNtCs48GgPJaqr2Q_9wp_config7buildin6syslogNtB7_14SyslogSinkConfNtNtNtBb_6loader6traits12ConfigLoader13load_from_str0Bb_
FN:134,_RNCNvXs3_NtNtCs48GgPJaqr2Q_9wp_config7buildin6syslogNtB7_16SyslogSourceConfNtNtNtBb_6loader6traits12ConfigLoader13load_from_str0Bb_
FN:25,_RNvMNtNtCs48GgPJaqr2Q_9wp_config7buildin6syslogNtB2_14SyslogSinkConf17resolved_app_name
FN:21,_RNvMNtNtCs48GgPJaqr2Q_9wp_config7buildin6syslogNtB2_14SyslogSinkConf8addr_str
FN:71,_RNvMs0_NtNtCs48GgPJaqr2Q_9wp_config7buildin6syslogNtB5_16SyslogSourceConf22tcp_read_bytes_default
FN:75,_RNvMs0_NtNtCs48GgPJaqr2Q_9wp_config7buildin6syslogNtB5_16SyslogSourceConf23udp_recv_buffer_default
FN:68,_RNvMs0_NtNtCs48GgPJaqr2Q_9wp_config7buildin6syslogNtB5_16SyslogSourceConf8addr_str
FN:81,_RNvXs1_NtNtCs48GgPJaqr2Q_9wp_config7buildin6syslogNtB5_16SyslogSourceConfNtNtCsg0PsmjmNqSl_12wp_conf_base9structure8Validate8validate
FN:115,_RNvXs2_NtNtCs48GgPJaqr2Q_9wp_config7buildin6syslogNtB5_14SyslogSinkConfNtNtNtB9_6loader6traits12ConfigLoader13load_from_str
FN:111,_RNvXs2_NtNtCs48GgPJaqr2Q_9wp_config7buildin6syslogNtB5_14SyslogSinkConfNtNtNtB9_6loader6traits12ConfigLoader16config_type_name
FN:133,_RNvXs3_NtNtCs48GgPJaqr2Q_9wp_config7buildin6syslogNtB5_16SyslogSourceConfNtNtNtB9_6loader6traits12ConfigLoader13load_from_str
FN:129,_RNvXs3_NtNtCs48GgPJaqr2Q_9wp_config7buildin6syslogNtB5_16SyslogSourceConfNtNtNtB9_6loader6traits12ConfigLoader16config_type_name
FN:143,_RNvXs3_NtNtCs48GgPJaqr2Q_9wp_config7buildin6syslogNtB5_16SyslogSourceConfNtNtNtB9_6loader6traits12ConfigLoader8validate
FN:53,_RNvXs_NtNtCs48GgPJaqr2Q_9wp_config7buildin6syslogNtB4_16SyslogSourceConfNtNtCsaNl6UpbT7bw_4core7default7Default7default
FN:116,_RNCNvXs2_NtNtCsiL6gS0SCXXG_9wp_config7buildin6syslogNtB7_14SyslogSinkConfNtNtNtBb_6loader6traits12ConfigLoader13load_from_str0Bb_
FN:134,_RNCNvXs3_NtNtCsiL6gS0SCXXG_9wp_config7buildin6syslogNtB7_16SyslogSourceConfNtNtNtBb_6loader6traits12ConfigLoader13load_from_str0Bb_
FN:28,_RNCNvMNtNtCsiL6gS0SCXXG_9wp_config7buildin6syslogNtB4_14SyslogSinkConf17resolved_app_name0B8_
FN:30,_RNCNvMNtNtCsiL6gS0SCXXG_9wp_config7buildin6syslogNtB4_14SyslogSinkConf17resolved_app_names0_0B8_
FN:31,_RNCNvMNtNtCsiL6gS0SCXXG_9wp_config7buildin6syslogNtB4_14SyslogSinkConf17resolved_app_names1_0B8_
FN:29,_RNCNvMNtNtCsiL6gS0SCXXG_9wp_config7buildin6syslogNtB4_14SyslogSinkConf17resolved_app_names_0B8_
FN:25,_RNvMNtNtCsiL6gS0SCXXG_9wp_config7buildin6syslogNtB2_14SyslogSinkConf17resolved_app_name
FN:21,_RNvMNtNtCsiL6gS0SCXXG_9wp_config7buildin6syslogNtB2_14SyslogSinkConf8addr_str
FN:68,_RNvMs0_NtNtCsiL6gS0SCXXG_9wp_config7buildin6syslogNtB5_16SyslogSourceConf8addr_str
FN:53,_RNvXs_NtNtCsiL6gS0SCXXG_9wp_config7buildin6syslogNtB4_16SyslogSourceConfNtNtCsaNl6UpbT7bw_4core7default7Default7default
FN:155,_RNvNtNtNtCsiL6gS0SCXXG_9wp_config7buildin6syslog5testss_34config_loader_syslog_sink_from_str
FN:170,_RNvNtNtNtCsiL6gS0SCXXG_9wp_config7buildin6syslog5testss_35config_loader_syslog_sink_from_path
FN:196,_RNvNtNtNtCsiL6gS0SCXXG_9wp_config7buildin6syslog5testss_36config_loader_syslog_source_from_str
FN:219,_RNvNtNtNtCsiL6gS0SCXXG_9wp_config7buildin6syslog5testss_38config_loader_syslog_source_validation
FN:242,_RNvNtNtNtCsiL6gS0SCXXG_9wp_config7buildin6syslog5testss_49config_loader_syslog_source_udp_buffer_validation
FN:71,_RNvMs0_NtNtCsiL6gS0SCXXG_9wp_config7buildin6syslogNtB5_16SyslogSourceConf22tcp_read_bytes_default
FN:75,_RNvMs0_NtNtCsiL6gS0SCXXG_9wp_config7buildin6syslogNtB5_16SyslogSourceConf23udp_recv_buffer_default
FN:81,_RNvXs1_NtNtCsiL6gS0SCXXG_9wp_config7buildin6syslogNtB5_16SyslogSourceConfNtNtCsg0PsmjmNqSl_12wp_conf_base9structure8Validate8validate
FN:115,_RNvXs2_NtNtCsiL6gS0SCXXG_9wp_config7buildin6syslogNtB5_14SyslogSinkConfNtNtNtB9_6loader6traits12ConfigLoader13load_from_str
FN:111,_RNvXs2_NtNtCsiL6gS0SCXXG_9wp_config7buildin6syslogNtB5_14SyslogSinkConfNtNtNtB9_6loader6traits12ConfigLoader16config_type_name
FN:133,_RNvXs3_NtNtCsiL6gS0SCXXG_9wp_config7buildin6syslogNtB5_16SyslogSourceConfNtNtNtB9_6loader6traits12ConfigLoader13load_from_str
FN:129,_RNvXs3_NtNtCsiL6gS0SCXXG_9wp_config7buildin6syslogNtB5_16SyslogSourceConfNtNtNtB9_6loader6traits12ConfigLoader16config_type_name
FN:143,_RNvXs3_NtNtCsiL6gS0SCXXG_9wp_config7buildin6syslogNtB5_16SyslogSourceConfNtNtNtB9_6loader6traits12ConfigLoader8validate
FNDA:0,_RNCNvMNtNtCs48GgPJaqr2Q_9wp_config7buildin6syslogNtB4_14SyslogSinkConf17resolved_app_name0B8_
FNDA:0,_RNCNvMNtNtCs48GgPJaqr2Q_9wp_config7buildin6syslogNtB4_14SyslogSinkConf17resolved_app_names0_0B8_
FNDA:0,_RNCNvMNtNtCs48GgPJaqr2Q_9wp_config7buildin6syslogNtB4_14SyslogSinkConf17resolved_app_names1_0B8_
FNDA:0,_RNCNvMNtNtCs48GgPJaqr2Q_9wp_config7buildin6syslogNtB4_14SyslogSinkConf17resolved_app_names_0B8_
FNDA:0,_RNCNvXs2_NtNtCs48GgPJaqr2Q_9wp_config7buildin6syslogNtB7_14SyslogSinkConfNtNtNtBb_6loader6traits12ConfigLoader13load_from_str0Bb_
FNDA:0,_RNCNvXs3_NtNtCs48GgPJaqr2Q_9wp_config7buildin6syslogNtB7_16SyslogSourceConfNtNtNtBb_6loader6traits12ConfigLoader13load_from_str0Bb_
FNDA:0,_RNvMNtNtCs48GgPJaqr2Q_9wp_config7buildin6syslogNtB2_14SyslogSinkConf17resolved_app_name
FNDA:0,_RNvMNtNtCs48GgPJaqr2Q_9wp_config7buildin6syslogNtB2_14SyslogSinkConf8addr_str
FNDA:0,_RNvMs0_NtNtCs48GgPJaqr2Q_9wp_config7buildin6syslogNtB5_16SyslogSourceConf22tcp_read_bytes_default
FNDA:0,_RNvMs0_NtNtCs48GgPJaqr2Q_9wp_config7buildin6syslogNtB5_16SyslogSourceConf23udp_recv_buffer_default
FNDA:0,_RNvMs0_NtNtCs48GgPJaqr2Q_9wp_config7buildin6syslogNtB5_16SyslogSourceConf8addr_str
FNDA:0,_RNvXs1_NtNtCs48GgPJaqr2Q_9wp_config7buildin6syslogNtB5_16SyslogSourceConfNtNtCsg0PsmjmNqSl_12wp_conf_base9structure8Validate8validate
FNDA:0,_RNvXs2_NtNtCs48GgPJaqr2Q_9wp_config7buildin6syslogNtB5_14SyslogSinkConfNtNtNtB9_6loader6traits12ConfigLoader13load_from_str
FNDA:0,_RNvXs2_NtNtCs48GgPJaqr2Q_9wp_config7buildin6syslogNtB5_14SyslogSinkConfNtNtNtB9_6loader6traits12ConfigLoader16config_type_name
FNDA:0,_RNvXs3_NtNtCs48GgPJaqr2Q_9wp_config7buildin6syslogNtB5_16SyslogSourceConfNtNtNtB9_6loader6traits12ConfigLoader13load_from_str
FNDA:0,_RNvXs3_NtNtCs48GgPJaqr2Q_9wp_config7buildin6syslogNtB5_16SyslogSourceConfNtNtNtB9_6loader6traits12ConfigLoader16config_type_name
FNDA:0,_RNvXs3_NtNtCs48GgPJaqr2Q_9wp_config7buildin6syslogNtB5_16SyslogSourceConfNtNtNtB9_6loader6traits12ConfigLoader8validate
FNDA:0,_RNvXs_NtNtCs48GgPJaqr2Q_9wp_config7buildin6syslogNtB4_16SyslogSourceConfNtNtCsaNl6UpbT7bw_4core7default7Default7default
FNDA:0,_RNCNvXs2_NtNtCsiL6gS0SCXXG_9wp_config7buildin6syslogNtB7_14SyslogSinkConfNtNtNtBb_6loader6traits12ConfigLoader13load_from_str0Bb_
FNDA:0,_RNCNvXs3_NtNtCsiL6gS0SCXXG_9wp_config7buildin6syslogNtB7_16SyslogSourceConfNtNtNtBb_6loader6traits12ConfigLoader13load_from_str0Bb_
FNDA:0,_RNCNvMNtNtCsiL6gS0SCXXG_9wp_config7buildin6syslogNtB4_14SyslogSinkConf17resolved_app_name0B8_
FNDA:0,_RNCNvMNtNtCsiL6gS0SCXXG_9wp_config7buildin6syslogNtB4_14SyslogSinkConf17resolved_app_names0_0B8_
FNDA:0,_RNCNvMNtNtCsiL6gS0SCXXG_9wp_config7buildin6syslogNtB4_14SyslogSinkConf17resolved_app_names1_0B8_
FNDA:0,_RNCNvMNtNtCsiL6gS0SCXXG_9wp_config7buildin6syslogNtB4_14SyslogSinkConf17resolved_app_names_0B8_
FNDA:0,_RNvMNtNtCsiL6gS0SCXXG_9wp_config7buildin6syslogNtB2_14SyslogSinkConf17resolved_app_name
FNDA:0,_RNvMNtNtCsiL6gS0SCXXG_9wp_config7buildin6syslogNtB2_14SyslogSinkConf8addr_str
FNDA:0,_RNvMs0_NtNtCsiL6gS0SCXXG_9wp_config7buildin6syslogNtB5_16SyslogSourceConf8addr_str
FNDA:0,_RNvXs_NtNtCsiL6gS0SCXXG_9wp_config7buildin6syslogNtB4_16SyslogSourceConfNtNtCsaNl6UpbT7bw_4core7default7Default7default
FNDA:1,_RNvNtNtNtCsiL6gS0SCXXG_9wp_config7buildin6syslog5testss_34config_loader_syslog_sink_from_str
FNDA:1,_RNvNtNtNtCsiL6gS0SCXXG_9wp_config7buildin6syslog5testss_35config_loader_syslog_sink_from_path
FNDA:1,_RNvNtNtNtCsiL6gS0SCXXG_9wp_config7buildin6syslog5testss_36config_loader_syslog_source_from_str
FNDA:1,_RNvNtNtNtCsiL6gS0SCXXG_9wp_config7buildin6syslog5testss_38config_loader_syslog_source_validation
FNDA:1,_RNvNtNtNtCsiL6gS0SCXXG_9wp_config7buildin6syslog5testss_49config_loader_syslog_source_udp_buffer_validation
FNDA:3,_RNvMs0_NtNtCsiL6gS0SCXXG_9wp_config7buildin6syslogNtB5_16SyslogSourceConf22tcp_read_bytes_default
FNDA:3,_RNvMs0_NtNtCsiL6gS0SCXXG_9wp_config7buildin6syslogNtB5_16SyslogSourceConf23udp_recv_buffer_default
FNDA:2,_RNvXs1_NtNtCsiL6gS0SCXXG_9wp_config7buildin6syslogNtB5_16SyslogSourceConfNtNtCsg0PsmjmNqSl_12wp_conf_base9structure8Validate8validate
FNDA:2,_RNvXs2_NtNtCsiL6gS0SCXXG_9wp_config7buildin6syslogNtB5_14SyslogSinkConfNtNtNtB9_6loader6traits12ConfigLoader13load_from_str
FNDA:0,_RNvXs2_NtNtCsiL6gS0SCXXG_9wp_config7buildin6syslogNtB5_14SyslogSinkConfNtNtNtB9_6loader6traits12ConfigLoader16config_type_name
FNDA:3,_RNvXs3_NtNtCsiL6gS0SCXXG_9wp_config7buildin6syslogNtB5_16SyslogSourceConfNtNtNtB9_6loader6traits12ConfigLoader13load_from_str
FNDA:0,_RNvXs3_NtNtCsiL6gS0SCXXG_9wp_config7buildin6syslogNtB5_16SyslogSourceConfNtNtNtB9_6loader6traits12ConfigLoader16config_type_name
FNDA:2,_RNvXs3_NtNtCsiL6gS0SCXXG_9wp_config7buildin6syslogNtB5_16SyslogSourceConfNtNtNtB9_6loader6traits12ConfigLoader8validate
FNF:23
FNH:11
DA:21,0
DA:22,0
DA:23,0
DA:25,0
DA:26,0
DA:27,0
DA:28,0
DA:29,0
DA:30,0
DA:31,0
DA:32,0
DA:53,0
DA:54,0
DA:55,0
DA:56,0
DA:57,0
DA:58,0
DA:59,0
DA:60,0
DA:61,0
DA:62,0
DA:63,0
DA:64,0
DA:68,0
DA:69,0
DA:70,0
DA:71,3
DA:72,3
DA:73,3
DA:75,3
DA:76,3
DA:77,3
DA:81,2
DA:82,2
DA:83,1
DA:84,1
DA:85,1
DA:86,1
DA:87,1
DA:88,0
DA:89,0
DA:90,0
DA:91,1
DA:92,1
DA:93,0
DA:94,0
DA:95,0
DA:96,1
DA:97,1
DA:98,1
DA:99,1
DA:100,1
DA:101,0
DA:102,0
DA:103,2
DA:111,0
DA:112,0
DA:113,0
DA:115,2
DA:116,2
DA:117,0
DA:118,0
DA:119,0
DA:120,0
DA:122,2
DA:123,2
DA:129,0
DA:130,0
DA:131,0
DA:133,3
DA:134,3
DA:135,0
DA:136,0
DA:137,0
DA:138,0
DA:140,3
DA:141,3
DA:143,2
DA:144,2
DA:145,2
DA:155,1
DA:156,1
DA:157,1
DA:158,1
DA:159,1
DA:160,1
DA:161,1
DA:163,1
DA:164,1
DA:165,1
DA:166,1
DA:167,1
DA:170,1
DA:174,1
DA:175,1
DA:176,1
DA:177,1
DA:178,1
DA:179,1
DA:180,1
DA:181,1
DA:182,1
DA:184,1
DA:186,1
DA:188,1
DA:189,1
DA:190,1
DA:191,1
DA:192,1
DA:193,1
DA:196,1
DA:197,1
DA:198,1
DA:199,1
DA:200,1
DA:201,1
DA:202,1
DA:203,1
DA:204,1
DA:205,1
DA:207,1
DA:208,1
DA:209,1
DA:210,1
DA:211,1
DA:212,1
DA:214,1
DA:216,1
DA:219,1
DA:223,1
DA:224,1
DA:225,1
DA:226,1
DA:227,1
DA:228,1
DA:229,1
DA:230,1
DA:231,1
DA:232,1
DA:234,1
DA:236,1
DA:238,1
DA:239,1
DA:242,1
DA:246,1
DA:247,1
DA:248,1
DA:249,1
DA:250,1
DA:251,1
DA:252,1
DA:253,1
DA:254,1
DA:255,1
DA:256,1
DA:258,1
DA:260,1
DA:262,1
DA:263,1
BRF:0
BRH:0
LF:167
LH:111
end_of_record
SF:/Users/zwk/src_code/wp-labs/wp-motor/crates/wp-config/src/common/io_locate.rs
FN:6,_RNvNtNtCs48GgPJaqr2Q_9wp_config6common9io_locate24find_connectors_base_dir
FN:6,_RNvNtNtCsiL6gS0SCXXG_9wp_config6common9io_locate24find_connectors_base_dir
FNDA:87,_RNvNtNtCs48GgPJaqr2Q_9wp_config6common9io_locate24find_connectors_base_dir
FNDA:4,_RNvNtNtCsiL6gS0SCXXG_9wp_config6common9io_locate24find_connectors_base_dir
FNF:1
FNH:1
DA:6,91
DA:8,91
DA:9,82
DA:11,9
DA:14,91
DA:15,71
DA:17,20
DA:19,231
DA:20,231
DA:21,231
DA:22,88
DA:23,143
DA:24,143
DA:25,3
DA:26,140
DA:28,3
DA:29,91
BRF:0
BRH:0
LF:17
LH:17
end_of_record
SF:/Users/zwk/src_code/wp-labs/wp-motor/crates/wp-config/src/cond/parse.rs
FN:13,_RNvXNtNtCs48GgPJaqr2Q_9wp_config4cond5parseNtB2_17FieldDataOperatorINtNtCse9Z851cb6K4_12wp_condition4cond9CmpParserINtNtNtNtCseivYNzHQkxG_13wp_model_core5model4data5field5FieldNtNtNtB1W_5types5value5ValueENtNtNtCsjit0JYdlpo8_9orion_exp8operator7symbols10RustSymbolE7cmp_exp
FN:271,_RNvNtNtNtCsiL6gS0SCXXG_9wp_config4cond5parse5tests12ignore_space
FN:257,_RNvNtNtNtCsiL6gS0SCXXG_9wp_config4cond5parse5tests13assert_eq_exp
FN:266,_RNvNtNtNtCsiL6gS0SCXXG_9wp_config4cond5parse5tests17assert_eq_exp_str
FN:216,_RNvNtNtNtCsiL6gS0SCXXG_9wp_config4cond5parse5testss_15test_express_x1
FN:233,_RNvNtNtNtCsiL6gS0SCXXG_9wp_config4cond5parse5testss_15test_express_x2
FN:88,_RNvNtNtNtCsiL6gS0SCXXG_9wp_config4cond5parse5testss_16test_parse_value
FN:107,_RNvNtNtNtCsiL6gS0SCXXG_9wp_config4cond5parse5testss_18test_parse_express
FN:180,_RNvNtNtNtCsiL6gS0SCXXG_9wp_config4cond5parse5testss_20test_logic_express_1
FN:150,_RNvNtNtNtCsiL6gS0SCXXG_9wp_config4cond5parse5testss_21test_logic_express_or
FN:202,_RNvNtNtNtCsiL6gS0SCXXG_9wp_config4cond5parse5testss_22test_logic_express_not
FN:13,_RNvXNtNtCsiL6gS0SCXXG_9wp_config4cond5parseNtB2_17FieldDataOperatorINtNtCse9Z851cb6K4_12wp_condition4cond9CmpParserINtNtNtNtCseivYNzHQkxG_13wp_model_core5model4data5field5FieldNtNtNtB1W_5types5value5ValueENtNtNtCsjit0JYdlpo8_9orion_exp8operator7symbols10RustSymbolE7cmp_exp
FNDA:3,_RNvXNtNtCs48GgPJaqr2Q_9wp_config4cond5parseNtB2_17FieldDataOperatorINtNtCse9Z851cb6K4_12wp_condition4cond9CmpParserINtNtNtNtCseivYNzHQkxG_13wp_model_core5model4data5field5FieldNtNtNtB1W_5types5value5ValueENtNtNtCsjit0JYdlpo8_9orion_exp8operator7symbols10RustSymbolE7cmp_exp
FNDA:18,_RNvNtNtNtCsiL6gS0SCXXG_9wp_config4cond5parse5tests12ignore_space
FNDA:1,_RNvNtNtNtCsiL6gS0SCXXG_9wp_config4cond5parse5tests13assert_eq_exp
FNDA:9,_RNvNtNtNtCsiL6gS0SCXXG_9wp_config4cond5parse5tests17assert_eq_exp_str
FNDA:1,_RNvNtNtNtCsiL6gS0SCXXG_9wp_config4cond5parse5testss_15test_express_x1
FNDA:1,_RNvNtNtNtCsiL6gS0SCXXG_9wp_config4cond5parse5testss_15test_express_x2
FNDA:1,_RNvNtNtNtCsiL6gS0SCXXG_9wp_config4cond5parse5testss_16test_parse_value
FNDA:1,_RNvNtNtNtCsiL6gS0SCXXG_9wp_config4cond5parse5testss_18test_parse_express
FNDA:1,_RNvNtNtNtCsiL6gS0SCXXG_9wp_config4cond5parse5testss_20test_logic_express_1
FNDA:1,_RNvNtNtNtCsiL6gS0SCXXG_9wp_config4cond5parse5testss_21test_logic_express_or
FNDA:1,_RNvNtNtNtCsiL6gS0SCXXG_9wp_config4cond5parse5testss_22test_logic_express_not
FNDA:67,_RNvXNtNtCsiL6gS0SCXXG_9wp_config4cond5parseNtB2_17FieldDataOperatorINtNtCse9Z851cb6K4_12wp_condition4cond9CmpParserINtNtNtNtCseivYNzHQkxG_13wp_model_core5model4data5field5FieldNtNtNtB1W_5types5value5ValueENtNtNtCsjit0JYdlpo8_9orion_exp8operator7symbols10RustSymbolE7cmp_exp
FNF:11
FNH:11
DA:13,70
DA:17,70
DA:19,70
DA:20,70
DA:21,1
DA:22,1
DA:23,1
DA:24,1
DA:25,1
DA:26,1
DA:27,1
DA:29,1
DA:30,1
DA:31,1
DA:32,1
DA:33,1
DA:34,1
DA:36,1
DA:37,1
DA:38,1
DA:39,1
DA:40,1
DA:41,1
DA:42,1
DA:43,0
DA:44,0
DA:45,0
DA:46,69
DA:49,69
DA:50,69
DA:51,69
DA:52,69
DA:54,69
DA:55,69
DA:56,0
DA:58,0
DA:59,0
DA:60,0
DA:61,69
DA:62,69
DA:63,69
DA:64,69
DA:65,69
DA:67,69
DA:68,70
DA:88,1
DA:89,1
DA:90,1
DA:91,1
DA:92,1
DA:94,1
DA:95,1
DA:96,1
DA:97,1
DA:99,1
DA:100,1
DA:101,1
DA:102,1
DA:104,1
DA:105,1
DA:107,1
DA:108,1
DA:109,1
DA:110,1
DA:111,1
DA:112,1
DA:113,1
DA:115,1
DA:117,1
DA:118,1
DA:119,1
DA:120,1
DA:121,1
DA:122,1
DA:124,1
DA:126,1
DA:127,1
DA:128,1
DA:129,1
DA:130,1
DA:131,1
DA:133,1
DA:135,1
DA:136,1
DA:137,1
DA:138,1
DA:139,1
DA:140,1
DA:142,1
DA:144,1
DA:145,1
DA:146,1
DA:147,1
DA:148,1
DA:150,1
DA:151,1
DA:152,1
DA:153,1
DA:154,1
DA:156,1
DA:158,1
DA:159,1
DA:161,1
DA:163,1
DA:164,1
DA:166,1
DA:167,1
DA:168,1
DA:169,1
DA:170,1
DA:172,1
DA:174,1
DA:176,1
DA:177,1
DA:178,1
DA:180,1
DA:181,1
DA:182,1
DA:183,1
DA:184,1
DA:185,1
DA:187,1
DA:188,1
DA:189,1
DA:190,1
DA:191,1
DA:193,1
DA:194,1
DA:195,1
DA:196,1
DA:198,1
DA:199,1
DA:202,1
DA:203,1
DA:204,1
DA:205,1
DA:206,1
DA:208,1
DA:210,1
DA:211,1
DA:212,1
DA:213,1
DA:216,1
DA:217,1
DA:218,1
DA:219,1
DA:220,1
DA:221,1
DA:223,1
DA:224,1
DA:225,1
DA:226,1
DA:227,1
DA:229,1
DA:230,1
DA:233,1
DA:234,1
DA:235,1
DA:236,1
DA:237,1
DA:239,1
DA:240,1
DA:241,1
DA:242,1
DA:244,1
DA:245,1
DA:246,1
DA:247,1
DA:249,1
DA:250,1
DA:251,1
DA:252,1
DA:255,1
DA:256,1
DA:257,1
DA:258,1
DA:259,1
DA:260,1
DA:261,1
DA:262,1
DA:263,1
DA:264,1
DA:265,1
DA:266,9
DA:267,9
DA:268,9
DA:269,9
DA:270,9
DA:271,18
DA:272,18
DA:273,18
BRF:0
BRH:0
LF:191
LH:184
end_of_record
SF:/Users/zwk/src_code/wp-labs/wp-motor/crates/wp-config/src/cond/test.rs
FN:51,_RNvNtNtCsiL6gS0SCXXG_9wp_config4cond4test10test_crate
FN:79,_RNvNtNtCsiL6gS0SCXXG_9wp_config4cond4tests_10debug_test
FN:61,_RNvNtNtCsiL6gS0SCXXG_9wp_config4cond4tests_23test_express_exec_logic
FN:9,_RNvNtNtCsiL6gS0SCXXG_9wp_config4cond4tests_24test_express_exec_simple
FN:90,_RNvNtNtCsiL6gS0SCXXG_9wp_config4cond4tests_27test_isset_with_spaces_eval
FNDA:3,_RNvNtNtCsiL6gS0SCXXG_9wp_config4cond4test10test_crate
FNDA:1,_RNvNtNtCsiL6gS0SCXXG_9wp_config4cond4tests_10debug_test
FNDA:1,_RNvNtNtCsiL6gS0SCXXG_9wp_config4cond4tests_23test_express_exec_logic
FNDA:1,_RNvNtNtCsiL6gS0SCXXG_9wp_config4cond4tests_24test_express_exec_simple
FNDA:1,_RNvNtNtCsiL6gS0SCXXG_9wp_config4cond4tests_27test_isset_with_spaces_eval
FNF:5
FNH:5
DA:9,1
DA:10,1
DA:12,1
DA:13,1
DA:14,1
DA:16,1
DA:17,1
DA:18,1
DA:20,1
DA:21,1
DA:22,1
DA:24,1
DA:25,1
DA:26,1
DA:28,1
DA:29,1
DA:30,1
DA:32,1
DA:33,1
DA:34,1
DA:36,1
DA:37,1
DA:38,1
DA:40,1
DA:41,1
DA:42,1
DA:44,1
DA:45,1
DA:46,1
DA:48,1
DA:49,1
DA:51,3
DA:52,3
DA:53,3
DA:54,3
DA:55,3
DA:57,3
DA:58,3
DA:61,1
DA:62,1
DA:63,1
DA:64,1
DA:65,1
DA:67,1
DA:68,1
DA:69,1
DA:71,1
DA:72,1
DA:73,1
DA:74,1
DA:76,1
DA:77,1
DA:79,1
DA:80,1
DA:81,1
DA:82,1
DA:83,1
DA:84,1
DA:86,1
DA:87,1
DA:90,1
DA:92,1
DA:93,1
DA:95,1
DA:96,1
DA:98,1
DA:99,1
DA:100,1
DA:101,1
BRF:0
BRH:0
LF:69
LH:69
end_of_record
SF:/Users/zwk/src_code/wp-labs/wp-motor/crates/wp-config/src/connectors/defs.rs
FN:25,_RNCNvNtNtCs48GgPJaqr2Q_9wp_config10connectors4defs21param_value_from_toml0B7_
FN:39,_RNvNtNtCs48GgPJaqr2Q_9wp_config10connectors4defs18param_map_to_table
FN:11,_RNvNtNtCs48GgPJaqr2Q_9wp_config10connectors4defs21param_value_from_toml
FN:31,_RNvNtNtCs48GgPJaqr2Q_9wp_config10connectors4defs24param_map_from_table_ref
FN:40,_RNvNvNtNtCs48GgPJaqr2Q_9wp_config10connectors4defs18param_map_to_table4conv
FN:25,_RNCNvNtNtCsiL6gS0SCXXG_9wp_config10connectors4defs21param_value_from_toml0B7_
FN:39,_RNvNtNtCsiL6gS0SCXXG_9wp_config10connectors4defs18param_map_to_table
FN:11,_RNvNtNtCsiL6gS0SCXXG_9wp_config10connectors4defs21param_value_from_toml
FN:31,_RNvNtNtCsiL6gS0SCXXG_9wp_config10connectors4defs24param_map_from_table_ref
FN:40,_RNvNvNtNtCsiL6gS0SCXXG_9wp_config10connectors4defs18param_map_to_table4conv
FNDA:0,_RNCNvNtNtCs48GgPJaqr2Q_9wp_config10connectors4defs21param_value_from_toml0B7_
FNDA:83,_RNvNtNtCs48GgPJaqr2Q_9wp_config10connectors4defs18param_map_to_table
FNDA:35,_RNvNtNtCs48GgPJaqr2Q_9wp_config10connectors4defs21param_value_from_toml
FNDA:0,_RNvNtNtCs48GgPJaqr2Q_9wp_config10connectors4defs24param_map_from_table_ref
FNDA:300,_RNvNvNtNtCs48GgPJaqr2Q_9wp_config10connectors4defs18param_map_to_table4conv
FNDA:0,_RNCNvNtNtCsiL6gS0SCXXG_9wp_config10connectors4defs21param_value_from_toml0B7_
FNDA:0,_RNvNtNtCsiL6gS0SCXXG_9wp_config10connectors4defs18param_map_to_table
FNDA:0,_RNvNtNtCsiL6gS0SCXXG_9wp_config10connectors4defs21param_value_from_toml
FNDA:0,_RNvNtNtCsiL6gS0SCXXG_9wp_config10connectors4defs24param_map_from_table_ref
FNDA:0,_RNvNvNtNtCsiL6gS0SCXXG_9wp_config10connectors4defs18param_map_to_table4conv
FNF:5
FNH:3
DA:11,35
DA:12,35
DA:13,35
DA:14,0
DA:15,0
DA:16,0
DA:17,0
DA:18,0
DA:19,0
DA:20,0
DA:21,0
DA:23,0
DA:24,0
DA:25,0
DA:26,0
DA:29,35
DA:31,0
DA:32,0
DA:33,0
DA:34,0
DA:35,0
DA:36,0
DA:37,0
DA:39,83
DA:40,300
DA:41,300
DA:42,0
DA:43,45
DA:44,50
DA:45,50
DA:46,50
DA:47,0
DA:48,0
DA:49,0
DA:51,0
DA:53,0
DA:54,0
DA:56,0
DA:59,190
DA:60,15
DA:61,0
DA:62,0
DA:63,0
DA:64,0
DA:65,0
DA:66,0
DA:69,300
DA:70,83
DA:71,300
DA:72,300
DA:73,300
DA:74,83
DA:75,83
BRF:0
BRH:0
LF:54
LH:20
end_of_record
SF:/Users/zwk/src_code/wp-labs/wp-motor/crates/wp-config/src/connectors/params.rs
FN:60,_RNCNvNtNtCs48GgPJaqr2Q_9wp_config10connectors6params12merge_params0B7_
FN:51,_RNvNtNtCs48GgPJaqr2Q_9wp_config10connectors6params12merge_params
FN:60,_RNCNvNtNtCsiL6gS0SCXXG_9wp_config10connectors6params12merge_params0B7_
FN:139,_RNCNvNtNtNtCsiL6gS0SCXXG_9wp_config10connectors6params5testss_35merge_params_overwrites_base_values0B9_
FN:171,_RNCNvNtNtNtCsiL6gS0SCXXG_9wp_config10connectors6params5testss_39merge_params_handles_multiple_overrides0B9_
FN:173,_RNCNvNtNtNtCsiL6gS0SCXXG_9wp_config10connectors6params5testss_39merge_params_handles_multiple_overridess0_0B9_
FN:172,_RNCNvNtNtNtCsiL6gS0SCXXG_9wp_config10connectors6params5testss_39merge_params_handles_multiple_overridess_0B9_
FN:98,_RNCNvNtNtNtCsiL6gS0SCXXG_9wp_config10connectors6params5testss_40merge_params_allows_whitelisted_override0B9_
FN:100,_RNCNvNtNtNtCsiL6gS0SCXXG_9wp_config10connectors6params5testss_40merge_params_allows_whitelisted_overrides_0B9_
FN:190,_RNCNvNtNtNtCsiL6gS0SCXXG_9wp_config10connectors6params5testss_51merge_params_preserves_base_params_not_in_overrides0B9_
FN:193,_RNCNvNtNtNtCsiL6gS0SCXXG_9wp_config10connectors6params5testss_51merge_params_preserves_base_params_not_in_overridess0_0B9_
FN:191,_RNCNvNtNtNtCsiL6gS0SCXXG_9wp_config10connectors6params5testss_51merge_params_preserves_base_params_not_in_overridess_0B9_
FN:128,_RNvNtNtNtCsiL6gS0SCXXG_9wp_config10connectors6params5testss_35merge_params_overwrites_base_values
FN:158,_RNvNtNtNtCsiL6gS0SCXXG_9wp_config10connectors6params5testss_39merge_params_handles_multiple_overrides
FN:83,_RNvNtNtNtCsiL6gS0SCXXG_9wp_config10connectors6params5testss_40merge_params_allows_whitelisted_override
FN:146,_RNvNtNtNtCsiL6gS0SCXXG_9wp_config10connectors6params5testss_41merge_params_empty_overrides_returns_base
FN:106,_RNvNtNtNtCsiL6gS0SCXXG_9wp_config10connectors6params5testss_45merge_params_rejects_non_whitelisted_override
FN:177,_RNvNtNtNtCsiL6gS0SCXXG_9wp_config10connectors6params5testss_51merge_params_preserves_base_params_not_in_overrides
FN:51,_RNvNtNtCsiL6gS0SCXXG_9wp_config10connectors6params12merge_params
FNDA:47,_RNCNvNtNtCs48GgPJaqr2Q_9wp_config10connectors6params12merge_params0B7_
FNDA:19,_RNvNtNtCs48GgPJaqr2Q_9wp_config10connectors6params12merge_params
FNDA:7,_RNCNvNtNtCsiL6gS0SCXXG_9wp_config10connectors6params12merge_params0B7_
FNDA:1,_RNCNvNtNtNtCsiL6gS0SCXXG_9wp_config10connectors6params5testss_35merge_params_overwrites_base_values0B9_
FNDA:1,_RNCNvNtNtNtCsiL6gS0SCXXG_9wp_config10connectors6params5testss_39merge_params_handles_multiple_overrides0B9_
FNDA:1,_RNCNvNtNtNtCsiL6gS0SCXXG_9wp_config10connectors6params5testss_39merge_params_handles_multiple_overridess0_0B9_
FNDA:1,_RNCNvNtNtNtCsiL6gS0SCXXG_9wp_config10connectors6params5testss_39merge_params_handles_multiple_overridess_0B9_
FNDA:1,_RNCNvNtNtNtCsiL6gS0SCXXG_9wp_config10connectors6params5testss_40merge_params_allows_whitelisted_override0B9_
FNDA:1,_RNCNvNtNtNtCsiL6gS0SCXXG_9wp_config10connectors6params5testss_40merge_params_allows_whitelisted_overrides_0B9_
FNDA:1,_RNCNvNtNtNtCsiL6gS0SCXXG_9wp_config10connectors6params5testss_51merge_params_preserves_base_params_not_in_overrides0B9_
FNDA:1,_RNCNvNtNtNtCsiL6gS0SCXXG_9wp_config10connectors6params5testss_51merge_params_preserves_base_params_not_in_overridess0_0B9_
FNDA:1,_RNCNvNtNtNtCsiL6gS0SCXXG_9wp_config10connectors6params5testss_51merge_params_preserves_base_params_not_in_overridess_0B9_
FNDA:1,_RNvNtNtNtCsiL6gS0SCXXG_9wp_config10connectors6params5testss_35merge_params_overwrites_base_values
FNDA:1,_RNvNtNtNtCsiL6gS0SCXXG_9wp_config10connectors6params5testss_39merge_params_handles_multiple_overrides
FNDA:1,_RNvNtNtNtCsiL6gS0SCXXG_9wp_config10connectors6params5testss_40merge_params_allows_whitelisted_override
FNDA:1,_RNvNtNtNtCsiL6gS0SCXXG_9wp_config10connectors6params5testss_41merge_params_empty_overrides_returns_base
FNDA:1,_RNvNtNtNtCsiL6gS0SCXXG_9wp_config10connectors6params5testss_45merge_params_rejects_non_whitelisted_override
FNDA:1,_RNvNtNtNtCsiL6gS0SCXXG_9wp_config10connectors6params5testss_51merge_params_preserves_base_params_not_in_overrides
FNDA:6,_RNvNtNtCsiL6gS0SCXXG_9wp_config10connectors6params12merge_params
FNF:17
FNH:17
DA:51,25
DA:52,25
DA:53,25
DA:54,25
DA:55,25
DA:56,25
DA:58,39
DA:60,54
DA:61,1
DA:62,1
DA:63,1
DA:64,1
DA:65,1
DA:66,1
DA:67,1
DA:68,38
DA:71,38
DA:74,24
DA:75,25
DA:83,1
DA:84,1
DA:85,1
DA:86,1
DA:88,1
DA:89,1
DA:91,1
DA:93,1
DA:94,1
DA:96,1
DA:97,1
DA:98,1
DA:99,1
DA:100,1
DA:103,1
DA:106,1
DA:107,1
DA:108,1
DA:109,1
DA:111,1
DA:113,1
DA:114,1
DA:116,1
DA:117,1
DA:118,1
DA:119,0
DA:121,1
DA:122,1
DA:123,0
DA:125,1
DA:128,1
DA:129,1
DA:130,1
DA:132,1
DA:133,1
DA:135,1
DA:137,1
DA:138,1
DA:139,1
DA:141,0
DA:143,1
DA:146,1
DA:147,1
DA:148,1
DA:150,1
DA:151,1
DA:153,1
DA:154,1
DA:155,1
DA:158,1
DA:159,1
DA:160,1
DA:161,1
DA:163,1
DA:164,1
DA:165,1
DA:167,1
DA:169,1
DA:170,1
DA:171,1
DA:172,1
DA:173,1
DA:174,1
DA:177,1
DA:178,1
DA:179,1
DA:180,1
DA:181,1
DA:183,1
DA:184,1
DA:186,1
DA:188,1
DA:189,1
DA:190,1
DA:191,1
DA:192,1
DA:193,1
DA:196,1
BRF:0
BRH:0
LF:107
LH:104
end_of_record
SF:/Users/zwk/src_code/wp-labs/wp-motor/crates/wp-config/src/connectors/toml.rs
FN:20,_RNCNCNvNtNtCs48GgPJaqr2Q_9wp_config10connectors4toml23collect_connector_filess0_00B9_
FN:18,_RNCNvNtNtCs48GgPJaqr2Q_9wp_config10connectors4toml23collect_connector_files0B7_
FN:20,_RNCNvNtNtCs48GgPJaqr2Q_9wp_config10connectors4toml23collect_connector_filess0_0B7_
FN:19,_RNCNvNtNtCs48GgPJaqr2Q_9wp_config10connectors4toml23collect_connector_filess_0B7_
FN:11,_RNvNtNtCs48GgPJaqr2Q_9wp_config10connectors4toml23collect_connector_files
FN:26,_RNvNtNtCs48GgPJaqr2Q_9wp_config10connectors4toml28load_connector_defs_from_dir
FN:11,_RNvNtNtCsiL6gS0SCXXG_9wp_config10connectors4toml23collect_connector_files
FN:26,_RNvNtNtCsiL6gS0SCXXG_9wp_config10connectors4toml28load_connector_defs_from_dir
FN:20,_RNCNCNvNtNtCsiL6gS0SCXXG_9wp_config10connectors4toml23collect_connector_filess0_00B9_
FN:18,_RNCNvNtNtCsiL6gS0SCXXG_9wp_config10connectors4toml23collect_connector_files0B7_
FN:20,_RNCNvNtNtCsiL6gS0SCXXG_9wp_config10connectors4toml23collect_connector_filess0_0B7_
FN:19,_RNCNvNtNtCsiL6gS0SCXXG_9wp_config10connectors4toml23collect_connector_filess_0B7_
FN:104,_RNCNvNtNtNtCsiL6gS0SCXXG_9wp_config10connectors4toml5testss_33load_connector_with_env_variables0B9_
FN:108,_RNCNvNtNtNtCsiL6gS0SCXXG_9wp_config10connectors4toml5testss_33load_connector_with_env_variabless_0B9_
FN:139,_RNCNvNtNtNtCsiL6gS0SCXXG_9wp_config10connectors4toml5testss_40load_connector_without_env_keeps_literal0B9_
FN:166,_RNCNvNtNtNtCsiL6gS0SCXXG_9wp_config10connectors4toml5testss_51load_connector_with_undefined_env_keeps_placeholder0B9_
FN:60,_RNvNtNtNtCsiL6gS0SCXXG_9wp_config10connectors4toml5tests7tmp_dir
FN:72,_RNvNtNtNtCsiL6gS0SCXXG_9wp_config10connectors4toml5testss_33load_connector_with_env_variables
FN:114,_RNvNtNtNtCsiL6gS0SCXXG_9wp_config10connectors4toml5testss_40load_connector_without_env_keeps_literal
FN:145,_RNvNtNtNtCsiL6gS0SCXXG_9wp_config10connectors4toml5testss_51load_connector_with_undefined_env_keeps_placeholder
FNDA:118,_RNCNCNvNtNtCs48GgPJaqr2Q_9wp_config10connectors4toml23collect_connector_filess0_00B9_
FNDA:118,_RNCNvNtNtCs48GgPJaqr2Q_9wp_config10connectors4toml23collect_connector_files0B7_
FNDA:118,_RNCNvNtNtCs48GgPJaqr2Q_9wp_config10connectors4toml23collect_connector_filess0_0B7_
FNDA:118,_RNCNvNtNtCs48GgPJaqr2Q_9wp_config10connectors4toml23collect_connector_filess_0B7_
FNDA:74,_RNvNtNtCs48GgPJaqr2Q_9wp_config10connectors4toml23collect_connector_files
FNDA:74,_RNvNtNtCs48GgPJaqr2Q_9wp_config10connectors4toml28load_connector_defs_from_dir
FNDA:7,_RNvNtNtCsiL6gS0SCXXG_9wp_config10connectors4toml23collect_connector_files
FNDA:7,_RNvNtNtCsiL6gS0SCXXG_9wp_config10connectors4toml28load_connector_defs_from_dir
FNDA:8,_RNCNCNvNtNtCsiL6gS0SCXXG_9wp_config10connectors4toml23collect_connector_filess0_00B9_
FNDA:8,_RNCNvNtNtCsiL6gS0SCXXG_9wp_config10connectors4toml23collect_connector_files0B7_
FNDA:8,_RNCNvNtNtCsiL6gS0SCXXG_9wp_config10connectors4toml23collect_connector_filess0_0B7_
FNDA:8,_RNCNvNtNtCsiL6gS0SCXXG_9wp_config10connectors4toml23collect_connector_filess_0B7_
FNDA:1,_RNCNvNtNtNtCsiL6gS0SCXXG_9wp_config10connectors4toml5testss_33load_connector_with_env_variables0B9_
FNDA:1,_RNCNvNtNtNtCsiL6gS0SCXXG_9wp_config10connectors4toml5testss_33load_connector_with_env_variabless_0B9_
FNDA:1,_RNCNvNtNtNtCsiL6gS0SCXXG_9wp_config10connectors4toml5testss_40load_connector_without_env_keeps_literal0B9_
FNDA:1,_RNCNvNtNtNtCsiL6gS0SCXXG_9wp_config10connectors4toml5testss_51load_connector_with_undefined_env_keeps_placeholder0B9_
FNDA:3,_RNvNtNtNtCsiL6gS0SCXXG_9wp_config10connectors4toml5tests7tmp_dir
FNDA:1,_RNvNtNtNtCsiL6gS0SCXXG_9wp_config10connectors4toml5testss_33load_connector_with_env_variables
FNDA:1,_RNvNtNtNtCsiL6gS0SCXXG_9wp_config10connectors4toml5testss_40load_connector_without_env_keeps_literal
FNDA:1,_RNvNtNtNtCsiL6gS0SCXXG_9wp_config10connectors4toml5testss_51load_connector_with_undefined_env_keeps_placeholder
FNF:14
FNH:14
DA:11,81
DA:12,81
DA:13,2
DA:14,79
DA:15,79
DA:16,79
DA:17,79
DA:18,126
DA:19,126
DA:20,126
DA:21,79
DA:22,79
DA:23,79
DA:24,81
DA:26,81
DA:27,81
DA:28,81
DA:29,81
DA:30,81
DA:31,81
DA:32,126
DA:33,126
DA:34,251
DA:35,126
DA:36,126
DA:37,1
DA:38,1
DA:39,1
DA:40,1
DA:41,1
DA:42,1
DA:43,1
DA:44,125
DA:45,125
DA:46,125
DA:47,125
DA:50,80
DA:51,81
DA:60,3
DA:61,3
DA:62,3
DA:63,3
DA:64,3
DA:65,3
DA:66,3
DA:67,3
DA:68,3
DA:69,3
DA:72,1
DA:73,1
DA:74,1
DA:75,1
DA:78,1
DA:79,1
DA:80,1
DA:81,1
DA:82,1
DA:83,1
DA:84,1
DA:85,1
DA:86,1
DA:87,1
DA:88,1
DA:91,1
DA:92,1
DA:93,1
DA:94,1
DA:97,1
DA:98,1
DA:99,1
DA:101,1
DA:102,1
DA:103,1
DA:104,1
DA:107,1
DA:108,1
DA:111,1
DA:114,1
DA:115,1
DA:116,1
DA:117,1
DA:120,1
DA:121,1
DA:122,1
DA:123,1
DA:124,1
DA:125,1
DA:126,1
DA:127,1
DA:128,1
DA:129,1
DA:131,1
DA:132,1
DA:133,1
DA:134,1
DA:136,1
DA:137,1
DA:138,1
DA:139,1
DA:142,1
DA:145,1
DA:146,1
DA:147,1
DA:148,1
DA:151,1
DA:152,1
DA:153,1
DA:154,1
DA:155,1
DA:156,1
DA:157,1
DA:158,1
DA:160,1
DA:161,1
DA:162,1
DA:164,1
DA:166,1
DA:167,1
DA:168,1
DA:169,0
DA:172,1
BRF:0
BRH:0
LF:129
LH:128
end_of_record
SF:/Users/zwk/src_code/wp-labs/wp-motor/crates/wp-config/src/engine.rs
FN:475,_RINvMsc_NtCs48GgPJaqr2Q_9wp_config6engineNtB6_12EngineConfig12load_or_initRNtNtCsht3nMU9UgFu_3std4path4PathECsfPo7uQlnqBI_9wp_engine
FN:452,_RINvMsc_NtCs48GgPJaqr2Q_9wp_config6engineNtB6_12EngineConfig15conf_absolutizeRNtNtCsht3nMU9UgFu_3std4path4PathECsfPo7uQlnqBI_9wp_engine
FN:452,_RINvMsc_NtCs48GgPJaqr2Q_9wp_config6engineNtB6_12EngineConfig15conf_absolutizeRNtNtCsht3nMU9UgFu_3std4path7PathBufECsfPo7uQlnqBI_9wp_engine
FN:338,_RINvMsc_NtCs48GgPJaqr2Q_9wp_config6engineNtB6_12EngineConfig4initRRNtNtCsht3nMU9UgFu_3std4path4PathECsfPo7uQlnqBI_9wp_engine
FN:492,_RINvMsc_NtCs48GgPJaqr2Q_9wp_config6engineNtB6_12EngineConfig4loadRNtNtCsht3nMU9UgFu_3std4path7PathBufECsfPo7uQlnqBI_9wp_engine
FN:391,_RNvMsc_NtCs48GgPJaqr2Q_9wp_config6engineNtB5_12EngineConfig10sinks_root
FN:429,_RNvMsc_NtCs48GgPJaqr2Q_9wp_config6engineNtB5_12EngineConfig10skip_parse
FN:501,_RNvMsc_NtCs48GgPJaqr2Q_9wp_config6engineNtB5_12EngineConfig11gen_default
FN:420,_RNvMsc_NtCs48GgPJaqr2Q_9wp_config6engineNtB5_12EngineConfig11rescue_root
FN:403,_RNvMsc_NtCs48GgPJaqr2Q_9wp_config6engineNtB5_12EngineConfig11speed_limit
FN:448,_RNvMsc_NtCs48GgPJaqr2Q_9wp_config6engineNtB5_12EngineConfig11src_conf_of
FN:511,_RNvMsc_NtCs48GgPJaqr2Q_9wp_config6engineNtB5_12EngineConfig13set_rule_root
FN:387,_RNvMsc_NtCs48GgPJaqr2Q_9wp_config6engineNtB5_12EngineConfig14knowledge_root
FN:440,_RNvMsc_NtCs48GgPJaqr2Q_9wp_config6engineNtB5_12EngineConfig14project_remote
FN:407,_RNvMsc_NtCs48GgPJaqr2Q_9wp_config6engineNtB5_12EngineConfig17reload_timeout_ms
FN:395,_RNvMsc_NtCs48GgPJaqr2Q_9wp_config6engineNtB5_12EngineConfig6robust
FN:371,_RNvMsc_NtCs48GgPJaqr2Q_9wp_config6engineNtB5_12EngineConfig7version
FN:424,_RNvMsc_NtCs48GgPJaqr2Q_9wp_config6engineNtB5_12EngineConfig8log_conf
FN:383,_RNvMsc_NtCs48GgPJaqr2Q_9wp_config6engineNtB5_12EngineConfig8oml_root
FN:399,_RNvMsc_NtCs48GgPJaqr2Q_9wp_config6engineNtB5_12EngineConfig8parallel
FN:436,_RNvMsc_NtCs48GgPJaqr2Q_9wp_config6engineNtB5_12EngineConfig8semantic
FN:375,_RNvMsc_NtCs48GgPJaqr2Q_9wp_config6engineNtB5_12EngineConfig8src_root
FN:379,_RNvMsc_NtCs48GgPJaqr2Q_9wp_config6engineNtB5_12EngineConfig8wpl_root
FN:444,_RNvMsc_NtCs48GgPJaqr2Q_9wp_config6engineNtB5_12EngineConfig9admin_api
FN:415,_RNvMsc_NtCs48GgPJaqr2Q_9wp_config6engineNtB5_12EngineConfig9rule_root
FN:506,_RNvMsc_NtCs48GgPJaqr2Q_9wp_config6engineNtB5_12EngineConfig9sink_root
FN:432,_RNvMsc_NtCs48GgPJaqr2Q_9wp_config6engineNtB5_12EngineConfig9skip_sink
FN:411,_RNvMsc_NtCs48GgPJaqr2Q_9wp_config6engineNtB5_12EngineConfig9stat_conf
FN:529,_RNvNtCs48GgPJaqr2Q_9wp_config6engine14normalize_path
FN:246,_RNvNtCs48GgPJaqr2Q_9wp_config6engine15default_version
FN:254,_RNvNtCs48GgPJaqr2Q_9wp_config6engine16default_oml_root
FN:250,_RNvNtCs48GgPJaqr2Q_9wp_config6engine16default_wpl_root
FN:262,_RNvNtCs48GgPJaqr2Q_9wp_config6engine18default_sinks_root
FN:309,_RNvNtCs48GgPJaqr2Q_9wp_config6engine19default_models_conf
FN:266,_RNvNtCs48GgPJaqr2Q_9wp_config6engine19default_rescue_path
FN:274,_RNvNtCs48GgPJaqr2Q_9wp_config6engine19default_speed_limit
FN:517,_RNvNtCs48GgPJaqr2Q_9wp_config6engine19resolve_engine_path
FN:242,_RNvNtCs48GgPJaqr2Q_9wp_config6engine20default_sources_root
FN:270,_RNvNtCs48GgPJaqr2Q_9wp_config6engine21default_parse_workers
FN:302,_RNvNtCs48GgPJaqr2Q_9wp_config6engine21default_topology_conf
FN:282,_RNvNtCs48GgPJaqr2Q_9wp_config6engine22default_admin_api_bind
FN:258,_RNvNtCs48GgPJaqr2Q_9wp_config6engine22default_knowledge_root
FN:278,_RNvNtCs48GgPJaqr2Q_9wp_config6engine25default_reload_timeout_ms
FN:294,_RNvNtCs48GgPJaqr2Q_9wp_config6engine27default_admin_api_auth_mode
FN:298,_RNvNtCs48GgPJaqr2Q_9wp_config6engine28default_admin_api_token_file
FN:290,_RNvNtCs48GgPJaqr2Q_9wp_config6engine32default_admin_api_max_body_bytes
FN:286,_RNvNtCs48GgPJaqr2Q_9wp_config6engine36default_admin_api_request_timeout_ms
FN:44,_RNvXs0_NtCs48GgPJaqr2Q_9wp_config6engineNtB5_15AdminApiTlsConfINtNtNtCsfv6z1NgKsoT_13orion_variate4vars5types12EnvEvaluableBC_E8env_eval
FN:60,_RNvXs1_NtCs48GgPJaqr2Q_9wp_config6engineNtB5_16AdminApiAuthConfNtNtCsaNl6UpbT7bw_4core7default7Default7default
FN:69,_RNvXs2_NtCs48GgPJaqr2Q_9wp_config6engineNtB5_16AdminApiAuthConfINtNtNtCsfv6z1NgKsoT_13orion_variate4vars5types12EnvEvaluableBC_E8env_eval
FN:93,_RNvXs3_NtCs48GgPJaqr2Q_9wp_config6engineNtB5_12AdminApiConfNtNtCsaNl6UpbT7bw_4core7default7Default7default
FN:106,_RNvXs4_NtCs48GgPJaqr2Q_9wp_config6engineNtB5_12AdminApiConfINtNtNtCsfv6z1NgKsoT_13orion_variate4vars5types12EnvEvaluableBC_E8env_eval
FN:121,_RNvXs5_NtCs48GgPJaqr2Q_9wp_config6engineNtB5_10RescueConfNtNtCsaNl6UpbT7bw_4core7default7Default7default
FN:129,_RNvXs6_NtCs48GgPJaqr2Q_9wp_config6engineNtB5_10RescueConfINtNtNtCsfv6z1NgKsoT_13orion_variate4vars5types12EnvEvaluableBC_E8env_eval
FN:146,_RNvXs7_NtCs48GgPJaqr2Q_9wp_config6engineNtB5_10ModelsConfINtNtNtCsfv6z1NgKsoT_13orion_variate4vars5types12EnvEvaluableBC_E8env_eval
FN:163,_RNvXs8_NtCs48GgPJaqr2Q_9wp_config6engineNtB5_12TopologyConfINtNtNtCsfv6z1NgKsoT_13orion_variate4vars5types12EnvEvaluableBC_E8env_eval
FN:180,_RNvXs9_NtCs48GgPJaqr2Q_9wp_config6engineNtB5_15PerformanceConfNtNtCsaNl6UpbT7bw_4core7default7Default7default
FN:26,_RNvXs_NtCs48GgPJaqr2Q_9wp_config6engineNtB4_17ProjectRemoteConfINtNtNtCsfv6z1NgKsoT_13orion_variate4vars5types12EnvEvaluableBB_E8env_eval
FN:231,_RNvXsa_NtCs48GgPJaqr2Q_9wp_config6engineNtB5_12EngineConfigINtNtNtCsfv6z1NgKsoT_13orion_variate4vars5types12EnvEvaluableBC_E8env_eval
FN:318,_RNvXsb_NtCs48GgPJaqr2Q_9wp_config6engineNtB5_12EngineConfigNtNtCsaNl6UpbT7bw_4core7default7Default7default
FN:475,_RINvMsc_NtCs48GgPJaqr2Q_9wp_config6engineNtB6_12EngineConfig12load_or_initpEB8_
FN:452,_RINvMsc_NtCs48GgPJaqr2Q_9wp_config6engineNtB6_12EngineConfig15conf_absolutizepEB8_
FN:338,_RINvMsc_NtCs48GgPJaqr2Q_9wp_config6engineNtB6_12EngineConfig4initpEB8_
FN:492,_RINvMsc_NtCs48GgPJaqr2Q_9wp_config6engineNtB6_12EngineConfig4loadpEB8_
FN:338,_RINvMsc_NtCs48GgPJaqr2Q_9wp_config6engineNtB6_12EngineConfig4initReECs1HpxBQtxS5F_24integration_stat_sources
FN:338,_RINvMsc_NtCs48GgPJaqr2Q_9wp_config6engineNtB6_12EngineConfig4initReECskTKHy6T9bpY_11wp_cli_core
FN:573,_RNvMNtNtCsiL6gS0SCXXG_9wp_config6engine5testsNtB2_12HomeOverride3new
FN:563,_RNvNtNtCsiL6gS0SCXXG_9wp_config6engine5tests9home_lock
FN:608,_RNvNtNtCsiL6gS0SCXXG_9wp_config6engine5testss_27test_normalize_path_complex
FN:633,_RNvNtNtCsiL6gS0SCXXG_9wp_config6engine5testss_33test_resolve_engine_path_absolute
FN:620,_RNvNtNtCsiL6gS0SCXXG_9wp_config6engine5testss_38test_normalize_path_already_normalized
FN:602,_RNvNtNtCsiL6gS0SCXXG_9wp_config6engine5testss_38test_normalize_path_removes_parent_dir
FN:640,_RNvNtNtCsiL6gS0SCXXG_9wp_config6engine5testss_38test_semantic_conf_accepts_enabled_key
FN:664,_RNvNtNtCsiL6gS0SCXXG_9wp_config6engine5testss_39test_models_conf_accepts_knowledge_root
FN:596,_RNvNtNtCsiL6gS0SCXXG_9wp_config6engine5testss_39test_normalize_path_removes_current_dir
FN:689,_RNvNtNtCsiL6gS0SCXXG_9wp_config6engine5testss_39test_project_remote_conf_accepts_fields
FN:614,_RNvNtNtCsiL6gS0SCXXG_9wp_config6engine5testss_41test_normalize_path_multiple_current_dirs
FN:626,_RNvNtNtCsiL6gS0SCXXG_9wp_config6engine5testss_41test_resolve_engine_path_with_current_dir
FN:708,_RNvNtNtCsiL6gS0SCXXG_9wp_config6engine5testss_43test_project_remote_conf_accepts_enable_key
FN:733,_RNvNtNtCsiL6gS0SCXXG_9wp_config6engine5testss_44test_admin_api_token_file_env_eval_uses_home
FN:676,_RNvNtNtCsiL6gS0SCXXG_9wp_config6engine5testss_44test_conf_absolutize_resolves_knowledge_root
FN:652,_RNvNtNtCsiL6gS0SCXXG_9wp_config6engine5testss_44test_semantic_conf_accepts_legacy_enable_key
FN:753,_RNvNtNtCsiL6gS0SCXXG_9wp_config6engine5testss_54test_conf_absolutize_resolves_admin_api_relative_paths
FN:720,_RNvNtNtCsiL6gS0SCXXG_9wp_config6engine5testss_58test_engine_config_serializes_project_remote_as_snake_case
FN:565,_RNCNvNtNtCsiL6gS0SCXXG_9wp_config6engine5tests9home_lock0B7_
FN:475,_RINvMsc_NtCsiL6gS0SCXXG_9wp_config6engineNtB6_12EngineConfig12load_or_initpEB8_
FN:338,_RINvMsc_NtCsiL6gS0SCXXG_9wp_config6engineNtB6_12EngineConfig4initpEB8_
FN:492,_RINvMsc_NtCsiL6gS0SCXXG_9wp_config6engineNtB6_12EngineConfig4loadpEB8_
FN:391,_RNvMsc_NtCsiL6gS0SCXXG_9wp_config6engineNtB5_12EngineConfig10sinks_root
FN:429,_RNvMsc_NtCsiL6gS0SCXXG_9wp_config6engineNtB5_12EngineConfig10skip_parse
FN:501,_RNvMsc_NtCsiL6gS0SCXXG_9wp_config6engineNtB5_12EngineConfig11gen_default
FN:420,_RNvMsc_NtCsiL6gS0SCXXG_9wp_config6engineNtB5_12EngineConfig11rescue_root
FN:403,_RNvMsc_NtCsiL6gS0SCXXG_9wp_config6engineNtB5_12EngineConfig11speed_limit
FN:448,_RNvMsc_NtCsiL6gS0SCXXG_9wp_config6engineNtB5_12EngineConfig11src_conf_of
FN:511,_RNvMsc_NtCsiL6gS0SCXXG_9wp_config6engineNtB5_12EngineConfig13set_rule_root
FN:407,_RNvMsc_NtCsiL6gS0SCXXG_9wp_config6engineNtB5_12EngineConfig17reload_timeout_ms
FN:395,_RNvMsc_NtCsiL6gS0SCXXG_9wp_config6engineNtB5_12EngineConfig6robust
FN:371,_RNvMsc_NtCsiL6gS0SCXXG_9wp_config6engineNtB5_12EngineConfig7version
FN:424,_RNvMsc_NtCsiL6gS0SCXXG_9wp_config6engineNtB5_12EngineConfig8log_conf
FN:383,_RNvMsc_NtCsiL6gS0SCXXG_9wp_config6engineNtB5_12EngineConfig8oml_root
FN:399,_RNvMsc_NtCsiL6gS0SCXXG_9wp_config6engineNtB5_12EngineConfig8parallel
FN:375,_RNvMsc_NtCsiL6gS0SCXXG_9wp_config6engineNtB5_12EngineConfig8src_root
FN:379,_RNvMsc_NtCsiL6gS0SCXXG_9wp_config6engineNtB5_12EngineConfig8wpl_root
FN:415,_RNvMsc_NtCsiL6gS0SCXXG_9wp_config6engineNtB5_12EngineConfig9rule_root
FN:506,_RNvMsc_NtCsiL6gS0SCXXG_9wp_config6engineNtB5_12EngineConfig9sink_root
FN:432,_RNvMsc_NtCsiL6gS0SCXXG_9wp_config6engineNtB5_12EngineConfig9skip_sink
FN:411,_RNvMsc_NtCsiL6gS0SCXXG_9wp_config6engineNtB5_12EngineConfig9stat_conf
FN:387,_RNvMsc_NtCsiL6gS0SCXXG_9wp_config6engineNtB5_12EngineConfig14knowledge_root
FN:440,_RNvMsc_NtCsiL6gS0SCXXG_9wp_config6engineNtB5_12EngineConfig14project_remote
FN:436,_RNvMsc_NtCsiL6gS0SCXXG_9wp_config6engineNtB5_12EngineConfig8semantic
FN:444,_RNvMsc_NtCsiL6gS0SCXXG_9wp_config6engineNtB5_12EngineConfig9admin_api
FN:529,_RNvNtCsiL6gS0SCXXG_9wp_config6engine14normalize_path
FN:246,_RNvNtCsiL6gS0SCXXG_9wp_config6engine15default_version
FN:254,_RNvNtCsiL6gS0SCXXG_9wp_config6engine16default_oml_root
FN:250,_RNvNtCsiL6gS0SCXXG_9wp_config6engine16default_wpl_root
FN:262,_RNvNtCsiL6gS0SCXXG_9wp_config6engine18default_sinks_root
FN:309,_RNvNtCsiL6gS0SCXXG_9wp_config6engine19default_models_conf
FN:266,_RNvNtCsiL6gS0SCXXG_9wp_config6engine19default_rescue_path
FN:274,_RNvNtCsiL6gS0SCXXG_9wp_config6engine19default_speed_limit
FN:517,_RNvNtCsiL6gS0SCXXG_9wp_config6engine19resolve_engine_path
FN:242,_RNvNtCsiL6gS0SCXXG_9wp_config6engine20default_sources_root
FN:270,_RNvNtCsiL6gS0SCXXG_9wp_config6engine21default_parse_workers
FN:302,_RNvNtCsiL6gS0SCXXG_9wp_config6engine21default_topology_conf
FN:282,_RNvNtCsiL6gS0SCXXG_9wp_config6engine22default_admin_api_bind
FN:258,_RNvNtCsiL6gS0SCXXG_9wp_config6engine22default_knowledge_root
FN:278,_RNvNtCsiL6gS0SCXXG_9wp_config6engine25default_reload_timeout_ms
FN:294,_RNvNtCsiL6gS0SCXXG_9wp_config6engine27default_admin_api_auth_mode
FN:298,_RNvNtCsiL6gS0SCXXG_9wp_config6engine28default_admin_api_token_file
FN:290,_RNvNtCsiL6gS0SCXXG_9wp_config6engine32default_admin_api_max_body_bytes
FN:286,_RNvNtCsiL6gS0SCXXG_9wp_config6engine36default_admin_api_request_timeout_ms
FN:44,_RNvXs0_NtCsiL6gS0SCXXG_9wp_config6engineNtB5_15AdminApiTlsConfINtNtNtCsfv6z1NgKsoT_13orion_variate4vars5types12EnvEvaluableBC_E8env_eval
FN:60,_RNvXs1_NtCsiL6gS0SCXXG_9wp_config6engineNtB5_16AdminApiAuthConfNtNtCsaNl6UpbT7bw_4core7default7Default7default
FN:69,_RNvXs2_NtCsiL6gS0SCXXG_9wp_config6engineNtB5_16AdminApiAuthConfINtNtNtCsfv6z1NgKsoT_13orion_variate4vars5types12EnvEvaluableBC_E8env_eval
FN:93,_RNvXs3_NtCsiL6gS0SCXXG_9wp_config6engineNtB5_12AdminApiConfNtNtCsaNl6UpbT7bw_4core7default7Default7default
FN:106,_RNvXs4_NtCsiL6gS0SCXXG_9wp_config6engineNtB5_12AdminApiConfINtNtNtCsfv6z1NgKsoT_13orion_variate4vars5types12EnvEvaluableBC_E8env_eval
FN:121,_RNvXs5_NtCsiL6gS0SCXXG_9wp_config6engineNtB5_10RescueConfNtNtCsaNl6UpbT7bw_4core7default7Default7default
FN:129,_RNvXs6_NtCsiL6gS0SCXXG_9wp_config6engineNtB5_10RescueConfINtNtNtCsfv6z1NgKsoT_13orion_variate4vars5types12EnvEvaluableBC_E8env_eval
FN:146,_RNvXs7_NtCsiL6gS0SCXXG_9wp_config6engineNtB5_10ModelsConfINtNtNtCsfv6z1NgKsoT_13orion_variate4vars5types12EnvEvaluableBC_E8env_eval
FN:163,_RNvXs8_NtCsiL6gS0SCXXG_9wp_config6engineNtB5_12TopologyConfINtNtNtCsfv6z1NgKsoT_13orion_variate4vars5types12EnvEvaluableBC_E8env_eval
FN:180,_RNvXs9_NtCsiL6gS0SCXXG_9wp_config6engineNtB5_15PerformanceConfNtNtCsaNl6UpbT7bw_4core7default7Default7default
FN:26,_RNvXs_NtCsiL6gS0SCXXG_9wp_config6engineNtB4_17ProjectRemoteConfINtNtNtCsfv6z1NgKsoT_13orion_variate4vars5types12EnvEvaluableBB_E8env_eval
FN:231,_RNvXsa_NtCsiL6gS0SCXXG_9wp_config6engineNtB5_12EngineConfigINtNtNtCsfv6z1NgKsoT_13orion_variate4vars5types12EnvEvaluableBC_E8env_eval
FN:318,_RNvXsb_NtCsiL6gS0SCXXG_9wp_config6engineNtB5_12EngineConfigNtNtCsaNl6UpbT7bw_4core7default7Default7default
FN:583,_RNvXs_NtNtCsiL6gS0SCXXG_9wp_config6engine5testsNtB4_12HomeOverrideNtNtNtCsaNl6UpbT7bw_4core3ops4drop4Drop4drop
FN:452,_RINvMsc_NtCsiL6gS0SCXXG_9wp_config6engineNtB6_12EngineConfig15conf_absolutizeReEB8_
FN:475,_RINvMsc_NtCs48GgPJaqr2Q_9wp_config6engineNtB6_12EngineConfig12load_or_initRNtNtCsht3nMU9UgFu_3std4path7PathBufECs1peygmGMWS6_7wp_proj
FN:338,_RINvMsc_NtCs48GgPJaqr2Q_9wp_config6engineNtB6_12EngineConfig4initRNtNtCsht3nMU9UgFu_3std4path7PathBufECs1peygmGMWS6_7wp_proj
FN:338,_RINvMsc_NtCs48GgPJaqr2Q_9wp_config6engineNtB6_12EngineConfig4initRRNtNtCsht3nMU9UgFu_3std4path7PathBufECs1peygmGMWS6_7wp_proj
FN:475,_RINvMsc_NtCs48GgPJaqr2Q_9wp_config6engineNtB6_12EngineConfig12load_or_initRNtNtCsht3nMU9UgFu_3std4path7PathBufECsloybdjb1c3E_7wp_proj
FN:452,_RINvMsc_NtCs48GgPJaqr2Q_9wp_config6engineNtB6_12EngineConfig15conf_absolutizeRNtNtCsiTraAjBDcu4_5alloc6string6StringECsloybdjb1c3E_7wp_proj
FN:452,_RINvMsc_NtCs48GgPJaqr2Q_9wp_config6engineNtB6_12EngineConfig15conf_absolutizeReECsloybdjb1c3E_7wp_proj
FN:338,_RINvMsc_NtCs48GgPJaqr2Q_9wp_config6engineNtB6_12EngineConfig4initRNtNtCsht3nMU9UgFu_3std4path4PathECsloybdjb1c3E_7wp_proj
FN:338,_RINvMsc_NtCs48GgPJaqr2Q_9wp_config6engineNtB6_12EngineConfig4initRNtNtCsht3nMU9UgFu_3std4path7PathBufECsloybdjb1c3E_7wp_proj
FN:338,_RINvMsc_NtCs48GgPJaqr2Q_9wp_config6engineNtB6_12EngineConfig4initRNtNtCsiTraAjBDcu4_5alloc6string6StringECsloybdjb1c3E_7wp_proj
FN:338,_RINvMsc_NtCs48GgPJaqr2Q_9wp_config6engineNtB6_12EngineConfig4initRRNtNtCsht3nMU9UgFu_3std4path7PathBufECsloybdjb1c3E_7wp_proj
FN:338,_RINvMsc_NtCs48GgPJaqr2Q_9wp_config6engineNtB6_12EngineConfig4initReECsloybdjb1c3E_7wp_proj
FNDA:6,_RINvMsc_NtCs48GgPJaqr2Q_9wp_config6engineNtB6_12EngineConfig12load_or_initRNtNtCsht3nMU9UgFu_3std4path4PathECsfPo7uQlnqBI_9wp_engine
FNDA:10,_RINvMsc_NtCs48GgPJaqr2Q_9wp_config6engineNtB6_12EngineConfig15conf_absolutizeRNtNtCsht3nMU9UgFu_3std4path4PathECsfPo7uQlnqBI_9wp_engine
FNDA:46,_RINvMsc_NtCs48GgPJaqr2Q_9wp_config6engineNtB6_12EngineConfig15conf_absolutizeRNtNtCsht3nMU9UgFu_3std4path7PathBufECsfPo7uQlnqBI_9wp_engine
FNDA:3,_RINvMsc_NtCs48GgPJaqr2Q_9wp_config6engineNtB6_12EngineConfig4initRRNtNtCsht3nMU9UgFu_3std4path4PathECsfPo7uQlnqBI_9wp_engine
FNDA:20,_RINvMsc_NtCs48GgPJaqr2Q_9wp_config6engineNtB6_12EngineConfig4loadRNtNtCsht3nMU9UgFu_3std4path7PathBufECsfPo7uQlnqBI_9wp_engine
FNDA:16,_RNvMsc_NtCs48GgPJaqr2Q_9wp_config6engineNtB5_12EngineConfig10sinks_root
FNDA:0,_RNvMsc_NtCs48GgPJaqr2Q_9wp_config6engineNtB5_12EngineConfig10skip_parse
FNDA:0,_RNvMsc_NtCs48GgPJaqr2Q_9wp_config6engineNtB5_12EngineConfig11gen_default
FNDA:3,_RNvMsc_NtCs48GgPJaqr2Q_9wp_config6engineNtB5_12EngineConfig11rescue_root
FNDA:1,_RNvMsc_NtCs48GgPJaqr2Q_9wp_config6engineNtB5_12EngineConfig11speed_limit
FNDA:2,_RNvMsc_NtCs48GgPJaqr2Q_9wp_config6engineNtB5_12EngineConfig11src_conf_of
FNDA:0,_RNvMsc_NtCs48GgPJaqr2Q_9wp_config6engineNtB5_12EngineConfig13set_rule_root
FNDA:2,_RNvMsc_NtCs48GgPJaqr2Q_9wp_config6engineNtB5_12EngineConfig14knowledge_root
FNDA:0,_RNvMsc_NtCs48GgPJaqr2Q_9wp_config6engineNtB5_12EngineConfig14project_remote
FNDA:0,_RNvMsc_NtCs48GgPJaqr2Q_9wp_config6engineNtB5_12EngineConfig17reload_timeout_ms
FNDA:0,_RNvMsc_NtCs48GgPJaqr2Q_9wp_config6engineNtB5_12EngineConfig6robust
FNDA:0,_RNvMsc_NtCs48GgPJaqr2Q_9wp_config6engineNtB5_12EngineConfig7version
FNDA:1,_RNvMsc_NtCs48GgPJaqr2Q_9wp_config6engineNtB5_12EngineConfig8log_conf
FNDA:17,_RNvMsc_NtCs48GgPJaqr2Q_9wp_config6engineNtB5_12EngineConfig8oml_root
FNDA:0,_RNvMsc_NtCs48GgPJaqr2Q_9wp_config6engineNtB5_12EngineConfig8parallel
FNDA:0,_RNvMsc_NtCs48GgPJaqr2Q_9wp_config6engineNtB5_12EngineConfig8semantic
FNDA:50,_RNvMsc_NtCs48GgPJaqr2Q_9wp_config6engineNtB5_12EngineConfig8src_root
FNDA:26,_RNvMsc_NtCs48GgPJaqr2Q_9wp_config6engineNtB5_12EngineConfig8wpl_root
FNDA:2,_RNvMsc_NtCs48GgPJaqr2Q_9wp_config6engineNtB5_12EngineConfig9admin_api
FNDA:26,_RNvMsc_NtCs48GgPJaqr2Q_9wp_config6engineNtB5_12EngineConfig9rule_root
FNDA:7,_RNvMsc_NtCs48GgPJaqr2Q_9wp_config6engineNtB5_12EngineConfig9sink_root
FNDA:0,_RNvMsc_NtCs48GgPJaqr2Q_9wp_config6engineNtB5_12EngineConfig9skip_sink
FNDA:2,_RNvMsc_NtCs48GgPJaqr2Q_9wp_config6engineNtB5_12EngineConfig9stat_conf
FNDA:373,_RNvNtCs48GgPJaqr2Q_9wp_config6engine14normalize_path
FNDA:22,_RNvNtCs48GgPJaqr2Q_9wp_config6engine15default_version
FNDA:63,_RNvNtCs48GgPJaqr2Q_9wp_config6engine16default_oml_root
FNDA:63,_RNvNtCs48GgPJaqr2Q_9wp_config6engine16default_wpl_root
FNDA:63,_RNvNtCs48GgPJaqr2Q_9wp_config6engine18default_sinks_root
FNDA:24,_RNvNtCs48GgPJaqr2Q_9wp_config6engine19default_models_conf
FNDA:63,_RNvNtCs48GgPJaqr2Q_9wp_config6engine19default_rescue_path
FNDA:0,_RNvNtCs48GgPJaqr2Q_9wp_config6engine19default_speed_limit
FNDA:427,_RNvNtCs48GgPJaqr2Q_9wp_config6engine19resolve_engine_path
FNDA:63,_RNvNtCs48GgPJaqr2Q_9wp_config6engine20default_sources_root
FNDA:0,_RNvNtCs48GgPJaqr2Q_9wp_config6engine21default_parse_workers
FNDA:24,_RNvNtCs48GgPJaqr2Q_9wp_config6engine21default_topology_conf
FNDA:65,_RNvNtCs48GgPJaqr2Q_9wp_config6engine22default_admin_api_bind
FNDA:65,_RNvNtCs48GgPJaqr2Q_9wp_config6engine22default_knowledge_root
FNDA:65,_RNvNtCs48GgPJaqr2Q_9wp_config6engine25default_reload_timeout_ms
FNDA:63,_RNvNtCs48GgPJaqr2Q_9wp_config6engine27default_admin_api_auth_mode
FNDA:63,_RNvNtCs48GgPJaqr2Q_9wp_config6engine28default_admin_api_token_file
FNDA:65,_RNvNtCs48GgPJaqr2Q_9wp_config6engine32default_admin_api_max_body_bytes
FNDA:65,_RNvNtCs48GgPJaqr2Q_9wp_config6engine36default_admin_api_request_timeout_ms
FNDA:45,_RNvXs0_NtCs48GgPJaqr2Q_9wp_config6engineNtB5_15AdminApiTlsConfINtNtNtCsfv6z1NgKsoT_13orion_variate4vars5types12EnvEvaluableBC_E8env_eval
FNDA:63,_RNvXs1_NtCs48GgPJaqr2Q_9wp_config6engineNtB5_16AdminApiAuthConfNtNtCsaNl6UpbT7bw_4core7default7Default7default
FNDA:45,_RNvXs2_NtCs48GgPJaqr2Q_9wp_config6engineNtB5_16AdminApiAuthConfINtNtNtCsfv6z1NgKsoT_13orion_variate4vars5types12EnvEvaluableBC_E8env_eval
FNDA:63,_RNvXs3_NtCs48GgPJaqr2Q_9wp_config6engineNtB5_12AdminApiConfNtNtCsaNl6UpbT7bw_4core7default7Default7default
FNDA:45,_RNvXs4_NtCs48GgPJaqr2Q_9wp_config6engineNtB5_12AdminApiConfINtNtNtCsfv6z1NgKsoT_13orion_variate4vars5types12EnvEvaluableBC_E8env_eval
FNDA:24,_RNvXs5_NtCs48GgPJaqr2Q_9wp_config6engineNtB5_10RescueConfNtNtCsaNl6UpbT7bw_4core7default7Default7default
FNDA:45,_RNvXs6_NtCs48GgPJaqr2Q_9wp_config6engineNtB5_10RescueConfINtNtNtCsfv6z1NgKsoT_13orion_variate4vars5types12EnvEvaluableBC_E8env_eval
FNDA:45,_RNvXs7_NtCs48GgPJaqr2Q_9wp_config6engineNtB5_10ModelsConfINtNtNtCsfv6z1NgKsoT_13orion_variate4vars5types12EnvEvaluableBC_E8env_eval
FNDA:45,_RNvXs8_NtCs48GgPJaqr2Q_9wp_config6engineNtB5_12TopologyConfINtNtNtCsfv6z1NgKsoT_13orion_variate4vars5types12EnvEvaluableBC_E8env_eval
FNDA:26,_RNvXs9_NtCs48GgPJaqr2Q_9wp_config6engineNtB5_15PerformanceConfNtNtCsaNl6UpbT7bw_4core7default7Default7default
FNDA:45,_RNvXs_NtCs48GgPJaqr2Q_9wp_config6engineNtB4_17ProjectRemoteConfINtNtNtCsfv6z1NgKsoT_13orion_variate4vars5types12EnvEvaluableBB_E8env_eval
FNDA:45,_RNvXsa_NtCs48GgPJaqr2Q_9wp_config6engineNtB5_12EngineConfigINtNtNtCsfv6z1NgKsoT_13orion_variate4vars5types12EnvEvaluableBC_E8env_eval
FNDA:0,_RNvXsb_NtCs48GgPJaqr2Q_9wp_config6engineNtB5_12EngineConfigNtNtCsaNl6UpbT7bw_4core7default7Default7default
FNDA:0,_RINvMsc_NtCs48GgPJaqr2Q_9wp_config6engineNtB6_12EngineConfig12load_or_initpEB8_
FNDA:0,_RINvMsc_NtCs48GgPJaqr2Q_9wp_config6engineNtB6_12EngineConfig15conf_absolutizepEB8_
FNDA:0,_RINvMsc_NtCs48GgPJaqr2Q_9wp_config6engineNtB6_12EngineConfig4initpEB8_
FNDA:0,_RINvMsc_NtCs48GgPJaqr2Q_9wp_config6engineNtB6_12EngineConfig4loadpEB8_
FNDA:9,_RINvMsc_NtCs48GgPJaqr2Q_9wp_config6engineNtB6_12EngineConfig4initReECs1HpxBQtxS5F_24integration_stat_sources
FNDA:3,_RINvMsc_NtCs48GgPJaqr2Q_9wp_config6engineNtB6_12EngineConfig4initReECskTKHy6T9bpY_11wp_cli_core
FNDA:1,_RNvMNtNtCsiL6gS0SCXXG_9wp_config6engine5testsNtB2_12HomeOverride3new
FNDA:1,_RNvNtNtCsiL6gS0SCXXG_9wp_config6engine5tests9home_lock
FNDA:1,_RNvNtNtCsiL6gS0SCXXG_9wp_config6engine5testss_27test_normalize_path_complex
FNDA:1,_RNvNtNtCsiL6gS0SCXXG_9wp_config6engine5testss_33test_resolve_engine_path_absolute
FNDA:1,_RNvNtNtCsiL6gS0SCXXG_9wp_config6engine5testss_38test_normalize_path_already_normalized
FNDA:1,_RNvNtNtCsiL6gS0SCXXG_9wp_config6engine5testss_38test_normalize_path_removes_parent_dir
FNDA:1,_RNvNtNtCsiL6gS0SCXXG_9wp_config6engine5testss_38test_semantic_conf_accepts_enabled_key
FNDA:1,_RNvNtNtCsiL6gS0SCXXG_9wp_config6engine5testss_39test_models_conf_accepts_knowledge_root
FNDA:1,_RNvNtNtCsiL6gS0SCXXG_9wp_config6engine5testss_39test_normalize_path_removes_current_dir
FNDA:1,_RNvNtNtCsiL6gS0SCXXG_9wp_config6engine5testss_39test_project_remote_conf_accepts_fields
FNDA:1,_RNvNtNtCsiL6gS0SCXXG_9wp_config6engine5testss_41test_normalize_path_multiple_current_dirs
FNDA:1,_RNvNtNtCsiL6gS0SCXXG_9wp_config6engine5testss_41test_resolve_engine_path_with_current_dir
FNDA:1,_RNvNtNtCsiL6gS0SCXXG_9wp_config6engine5testss_43test_project_remote_conf_accepts_enable_key
FNDA:1,_RNvNtNtCsiL6gS0SCXXG_9wp_config6engine5testss_44test_admin_api_token_file_env_eval_uses_home
FNDA:1,_RNvNtNtCsiL6gS0SCXXG_9wp_config6engine5testss_44test_conf_absolutize_resolves_knowledge_root
FNDA:1,_RNvNtNtCsiL6gS0SCXXG_9wp_config6engine5testss_44test_semantic_conf_accepts_legacy_enable_key
FNDA:1,_RNvNtNtCsiL6gS0SCXXG_9wp_config6engine5testss_54test_conf_absolutize_resolves_admin_api_relative_paths
FNDA:1,_RNvNtNtCsiL6gS0SCXXG_9wp_config6engine5testss_58test_engine_config_serializes_project_remote_as_snake_case
FNDA:1,_RNCNvNtNtCsiL6gS0SCXXG_9wp_config6engine5tests9home_lock0B7_
FNDA:0,_RINvMsc_NtCsiL6gS0SCXXG_9wp_config6engineNtB6_12EngineConfig12load_or_initpEB8_
FNDA:0,_RINvMsc_NtCsiL6gS0SCXXG_9wp_config6engineNtB6_12EngineConfig4initpEB8_
FNDA:0,_RINvMsc_NtCsiL6gS0SCXXG_9wp_config6engineNtB6_12EngineConfig4loadpEB8_
FNDA:0,_RNvMsc_NtCsiL6gS0SCXXG_9wp_config6engineNtB5_12EngineConfig10sinks_root
FNDA:0,_RNvMsc_NtCsiL6gS0SCXXG_9wp_config6engineNtB5_12EngineConfig10skip_parse
FNDA:0,_RNvMsc_NtCsiL6gS0SCXXG_9wp_config6engineNtB5_12EngineConfig11gen_default
FNDA:0,_RNvMsc_NtCsiL6gS0SCXXG_9wp_config6engineNtB5_12EngineConfig11rescue_root
FNDA:0,_RNvMsc_NtCsiL6gS0SCXXG_9wp_config6engineNtB5_12EngineConfig11speed_limit
FNDA:0,_RNvMsc_NtCsiL6gS0SCXXG_9wp_config6engineNtB5_12EngineConfig11src_conf_of
FNDA:0,_RNvMsc_NtCsiL6gS0SCXXG_9wp_config6engineNtB5_12EngineConfig13set_rule_root
FNDA:0,_RNvMsc_NtCsiL6gS0SCXXG_9wp_config6engineNtB5_12EngineConfig17reload_timeout_ms
FNDA:0,_RNvMsc_NtCsiL6gS0SCXXG_9wp_config6engineNtB5_12EngineConfig6robust
FNDA:0,_RNvMsc_NtCsiL6gS0SCXXG_9wp_config6engineNtB5_12EngineConfig7version
FNDA:0,_RNvMsc_NtCsiL6gS0SCXXG_9wp_config6engineNtB5_12EngineConfig8log_conf
FNDA:0,_RNvMsc_NtCsiL6gS0SCXXG_9wp_config6engineNtB5_12EngineConfig8oml_root
FNDA:0,_RNvMsc_NtCsiL6gS0SCXXG_9wp_config6engineNtB5_12EngineConfig8parallel
FNDA:0,_RNvMsc_NtCsiL6gS0SCXXG_9wp_config6engineNtB5_12EngineConfig8src_root
FNDA:0,_RNvMsc_NtCsiL6gS0SCXXG_9wp_config6engineNtB5_12EngineConfig8wpl_root
FNDA:0,_RNvMsc_NtCsiL6gS0SCXXG_9wp_config6engineNtB5_12EngineConfig9rule_root
FNDA:0,_RNvMsc_NtCsiL6gS0SCXXG_9wp_config6engineNtB5_12EngineConfig9sink_root
FNDA:0,_RNvMsc_NtCsiL6gS0SCXXG_9wp_config6engineNtB5_12EngineConfig9skip_sink
FNDA:0,_RNvMsc_NtCsiL6gS0SCXXG_9wp_config6engineNtB5_12EngineConfig9stat_conf
FNDA:2,_RNvMsc_NtCsiL6gS0SCXXG_9wp_config6engineNtB5_12EngineConfig14knowledge_root
FNDA:4,_RNvMsc_NtCsiL6gS0SCXXG_9wp_config6engineNtB5_12EngineConfig14project_remote
FNDA:2,_RNvMsc_NtCsiL6gS0SCXXG_9wp_config6engineNtB5_12EngineConfig8semantic
FNDA:4,_RNvMsc_NtCsiL6gS0SCXXG_9wp_config6engineNtB5_12EngineConfig9admin_api
FNDA:28,_RNvNtCsiL6gS0SCXXG_9wp_config6engine14normalize_path
FNDA:9,_RNvNtCsiL6gS0SCXXG_9wp_config6engine15default_version
FNDA:9,_RNvNtCsiL6gS0SCXXG_9wp_config6engine16default_oml_root
FNDA:9,_RNvNtCsiL6gS0SCXXG_9wp_config6engine16default_wpl_root
FNDA:9,_RNvNtCsiL6gS0SCXXG_9wp_config6engine18default_sinks_root
FNDA:7,_RNvNtCsiL6gS0SCXXG_9wp_config6engine19default_models_conf
FNDA:9,_RNvNtCsiL6gS0SCXXG_9wp_config6engine19default_rescue_path
FNDA:0,_RNvNtCsiL6gS0SCXXG_9wp_config6engine19default_speed_limit
FNDA:25,_RNvNtCsiL6gS0SCXXG_9wp_config6engine19resolve_engine_path
FNDA:9,_RNvNtCsiL6gS0SCXXG_9wp_config6engine20default_sources_root
FNDA:0,_RNvNtCsiL6gS0SCXXG_9wp_config6engine21default_parse_workers
FNDA:9,_RNvNtCsiL6gS0SCXXG_9wp_config6engine21default_topology_conf
FNDA:10,_RNvNtCsiL6gS0SCXXG_9wp_config6engine22default_admin_api_bind
FNDA:7,_RNvNtCsiL6gS0SCXXG_9wp_config6engine22default_knowledge_root
FNDA:9,_RNvNtCsiL6gS0SCXXG_9wp_config6engine25default_reload_timeout_ms
FNDA:10,_RNvNtCsiL6gS0SCXXG_9wp_config6engine27default_admin_api_auth_mode
FNDA:9,_RNvNtCsiL6gS0SCXXG_9wp_config6engine28default_admin_api_token_file
FNDA:10,_RNvNtCsiL6gS0SCXXG_9wp_config6engine32default_admin_api_max_body_bytes
FNDA:10,_RNvNtCsiL6gS0SCXXG_9wp_config6engine36default_admin_api_request_timeout_ms
FNDA:1,_RNvXs0_NtCsiL6gS0SCXXG_9wp_config6engineNtB5_15AdminApiTlsConfINtNtNtCsfv6z1NgKsoT_13orion_variate4vars5types12EnvEvaluableBC_E8env_eval
FNDA:9,_RNvXs1_NtCsiL6gS0SCXXG_9wp_config6engineNtB5_16AdminApiAuthConfNtNtCsaNl6UpbT7bw_4core7default7Default7default
FNDA:1,_RNvXs2_NtCsiL6gS0SCXXG_9wp_config6engineNtB5_16AdminApiAuthConfINtNtNtCsfv6z1NgKsoT_13orion_variate4vars5types12EnvEvaluableBC_E8env_eval
FNDA:9,_RNvXs3_NtCsiL6gS0SCXXG_9wp_config6engineNtB5_12AdminApiConfNtNtCsaNl6UpbT7bw_4core7default7Default7default
FNDA:1,_RNvXs4_NtCsiL6gS0SCXXG_9wp_config6engineNtB5_12AdminApiConfINtNtNtCsfv6z1NgKsoT_13orion_variate4vars5types12EnvEvaluableBC_E8env_eval
FNDA:9,_RNvXs5_NtCsiL6gS0SCXXG_9wp_config6engineNtB5_10RescueConfNtNtCsaNl6UpbT7bw_4core7default7Default7default
FNDA:1,_RNvXs6_NtCsiL6gS0SCXXG_9wp_config6engineNtB5_10RescueConfINtNtNtCsfv6z1NgKsoT_13orion_variate4vars5types12EnvEvaluableBC_E8env_eval
FNDA:1,_RNvXs7_NtCsiL6gS0SCXXG_9wp_config6engineNtB5_10ModelsConfINtNtNtCsfv6z1NgKsoT_13orion_variate4vars5types12EnvEvaluableBC_E8env_eval
FNDA:1,_RNvXs8_NtCsiL6gS0SCXXG_9wp_config6engineNtB5_12TopologyConfINtNtNtCsfv6z1NgKsoT_13orion_variate4vars5types12EnvEvaluableBC_E8env_eval
FNDA:9,_RNvXs9_NtCsiL6gS0SCXXG_9wp_config6engineNtB5_15PerformanceConfNtNtCsaNl6UpbT7bw_4core7default7Default7default
FNDA:1,_RNvXs_NtCsiL6gS0SCXXG_9wp_config6engineNtB4_17ProjectRemoteConfINtNtNtCsfv6z1NgKsoT_13orion_variate4vars5types12EnvEvaluableBB_E8env_eval
FNDA:1,_RNvXsa_NtCsiL6gS0SCXXG_9wp_config6engineNtB5_12EngineConfigINtNtNtCsfv6z1NgKsoT_13orion_variate4vars5types12EnvEvaluableBC_E8env_eval
FNDA:3,_RNvXsb_NtCsiL6gS0SCXXG_9wp_config6engineNtB5_12EngineConfigNtNtCsaNl6UpbT7bw_4core7default7Default7default
FNDA:1,_RNvXs_NtNtCsiL6gS0SCXXG_9wp_config6engine5testsNtB4_12HomeOverrideNtNtNtCsaNl6UpbT7bw_4core3ops4drop4Drop4drop
FNDA:3,_RINvMsc_NtCsiL6gS0SCXXG_9wp_config6engineNtB6_12EngineConfig15conf_absolutizeReEB8_
FNDA:1,_RINvMsc_NtCs48GgPJaqr2Q_9wp_config6engineNtB6_12EngineConfig12load_or_initRNtNtCsht3nMU9UgFu_3std4path7PathBufECs1peygmGMWS6_7wp_proj
FNDA:0,_RINvMsc_NtCs48GgPJaqr2Q_9wp_config6engineNtB6_12EngineConfig4initRNtNtCsht3nMU9UgFu_3std4path7PathBufECs1peygmGMWS6_7wp_proj
FNDA:1,_RINvMsc_NtCs48GgPJaqr2Q_9wp_config6engineNtB6_12EngineConfig4initRRNtNtCsht3nMU9UgFu_3std4path7PathBufECs1peygmGMWS6_7wp_proj
FNDA:18,_RINvMsc_NtCs48GgPJaqr2Q_9wp_config6engineNtB6_12EngineConfig12load_or_initRNtNtCsht3nMU9UgFu_3std4path7PathBufECsloybdjb1c3E_7wp_proj
FNDA:4,_RINvMsc_NtCs48GgPJaqr2Q_9wp_config6engineNtB6_12EngineConfig15conf_absolutizeRNtNtCsiTraAjBDcu4_5alloc6string6StringECsloybdjb1c3E_7wp_proj
FNDA:1,_RINvMsc_NtCs48GgPJaqr2Q_9wp_config6engineNtB6_12EngineConfig15conf_absolutizeReECsloybdjb1c3E_7wp_proj
FNDA:2,_RINvMsc_NtCs48GgPJaqr2Q_9wp_config6engineNtB6_12EngineConfig4initRNtNtCsht3nMU9UgFu_3std4path4PathECsloybdjb1c3E_7wp_proj
FNDA:0,_RINvMsc_NtCs48GgPJaqr2Q_9wp_config6engineNtB6_12EngineConfig4initRNtNtCsht3nMU9UgFu_3std4path7PathBufECsloybdjb1c3E_7wp_proj
FNDA:4,_RINvMsc_NtCs48GgPJaqr2Q_9wp_config6engineNtB6_12EngineConfig4initRNtNtCsiTraAjBDcu4_5alloc6string6StringECsloybdjb1c3E_7wp_proj
FNDA:10,_RINvMsc_NtCs48GgPJaqr2Q_9wp_config6engineNtB6_12EngineConfig4initRRNtNtCsht3nMU9UgFu_3std4path7PathBufECsloybdjb1c3E_7wp_proj
FNDA:7,_RINvMsc_NtCs48GgPJaqr2Q_9wp_config6engineNtB6_12EngineConfig4initReECsloybdjb1c3E_7wp_proj
FNF:79
FNH:69
DA:26,46
DA:27,46
DA:28,46
DA:29,46
DA:30,46
DA:44,46
DA:45,46
DA:46,46
DA:47,46
DA:48,46
DA:60,72
DA:61,72
DA:62,72
DA:63,72
DA:64,72
DA:65,72
DA:69,46
DA:70,46
DA:71,46
DA:72,46
DA:73,46
DA:93,72
DA:94,72
DA:95,72
DA:96,72
DA:97,72
DA:98,72
DA:99,72
DA:100,72
DA:101,72
DA:102,72
DA:106,46
DA:107,46
DA:108,46
DA:109,46
DA:110,46
DA:111,46
DA:121,33
DA:122,33
DA:123,33
DA:124,33
DA:125,33
DA:129,46
DA:130,46
DA:131,46
DA:132,46
DA:146,46
DA:147,46
DA:148,46
DA:149,46
DA:150,46
DA:151,46
DA:163,46
DA:164,46
DA:165,46
DA:166,46
DA:167,46
DA:180,35
DA:181,35
DA:182,35
DA:183,35
DA:184,35
DA:185,35
DA:186,35
DA:231,46
DA:232,46
DA:233,46
DA:234,46
DA:235,46
DA:236,46
DA:237,46
DA:238,46
DA:242,72
DA:243,72
DA:244,72
DA:246,31
DA:247,31
DA:248,31
DA:250,72
DA:251,72
DA:252,72
DA:254,72
DA:255,72
DA:256,72
DA:258,72
DA:259,72
DA:260,72
DA:262,72
DA:263,72
DA:264,72
DA:266,72
DA:267,72
DA:268,72
DA:270,0
DA:271,0
DA:272,0
DA:274,0
DA:275,0
DA:276,0
DA:278,74
DA:279,74
DA:280,74
DA:282,75
DA:283,75
DA:284,75
DA:286,75
DA:287,75
DA:288,75
DA:290,75
DA:291,75
DA:292,75
DA:294,73
DA:295,73
DA:296,73
DA:298,72
DA:299,72
DA:300,72
DA:302,33
DA:303,33
DA:304,33
DA:305,33
DA:306,33
DA:307,33
DA:309,31
DA:310,31
DA:311,31
DA:312,31
DA:313,31
DA:314,31
DA:315,31
DA:318,3
DA:319,3
DA:320,3
DA:321,3
DA:322,3
DA:323,3
DA:324,3
DA:325,3
DA:326,3
DA:327,3
DA:328,3
DA:329,3
DA:330,3
DA:331,3
DA:332,3
DA:333,3
DA:334,3
DA:338,39
DA:339,39
DA:340,39
DA:341,39
DA:342,39
DA:343,39
DA:344,39
DA:345,39
DA:346,39
DA:347,39
DA:348,39
DA:349,39
DA:350,39
DA:351,39
DA:352,39
DA:353,39
DA:354,39
DA:355,39
DA:356,39
DA:357,39
DA:358,39
DA:359,39
DA:360,39
DA:361,39
DA:362,39
DA:363,39
DA:364,39
DA:365,39
DA:366,39
DA:367,39
DA:368,39
DA:371,0
DA:372,0
DA:373,0
DA:375,50
DA:376,50
DA:377,50
DA:379,26
DA:380,26
DA:381,26
DA:383,17
DA:384,17
DA:385,17
DA:387,4
DA:388,4
DA:389,4
DA:391,16
DA:392,16
DA:393,16
DA:395,0
DA:396,0
DA:397,0
DA:399,0
DA:400,0
DA:401,0
DA:403,1
DA:404,1
DA:405,1
DA:407,0
DA:408,0
DA:409,0
DA:411,2
DA:412,2
DA:413,2
DA:415,26
DA:416,26
DA:417,26
DA:420,3
DA:421,3
DA:422,3
DA:424,1
DA:425,1
DA:426,1
DA:429,0
DA:430,0
DA:431,0
DA:432,0
DA:433,0
DA:434,0
DA:436,2
DA:437,2
DA:438,2
DA:440,4
DA:441,4
DA:442,4
DA:444,6
DA:445,6
DA:446,6
DA:448,2
DA:449,2
DA:450,2
DA:452,64
DA:453,64
DA:454,64
DA:455,64
DA:456,64
DA:457,64
DA:458,64
DA:459,64
DA:460,64
DA:461,1
DA:462,1
DA:463,63
DA:464,64
DA:465,1
DA:466,1
DA:467,63
DA:468,64
DA:469,64
DA:470,64
DA:471,64
DA:472,64
DA:473,64
DA:475,25
DA:477,25
DA:478,25
DA:479,11
DA:481,14
DA:482,14
DA:483,14
DA:484,14
DA:485,14
DA:486,0
DA:487,14
DA:488,14
DA:489,14
DA:491,25
DA:492,20
DA:494,20
DA:495,20
DA:496,20
DA:497,20
DA:498,20
DA:501,0
DA:502,0
DA:503,0
DA:506,7
DA:507,7
DA:508,7
DA:511,0
DA:514,0
DA:517,452
DA:518,452
DA:519,452
DA:520,56
DA:521,396
DA:524,396
DA:525,396
DA:526,452
DA:529,401
DA:530,401
DA:532,3804
DA:533,3804
DA:534,0
DA:535,0
DA:536,0
DA:539,3
DA:540,3
DA:541,3
DA:543,3801
DA:544,3801
DA:545,3801
DA:546,3801
DA:551,401
DA:552,4199
DA:553,3798
DA:554,3798
DA:555,401
DA:556,401
DA:563,1
DA:565,1
DA:566,1
DA:573,1
DA:574,1
DA:575,1
DA:576,1
DA:577,1
DA:578,1
DA:579,1
DA:583,1
DA:584,1
DA:585,1
DA:586,1
DA:587,1
DA:588,0
DA:589,0
DA:590,0
DA:592,1
DA:596,1
DA:597,1
DA:598,1
DA:599,1
DA:602,1
DA:603,1
DA:604,1
DA:605,1
DA:608,1
DA:609,1
DA:610,1
DA:611,1
DA:614,1
DA:615,1
DA:616,1
DA:617,1
DA:620,1
DA:621,1
DA:622,1
DA:623,1
DA:626,1
DA:627,1
DA:628,1
DA:629,1
DA:630,1
DA:633,1
DA:634,1
DA:635,1
DA:636,1
DA:637,1
DA:640,1
DA:641,1
DA:642,1
DA:643,1
DA:644,1
DA:645,1
DA:647,1
DA:648,1
DA:649,1
DA:652,1
DA:653,1
DA:654,1
DA:655,1
DA:656,1
DA:657,1
DA:659,1
DA:660,1
DA:661,1
DA:664,1
DA:665,1
DA:666,1
DA:667,1
DA:668,1
DA:669,1
DA:671,1
DA:672,1
DA:673,1
DA:676,1
DA:677,1
DA:678,1
DA:679,1
DA:680,1
DA:681,1
DA:683,1
DA:684,1
DA:685,1
DA:686,1
DA:689,1
DA:690,1
DA:691,1
DA:692,1
DA:693,1
DA:694,1
DA:695,1
DA:696,1
DA:698,1
DA:699,1
DA:700,1
DA:701,1
DA:704,1
DA:705,1
DA:708,1
DA:709,1
DA:710,1
DA:711,1
DA:712,1
DA:713,1
DA:715,1
DA:716,1
DA:717,1
DA:720,1
DA:721,1
DA:722,1
DA:723,1
DA:724,0
DA:726,1
DA:727,1
DA:728,0
DA:730,1
DA:733,1
DA:734,1
DA:735,1
DA:736,1
DA:738,1
DA:739,1
DA:740,1
DA:742,1
DA:743,1
DA:744,1
DA:745,1
DA:746,1
DA:747,1
DA:748,1
DA:750,1
DA:753,1
DA:754,1
DA:755,1
DA:756,1
DA:757,1
DA:758,1
DA:759,1
DA:760,1
DA:761,1
DA:762,1
DA:763,1
DA:764,1
DA:765,1
DA:766,1
DA:767,1
DA:768,1
DA:769,1
DA:770,1
DA:771,1
DA:772,1
DA:774,1
DA:775,1
DA:776,1
DA:777,1
DA:780,1
BRF:0
BRH:0
LF:475
LH:437
end_of_record
SF:/Users/zwk/src_code/wp-labs/wp-motor/crates/wp-config/src/error.rs
FN:23,_RNvXNtCsiL6gS0SCXXG_9wp_config5errorNtB2_11DataErrKindINtNtCsaNl6UpbT7bw_4core7convert4FromNtNtCsiTraAjBDcu4_5alloc6string6StringE4from
FNDA:0,_RNvXNtCsiL6gS0SCXXG_9wp_config5errorNtB2_11DataErrKindINtNtCsaNl6UpbT7bw_4core7convert4FromNtNtCsiTraAjBDcu4_5alloc6string6StringE4from
FNF:1
FNH:0
DA:23,0
DA:24,0
DA:25,0
BRF:0
BRH:0
LF:3
LH:0
end_of_record
SF:/Users/zwk/src_code/wp-labs/wp-motor/crates/wp-config/src/generator/speed_profile.rs
FN:174,_RNCNvMs_NtNtCs48GgPJaqr2Q_9wp_config9generator13speed_profileNtB6_18SpeedProfileConfig9base_rates_0Ba_
FN:181,_RNvMs_NtNtCs48GgPJaqr2Q_9wp_config9generator13speed_profileNtB4_18SpeedProfileConfig11is_constant
FN:163,_RNvMs_NtNtCs48GgPJaqr2Q_9wp_config9generator13speed_profileNtB4_18SpeedProfileConfig9base_rate
FN:156,_RNvXNtNtCs48GgPJaqr2Q_9wp_config9generator13speed_profileNtB2_18SpeedProfileConfigNtNtCsaNl6UpbT7bw_4core7default7Default7default
FN:181,_RNvMs_NtNtCsiL6gS0SCXXG_9wp_config9generator13speed_profileNtB4_18SpeedProfileConfig11is_constant
FN:163,_RNvMs_NtNtCsiL6gS0SCXXG_9wp_config9generator13speed_profileNtB4_18SpeedProfileConfig9base_rate
FN:156,_RNvXNtNtCsiL6gS0SCXXG_9wp_config9generator13speed_profileNtB2_18SpeedProfileConfigNtNtCsaNl6UpbT7bw_4core7default7Default7default
FN:174,_RNCNvMs_NtNtCsiL6gS0SCXXG_9wp_config9generator13speed_profileNtB6_18SpeedProfileConfig9base_rates_0Ba_
FN:274,_RNvNtNtNtCsiL6gS0SCXXG_9wp_config9generator13speed_profile5testss_16test_ramp_config
FN:248,_RNvNtNtNtCsiL6gS0SCXXG_9wp_config9generator13speed_profile5testss_17test_burst_config
FN:228,_RNvNtNtNtCsiL6gS0SCXXG_9wp_config9generator13speed_profile5testss_19test_stepped_config
FN:191,_RNvNtNtNtCsiL6gS0SCXXG_9wp_config9generator13speed_profile5testss_20test_constant_config
FN:313,_RNvNtNtNtCsiL6gS0SCXXG_9wp_config9generator13speed_profile5testss_21test_composite_config
FN:205,_RNvNtNtNtCsiL6gS0SCXXG_9wp_config9generator13speed_profile5testss_22test_sinusoidal_config
FN:297,_RNvNtNtNtCsiL6gS0SCXXG_9wp_config9generator13speed_profile5testss_23test_random_walk_config
FN:367,_RNvNtNtNtCsiL6gS0SCXXG_9wp_config9generator13speed_profile5testss_24test_serialize_roundtrip
FN:340,_RNvNtNtNtCsiL6gS0SCXXG_9wp_config9generator13speed_profile5testss_25test_default_combine_mode
FN:355,_RNvNtNtNtCsiL6gS0SCXXG_9wp_config9generator13speed_profile5testss_25test_stepped_default_loop
FNDA:0,_RNCNvMs_NtNtCs48GgPJaqr2Q_9wp_config9generator13speed_profileNtB6_18SpeedProfileConfig9base_rates_0Ba_
FNDA:0,_RNvMs_NtNtCs48GgPJaqr2Q_9wp_config9generator13speed_profileNtB4_18SpeedProfileConfig11is_constant
FNDA:0,_RNvMs_NtNtCs48GgPJaqr2Q_9wp_config9generator13speed_profileNtB4_18SpeedProfileConfig9base_rate
FNDA:0,_RNvXNtNtCs48GgPJaqr2Q_9wp_config9generator13speed_profileNtB2_18SpeedProfileConfigNtNtCsaNl6UpbT7bw_4core7default7Default7default
FNDA:0,_RNvMs_NtNtCsiL6gS0SCXXG_9wp_config9generator13speed_profileNtB4_18SpeedProfileConfig11is_constant
FNDA:2,_RNvMs_NtNtCsiL6gS0SCXXG_9wp_config9generator13speed_profileNtB4_18SpeedProfileConfig9base_rate
FNDA:0,_RNvXNtNtCsiL6gS0SCXXG_9wp_config9generator13speed_profileNtB2_18SpeedProfileConfigNtNtCsaNl6UpbT7bw_4core7default7Default7default
FNDA:0,_RNCNvMs_NtNtCsiL6gS0SCXXG_9wp_config9generator13speed_profileNtB6_18SpeedProfileConfig9base_rates_0Ba_
FNDA:1,_RNvNtNtNtCsiL6gS0SCXXG_9wp_config9generator13speed_profile5testss_16test_ramp_config
FNDA:1,_RNvNtNtNtCsiL6gS0SCXXG_9wp_config9generator13speed_profile5testss_17test_burst_config
FNDA:1,_RNvNtNtNtCsiL6gS0SCXXG_9wp_config9generator13speed_profile5testss_19test_stepped_config
FNDA:1,_RNvNtNtNtCsiL6gS0SCXXG_9wp_config9generator13speed_profile5testss_20test_constant_config
FNDA:1,_RNvNtNtNtCsiL6gS0SCXXG_9wp_config9generator13speed_profile5testss_21test_composite_config
FNDA:1,_RNvNtNtNtCsiL6gS0SCXXG_9wp_config9generator13speed_profile5testss_22test_sinusoidal_config
FNDA:1,_RNvNtNtNtCsiL6gS0SCXXG_9wp_config9generator13speed_profile5testss_23test_random_walk_config
FNDA:1,_RNvNtNtNtCsiL6gS0SCXXG_9wp_config9generator13speed_profile5testss_24test_serialize_roundtrip
FNDA:1,_RNvNtNtNtCsiL6gS0SCXXG_9wp_config9generator13speed_profile5testss_25test_default_combine_mode
FNDA:1,_RNvNtNtNtCsiL6gS0SCXXG_9wp_config9generator13speed_profile5testss_25test_stepped_default_loop
FNF:14
FNH:11
DA:156,0
DA:157,0
DA:158,0
DA:163,2
DA:164,2
DA:165,2
DA:166,0
DA:167,0
DA:168,0
DA:170,0
DA:171,0
DA:172,0
DA:173,0
DA:174,0
DA:175,0
DA:178,2
DA:181,0
DA:182,0
DA:183,0
DA:191,1
DA:192,1
DA:193,1
DA:194,1
DA:195,1
DA:196,1
DA:197,1
DA:198,1
DA:201,1
DA:202,1
DA:205,1
DA:206,1
DA:207,1
DA:208,1
DA:209,1
DA:210,1
DA:211,1
DA:212,1
DA:214,1
DA:215,1
DA:216,1
DA:217,1
DA:219,1
DA:220,1
DA:221,1
DA:223,0
DA:225,1
DA:228,1
DA:229,1
DA:230,1
DA:231,1
DA:232,1
DA:233,1
DA:234,1
DA:236,1
DA:237,1
DA:238,1
DA:240,1
DA:241,1
DA:243,0
DA:245,1
DA:248,1
DA:249,1
DA:250,1
DA:251,1
DA:252,1
DA:253,1
DA:254,1
DA:255,1
DA:256,1
DA:258,1
DA:259,1
DA:260,1
DA:261,1
DA:262,1
DA:264,1
DA:265,1
DA:266,1
DA:267,1
DA:269,0
DA:271,1
DA:274,1
DA:275,1
DA:276,1
DA:277,1
DA:278,1
DA:279,1
DA:280,1
DA:281,1
DA:283,1
DA:284,1
DA:285,1
DA:286,1
DA:288,1
DA:289,1
DA:290,1
DA:292,0
DA:294,1
DA:297,1
DA:298,1
DA:299,1
DA:300,1
DA:301,1
DA:302,1
DA:303,1
DA:304,1
DA:305,1
DA:306,1
DA:308,0
DA:310,1
DA:313,1
DA:314,1
DA:315,1
DA:316,1
DA:317,1
DA:318,1
DA:319,1
DA:320,1
DA:321,1
DA:322,1
DA:323,1
DA:324,1
DA:325,1
DA:326,1
DA:328,1
DA:329,1
DA:330,1
DA:332,1
DA:333,1
DA:335,0
DA:337,1
DA:340,1
DA:341,1
DA:342,1
DA:343,1
DA:344,1
DA:345,1
DA:346,1
DA:347,1
DA:348,1
DA:349,1
DA:350,1
DA:351,0
DA:352,1
DA:355,1
DA:356,1
DA:357,1
DA:358,1
DA:359,1
DA:360,1
DA:361,1
DA:362,1
DA:363,0
DA:364,1
DA:367,1
DA:368,1
DA:369,1
DA:370,1
DA:371,1
DA:372,1
DA:373,1
DA:374,1
DA:375,1
DA:376,1
BRF:0
BRH:0
LF:164
LH:140
end_of_record
SF:/Users/zwk/src_code/wp-labs/wp-motor/crates/wp-config/src/generator/wpgen.rs
FN:132,_RNvMs1_NtNtCs48GgPJaqr2Q_9wp_config9generator5wpgenNtB5_11WpGenConfig8validate
FN:148,_RNvMs2_NtNtCs48GgPJaqr2Q_9wp_config9generator5wpgenNtB5_13LoggingConfig11to_log_conf
FN:62,_RNvMs_NtNtCs48GgPJaqr2Q_9wp_config9generator5wpgenNtB4_15GeneratorConfig10base_speed
FN:72,_RNvMs_NtNtCs48GgPJaqr2Q_9wp_config9generator5wpgenNtB4_15GeneratorConfig17get_speed_profile
FN:79,_RNvMs_NtNtCs48GgPJaqr2Q_9wp_config9generator5wpgenNtB4_15GeneratorConfig17is_constant_speed
FN:44,_RNvXNtNtCs48GgPJaqr2Q_9wp_config9generator5wpgenNtB2_15GeneratorConfigNtNtCsaNl6UpbT7bw_4core7default7Default7default
FN:107,_RNvXs0_NtNtCs48GgPJaqr2Q_9wp_config9generator5wpgenNtB5_12OutputConfigNtNtCsaNl6UpbT7bw_4core7default7Default7default
FN:229,_RNvXs4_NtNtCs48GgPJaqr2Q_9wp_config9generator5wpgenNtB5_11WpGenConfigNtNtCsg0PsmjmNqSl_12wp_conf_base9structure16ConfStdOperation10safe_clean
FN:214,_RNvXs4_NtNtCs48GgPJaqr2Q_9wp_config9generator5wpgenNtB5_11WpGenConfigNtNtCsg0PsmjmNqSl_12wp_conf_base9structure16ConfStdOperation4init
FN:207,_RNvXs4_NtNtCs48GgPJaqr2Q_9wp_config9generator5wpgenNtB5_11WpGenConfigNtNtCsg0PsmjmNqSl_12wp_conf_base9structure16ConfStdOperation4load
FN:188,_RINvMs3_NtNtCs48GgPJaqr2Q_9wp_config9generator5wpgenNtB6_11WpGenConfig12init_to_pathpEBa_
FN:183,_RINvMs3_NtNtCs48GgPJaqr2Q_9wp_config9generator5wpgenNtB6_11WpGenConfig14load_from_pathpEBa_
FN:201,_RINvMs3_NtNtCs48GgPJaqr2Q_9wp_config9generator5wpgenNtB6_11WpGenConfig18safe_clean_at_pathpEBa_
FN:65,_RNCNvMs_NtNtCs48GgPJaqr2Q_9wp_config9generator5wpgenNtB6_15GeneratorConfig10base_speed0Ba_
FN:82,_RNCNvMs_NtNtCs48GgPJaqr2Q_9wp_config9generator5wpgenNtB6_15GeneratorConfig17is_constant_speed0Ba_
FN:241,_RNvNtNtNtCsiL6gS0SCXXG_9wp_config9generator5wpgen5tests7tmp_dir
FN:253,_RNvNtNtNtCsiL6gS0SCXXG_9wp_config9generator5wpgen5testss_28to_log_conf_uses_plain_level
FN:267,_RNvNtNtNtCsiL6gS0SCXXG_9wp_config9generator5wpgen5testss_36wpgen_config_load_with_env_variables
FN:486,_RNvNtNtNtCsiL6gS0SCXXG_9wp_config9generator5wpgen5testss_36wpgen_config_with_speed_profile_ramp
FN:532,_RNvNtNtNtCsiL6gS0SCXXG_9wp_config9generator5wpgen5testss_39wpgen_config_with_speed_profile_stepped
FN:403,_RNvNtNtNtCsiL6gS0SCXXG_9wp_config9generator5wpgen5testss_40wpgen_config_with_speed_profile_constant
FN:362,_RNvNtNtNtCsiL6gS0SCXXG_9wp_config9generator5wpgen5testss_42wpgen_config_with_partial_env_substitution
FN:440,_RNvNtNtNtCsiL6gS0SCXXG_9wp_config9generator5wpgen5testss_42wpgen_config_with_speed_profile_sinusoidal
FN:330,_RNvNtNtNtCsiL6gS0SCXXG_9wp_config9generator5wpgen5testss_43wpgen_config_load_without_env_keeps_literal
FN:575,_RNvNtNtNtCsiL6gS0SCXXG_9wp_config9generator5wpgen5testss_45wpgen_config_without_speed_profile_uses_speed
FN:188,_RINvMs3_NtNtCsiL6gS0SCXXG_9wp_config9generator5wpgenNtB6_11WpGenConfig12init_to_pathpEBa_
FN:201,_RINvMs3_NtNtCsiL6gS0SCXXG_9wp_config9generator5wpgenNtB6_11WpGenConfig18safe_clean_at_pathpEBa_
FN:132,_RNvMs1_NtNtCsiL6gS0SCXXG_9wp_config9generator5wpgenNtB5_11WpGenConfig8validate
FN:107,_RNvXs0_NtNtCsiL6gS0SCXXG_9wp_config9generator5wpgenNtB5_12OutputConfigNtNtCsaNl6UpbT7bw_4core7default7Default7default
FN:229,_RNvXs4_NtNtCsiL6gS0SCXXG_9wp_config9generator5wpgenNtB5_11WpGenConfigNtNtCsg0PsmjmNqSl_12wp_conf_base9structure16ConfStdOperation10safe_clean
FN:214,_RNvXs4_NtNtCsiL6gS0SCXXG_9wp_config9generator5wpgenNtB5_11WpGenConfigNtNtCsg0PsmjmNqSl_12wp_conf_base9structure16ConfStdOperation4init
FN:207,_RNvXs4_NtNtCsiL6gS0SCXXG_9wp_config9generator5wpgenNtB5_11WpGenConfigNtNtCsg0PsmjmNqSl_12wp_conf_base9structure16ConfStdOperation4load
FN:318,_RNCNvNtNtNtCsiL6gS0SCXXG_9wp_config9generator5wpgen5testss_36wpgen_config_load_with_env_variables0B9_
FN:322,_RNCNvNtNtNtCsiL6gS0SCXXG_9wp_config9generator5wpgen5testss_36wpgen_config_load_with_env_variabless_0B9_
FN:148,_RNvMs2_NtNtCsiL6gS0SCXXG_9wp_config9generator5wpgenNtB5_13LoggingConfig11to_log_conf
FN:62,_RNvMs_NtNtCsiL6gS0SCXXG_9wp_config9generator5wpgenNtB4_15GeneratorConfig10base_speed
FN:72,_RNvMs_NtNtCsiL6gS0SCXXG_9wp_config9generator5wpgenNtB4_15GeneratorConfig17get_speed_profile
FN:79,_RNvMs_NtNtCsiL6gS0SCXXG_9wp_config9generator5wpgenNtB4_15GeneratorConfig17is_constant_speed
FN:44,_RNvXNtNtCsiL6gS0SCXXG_9wp_config9generator5wpgenNtB2_15GeneratorConfigNtNtCsaNl6UpbT7bw_4core7default7Default7default
FN:183,_RINvMs3_NtNtCsiL6gS0SCXXG_9wp_config9generator5wpgenNtB6_11WpGenConfig14load_from_pathRNtNtCsht3nMU9UgFu_3std4path7PathBufEBa_
FN:65,_RNCNvMs_NtNtCsiL6gS0SCXXG_9wp_config9generator5wpgenNtB6_15GeneratorConfig10base_speed0Ba_
FN:82,_RNCNvMs_NtNtCsiL6gS0SCXXG_9wp_config9generator5wpgenNtB6_15GeneratorConfig17is_constant_speed0Ba_
FNDA:6,_RNvMs1_NtNtCs48GgPJaqr2Q_9wp_config9generator5wpgenNtB5_11WpGenConfig8validate
FNDA:0,_RNvMs2_NtNtCs48GgPJaqr2Q_9wp_config9generator5wpgenNtB5_13LoggingConfig11to_log_conf
FNDA:0,_RNvMs_NtNtCs48GgPJaqr2Q_9wp_config9generator5wpgenNtB4_15GeneratorConfig10base_speed
FNDA:0,_RNvMs_NtNtCs48GgPJaqr2Q_9wp_config9generator5wpgenNtB4_15GeneratorConfig17get_speed_profile
FNDA:0,_RNvMs_NtNtCs48GgPJaqr2Q_9wp_config9generator5wpgenNtB4_15GeneratorConfig17is_constant_speed
FNDA:9,_RNvXNtNtCs48GgPJaqr2Q_9wp_config9generator5wpgenNtB2_15GeneratorConfigNtNtCsaNl6UpbT7bw_4core7default7Default7default
FNDA:1,_RNvXs0_NtNtCs48GgPJaqr2Q_9wp_config9generator5wpgenNtB5_12OutputConfigNtNtCsaNl6UpbT7bw_4core7default7Default7default
FNDA:1,_RNvXs4_NtNtCs48GgPJaqr2Q_9wp_config9generator5wpgenNtB5_11WpGenConfigNtNtCsg0PsmjmNqSl_12wp_conf_base9structure16ConfStdOperation10safe_clean
FNDA:1,_RNvXs4_NtNtCs48GgPJaqr2Q_9wp_config9generator5wpgenNtB5_11WpGenConfigNtNtCsg0PsmjmNqSl_12wp_conf_base9structure16ConfStdOperation4init
FNDA:1,_RNvXs4_NtNtCs48GgPJaqr2Q_9wp_config9generator5wpgenNtB5_11WpGenConfigNtNtCsg0PsmjmNqSl_12wp_conf_base9structure16ConfStdOperation4load
FNDA:0,_RINvMs3_NtNtCs48GgPJaqr2Q_9wp_config9generator5wpgenNtB6_11WpGenConfig12init_to_pathpEBa_
FNDA:0,_RINvMs3_NtNtCs48GgPJaqr2Q_9wp_config9generator5wpgenNtB6_11WpGenConfig14load_from_pathpEBa_
FNDA:0,_RINvMs3_NtNtCs48GgPJaqr2Q_9wp_config9generator5wpgenNtB6_11WpGenConfig18safe_clean_at_pathpEBa_
FNDA:0,_RNCNvMs_NtNtCs48GgPJaqr2Q_9wp_config9generator5wpgenNtB6_15GeneratorConfig10base_speed0Ba_
FNDA:0,_RNCNvMs_NtNtCs48GgPJaqr2Q_9wp_config9generator5wpgenNtB6_15GeneratorConfig17is_constant_speed0Ba_
FNDA:8,_RNvNtNtNtCsiL6gS0SCXXG_9wp_config9generator5wpgen5tests7tmp_dir
FNDA:1,_RNvNtNtNtCsiL6gS0SCXXG_9wp_config9generator5wpgen5testss_28to_log_conf_uses_plain_level
FNDA:1,_RNvNtNtNtCsiL6gS0SCXXG_9wp_config9generator5wpgen5testss_36wpgen_config_load_with_env_variables
FNDA:1,_RNvNtNtNtCsiL6gS0SCXXG_9wp_config9generator5wpgen5testss_36wpgen_config_with_speed_profile_ramp
FNDA:1,_RNvNtNtNtCsiL6gS0SCXXG_9wp_config9generator5wpgen5testss_39wpgen_config_with_speed_profile_stepped
FNDA:1,_RNvNtNtNtCsiL6gS0SCXXG_9wp_config9generator5wpgen5testss_40wpgen_config_with_speed_profile_constant
FNDA:1,_RNvNtNtNtCsiL6gS0SCXXG_9wp_config9generator5wpgen5testss_42wpgen_config_with_partial_env_substitution
FNDA:1,_RNvNtNtNtCsiL6gS0SCXXG_9wp_config9generator5wpgen5testss_42wpgen_config_with_speed_profile_sinusoidal
FNDA:1,_RNvNtNtNtCsiL6gS0SCXXG_9wp_config9generator5wpgen5testss_43wpgen_config_load_without_env_keeps_literal
FNDA:1,_RNvNtNtNtCsiL6gS0SCXXG_9wp_config9generator5wpgen5testss_45wpgen_config_without_speed_profile_uses_speed
FNDA:0,_RINvMs3_NtNtCsiL6gS0SCXXG_9wp_config9generator5wpgenNtB6_11WpGenConfig12init_to_pathpEBa_
FNDA:0,_RINvMs3_NtNtCsiL6gS0SCXXG_9wp_config9generator5wpgenNtB6_11WpGenConfig18safe_clean_at_pathpEBa_
FNDA:0,_RNvMs1_NtNtCsiL6gS0SCXXG_9wp_config9generator5wpgenNtB5_11WpGenConfig8validate
FNDA:0,_RNvXs0_NtNtCsiL6gS0SCXXG_9wp_config9generator5wpgenNtB5_12OutputConfigNtNtCsaNl6UpbT7bw_4core7default7Default7default
FNDA:0,_RNvXs4_NtNtCsiL6gS0SCXXG_9wp_config9generator5wpgenNtB5_11WpGenConfigNtNtCsg0PsmjmNqSl_12wp_conf_base9structure16ConfStdOperation10safe_clean
FNDA:0,_RNvXs4_NtNtCsiL6gS0SCXXG_9wp_config9generator5wpgenNtB5_11WpGenConfigNtNtCsg0PsmjmNqSl_12wp_conf_base9structure16ConfStdOperation4init
FNDA:0,_RNvXs4_NtNtCsiL6gS0SCXXG_9wp_config9generator5wpgenNtB5_11WpGenConfigNtNtCsg0PsmjmNqSl_12wp_conf_base9structure16ConfStdOperation4load
FNDA:1,_RNCNvNtNtNtCsiL6gS0SCXXG_9wp_config9generator5wpgen5testss_36wpgen_config_load_with_env_variables0B9_
FNDA:1,_RNCNvNtNtNtCsiL6gS0SCXXG_9wp_config9generator5wpgen5testss_36wpgen_config_load_with_env_variabless_0B9_
FNDA:1,_RNvMs2_NtNtCsiL6gS0SCXXG_9wp_config9generator5wpgenNtB5_13LoggingConfig11to_log_conf
FNDA:2,_RNvMs_NtNtCsiL6gS0SCXXG_9wp_config9generator5wpgenNtB4_15GeneratorConfig10base_speed
FNDA:1,_RNvMs_NtNtCsiL6gS0SCXXG_9wp_config9generator5wpgenNtB4_15GeneratorConfig17get_speed_profile
FNDA:1,_RNvMs_NtNtCsiL6gS0SCXXG_9wp_config9generator5wpgenNtB4_15GeneratorConfig17is_constant_speed
FNDA:8,_RNvXNtNtCsiL6gS0SCXXG_9wp_config9generator5wpgenNtB2_15GeneratorConfigNtNtCsaNl6UpbT7bw_4core7default7Default7default
FNDA:8,_RINvMs3_NtNtCsiL6gS0SCXXG_9wp_config9generator5wpgenNtB6_11WpGenConfig14load_from_pathRNtNtCsht3nMU9UgFu_3std4path7PathBufEBa_
FNDA:1,_RNCNvMs_NtNtCsiL6gS0SCXXG_9wp_config9generator5wpgenNtB6_15GeneratorConfig10base_speed0Ba_
FNDA:0,_RNCNvMs_NtNtCsiL6gS0SCXXG_9wp_config9generator5wpgenNtB6_15GeneratorConfig17is_constant_speed0Ba_
FNF:27
FNH:24
DA:44,17
DA:45,17
DA:46,17
DA:47,17
DA:48,17
DA:49,17
DA:50,17
DA:51,17
DA:52,17
DA:53,17
DA:54,17
DA:55,17
DA:62,2
DA:63,2
DA:64,2
DA:65,2
DA:66,2
DA:67,2
DA:72,1
DA:73,1
DA:74,1
DA:75,1
DA:76,1
DA:79,1
DA:80,1
DA:81,1
DA:82,1
DA:83,1
DA:84,1
DA:107,1
DA:108,1
DA:109,1
DA:110,1
DA:111,1
DA:112,1
DA:113,1
DA:132,6
DA:133,6
DA:134,6
DA:148,1
DA:150,1
DA:151,1
DA:152,1
DA:153,1
DA:155,1
DA:156,1
DA:157,0
DA:158,0
DA:159,0
DA:161,1
DA:162,1
DA:163,1
DA:164,1
DA:165,1
DA:166,1
DA:177,1
DA:183,8
DA:184,8
DA:185,8
DA:188,0
DA:189,0
DA:190,0
DA:191,0
DA:192,0
DA:193,0
DA:194,0
DA:195,0
DA:196,0
DA:197,0
DA:198,0
DA:201,0
DA:202,0
DA:203,0
DA:207,1
DA:208,1
DA:209,1
DA:211,1
DA:212,1
DA:214,1
DA:215,1
DA:216,1
DA:218,1
DA:219,1
DA:220,1
DA:221,1
DA:222,1
DA:223,1
DA:224,1
DA:225,1
DA:226,1
DA:227,1
DA:229,1
DA:230,1
DA:231,1
DA:241,8
DA:242,8
DA:243,8
DA:244,8
DA:245,8
DA:246,8
DA:247,8
DA:248,8
DA:249,8
DA:250,8
DA:253,1
DA:254,1
DA:255,1
DA:256,1
DA:257,1
DA:258,1
DA:259,1
DA:260,1
DA:261,1
DA:262,1
DA:263,1
DA:264,1
DA:267,1
DA:268,1
DA:269,1
DA:272,1
DA:273,1
DA:274,1
DA:275,1
DA:276,1
DA:277,1
DA:278,1
DA:279,1
DA:280,1
DA:281,1
DA:282,1
DA:283,1
DA:284,1
DA:285,1
DA:286,1
DA:287,1
DA:288,1
DA:289,1
DA:290,1
DA:291,1
DA:292,1
DA:293,1
DA:294,1
DA:295,1
DA:298,1
DA:299,1
DA:300,1
DA:301,1
DA:302,1
DA:303,1
DA:304,1
DA:305,1
DA:308,1
DA:311,1
DA:313,1
DA:315,1
DA:316,1
DA:317,1
DA:318,1
DA:321,1
DA:322,1
DA:325,1
DA:326,1
DA:327,1
DA:330,1
DA:331,1
DA:332,1
DA:335,1
DA:336,1
DA:337,1
DA:338,1
DA:339,1
DA:340,1
DA:341,1
DA:342,1
DA:343,1
DA:344,1
DA:345,1
DA:346,1
DA:347,1
DA:348,1
DA:349,1
DA:350,1
DA:352,1
DA:353,1
DA:355,1
DA:356,1
DA:357,1
DA:358,1
DA:359,1
DA:362,1
DA:363,1
DA:364,1
DA:367,1
DA:368,1
DA:369,1
DA:370,1
DA:371,1
DA:372,1
DA:373,1
DA:374,1
DA:375,1
DA:376,1
DA:377,1
DA:378,1
DA:379,1
DA:380,1
DA:381,1
DA:382,1
DA:383,1
DA:385,1
DA:386,1
DA:387,1
DA:389,1
DA:391,1
DA:393,1
DA:395,1
DA:396,1
DA:398,1
DA:400,1
DA:403,1
DA:404,1
DA:405,1
DA:407,1
DA:408,1
DA:409,1
DA:410,1
DA:411,1
DA:412,1
DA:413,1
DA:414,1
DA:415,1
DA:416,1
DA:417,1
DA:418,1
DA:419,1
DA:420,1
DA:421,1
DA:422,1
DA:423,1
DA:424,1
DA:425,1
DA:427,1
DA:428,1
DA:430,1
DA:431,1
DA:432,1
DA:433,1
DA:434,1
DA:437,1
DA:440,1
DA:441,1
DA:442,1
DA:444,1
DA:445,1
DA:446,1
DA:447,1
DA:448,1
DA:449,1
DA:450,1
DA:451,1
DA:452,1
DA:453,1
DA:454,1
DA:455,1
DA:456,1
DA:457,1
DA:458,1
DA:459,1
DA:460,1
DA:461,1
DA:462,1
DA:463,1
DA:464,1
DA:466,1
DA:467,1
DA:469,1
DA:470,1
DA:472,1
DA:473,1
DA:474,1
DA:475,1
DA:477,1
DA:478,1
DA:479,1
DA:481,0
DA:483,1
DA:486,1
DA:487,1
DA:488,1
DA:490,1
DA:491,1
DA:492,1
DA:493,1
DA:494,1
DA:495,1
DA:496,1
DA:497,1
DA:498,1
DA:499,1
DA:500,1
DA:501,1
DA:502,1
DA:503,1
DA:504,1
DA:505,1
DA:506,1
DA:507,1
DA:508,1
DA:509,1
DA:510,1
DA:512,1
DA:513,1
DA:515,1
DA:516,1
DA:518,1
DA:519,1
DA:520,1
DA:521,1
DA:523,1
DA:524,1
DA:525,1
DA:527,0
DA:529,1
DA:532,1
DA:533,1
DA:534,1
DA:536,1
DA:537,1
DA:538,1
DA:539,1
DA:540,1
DA:541,1
DA:542,1
DA:543,1
DA:544,1
DA:545,1
DA:546,1
DA:547,1
DA:548,1
DA:549,1
DA:550,1
DA:551,1
DA:552,1
DA:553,1
DA:554,1
DA:555,1
DA:557,1
DA:558,1
DA:560,1
DA:561,1
DA:563,1
DA:564,1
DA:565,1
DA:567,1
DA:568,1
DA:570,0
DA:572,1
DA:575,1
DA:576,1
DA:577,1
DA:579,1
DA:580,1
DA:581,1
DA:582,1
DA:583,1
DA:584,1
DA:585,1
DA:586,1
DA:587,1
DA:588,1
DA:589,1
DA:590,1
DA:591,1
DA:592,1
DA:593,1
DA:594,1
DA:596,1
DA:597,1
DA:599,1
DA:600,1
DA:601,1
DA:602,1
DA:605,1
DA:606,1
DA:607,1
DA:610,1
BRF:0
BRH:0
LF:390
LH:369
end_of_record
SF:/Users/zwk/src_code/wp-labs/wp-motor/crates/wp-config/src/limits.rs
FN:17,_RNvNtCs48GgPJaqr2Q_9wp_config6limits16sink_channel_cap
FN:9,_RNvNtCs48GgPJaqr2Q_9wp_config6limits18parser_channel_cap
FN:17,_RNvNtCsiL6gS0SCXXG_9wp_config6limits16sink_channel_cap
FN:9,_RNvNtCsiL6gS0SCXXG_9wp_config6limits18parser_channel_cap
FNDA:20,_RNvNtCs48GgPJaqr2Q_9wp_config6limits16sink_channel_cap
FNDA:0,_RNvNtCs48GgPJaqr2Q_9wp_config6limits18parser_channel_cap
FNDA:0,_RNvNtCsiL6gS0SCXXG_9wp_config6limits16sink_channel_cap
FNDA:0,_RNvNtCsiL6gS0SCXXG_9wp_config6limits18parser_channel_cap
FNF:2
FNH:1
DA:9,0
DA:10,0
DA:11,0
DA:17,20
DA:18,20
DA:19,20
BRF:0
BRH:0
LF:6
LH:3
end_of_record
SF:/Users/zwk/src_code/wp-labs/wp-motor/crates/wp-config/src/loader/batch.rs
FN:117,_RNCNvNtNtCs48GgPJaqr2Q_9wp_config6loader5batch15matches_pattern0B7_
FN:121,_RNCNvNtNtCs48GgPJaqr2Q_9wp_config6loader5batch15matches_patterns_0B7_
FN:93,_RINvNtNtCs48GgPJaqr2Q_9wp_config6loader5batch15load_from_pathspEB6_
FN:37,_RINvNtNtCs48GgPJaqr2Q_9wp_config6loader5batch17load_all_from_dirpEB6_
FN:99,_RNCINvNtNtCs48GgPJaqr2Q_9wp_config6loader5batch15load_from_pathspE0B8_
FN:55,_RNCINvNtNtCs48GgPJaqr2Q_9wp_config6loader5batch17load_all_from_dirpE0B8_
FN:62,_RNCINvNtNtCs48GgPJaqr2Q_9wp_config6loader5batch17load_all_from_dirpEs_0B8_
FN:203,_RNvNtNtNtCsiL6gS0SCXXG_9wp_config6loader5batch5testss_25matches_pattern_extension
FN:210,_RNvNtNtNtCsiL6gS0SCXXG_9wp_config6loader5batch5testss_26matches_pattern_exact_name
FN:178,_RNvNtNtNtCsiL6gS0SCXXG_9wp_config6loader5batch5testss_32load_from_paths_handles_multiple
FN:196,_RNvNtNtNtCsiL6gS0SCXXG_9wp_config6loader5batch5testss_32matches_pattern_star_matches_all
FN:151,_RNvNtNtNtCsiL6gS0SCXXG_9wp_config6loader5batch5testss_38load_all_from_dir_finds_matching_files
FN:167,_RNvNtNtNtCsiL6gS0SCXXG_9wp_config6loader5batch5testss_44load_all_from_dir_error_on_missing_directory
FN:143,_RNvXNtNtNtCsiL6gS0SCXXG_9wp_config6loader5batch5testsNtB2_10TestConfigNtNtB6_6traits12ConfigLoader13load_from_str
FN:139,_RNvXNtNtNtCsiL6gS0SCXXG_9wp_config6loader5batch5testsNtB2_10TestConfigNtNtB6_6traits12ConfigLoader16config_type_name
FN:93,_RINvNtNtCsiL6gS0SCXXG_9wp_config6loader5batch15load_from_pathsNtNtB2_5tests10TestConfigEB6_
FN:37,_RINvNtNtCsiL6gS0SCXXG_9wp_config6loader5batch17load_all_from_dirNtNtB2_5tests10TestConfigEB6_
FN:99,_RNCINvNtNtCsiL6gS0SCXXG_9wp_config6loader5batch15load_from_pathsNtNtB4_5tests10TestConfigE0B8_
FN:55,_RNCINvNtNtCsiL6gS0SCXXG_9wp_config6loader5batch17load_all_from_dirNtNtB4_5tests10TestConfigE0B8_
FN:62,_RNCINvNtNtCsiL6gS0SCXXG_9wp_config6loader5batch17load_all_from_dirNtNtB4_5tests10TestConfigEs_0B8_
FN:117,_RNCNvNtNtCsiL6gS0SCXXG_9wp_config6loader5batch15matches_pattern0B7_
FN:121,_RNCNvNtNtCsiL6gS0SCXXG_9wp_config6loader5batch15matches_patterns_0B7_
FN:109,_RNvNtNtCsiL6gS0SCXXG_9wp_config6loader5batch15matches_pattern
FNDA:0,_RNCNvNtNtCs48GgPJaqr2Q_9wp_config6loader5batch15matches_pattern0B7_
FNDA:0,_RNCNvNtNtCs48GgPJaqr2Q_9wp_config6loader5batch15matches_patterns_0B7_
FNDA:0,_RINvNtNtCs48GgPJaqr2Q_9wp_config6loader5batch15load_from_pathspEB6_
FNDA:0,_RINvNtNtCs48GgPJaqr2Q_9wp_config6loader5batch17load_all_from_dirpEB6_
FNDA:0,_RNCINvNtNtCs48GgPJaqr2Q_9wp_config6loader5batch15load_from_pathspE0B8_
FNDA:0,_RNCINvNtNtCs48GgPJaqr2Q_9wp_config6loader5batch17load_all_from_dirpE0B8_
FNDA:0,_RNCINvNtNtCs48GgPJaqr2Q_9wp_config6loader5batch17load_all_from_dirpEs_0B8_
FNDA:1,_RNvNtNtNtCsiL6gS0SCXXG_9wp_config6loader5batch5testss_25matches_pattern_extension
FNDA:1,_RNvNtNtNtCsiL6gS0SCXXG_9wp_config6loader5batch5testss_26matches_pattern_exact_name
FNDA:1,_RNvNtNtNtCsiL6gS0SCXXG_9wp_config6loader5batch5testss_32load_from_paths_handles_multiple
FNDA:1,_RNvNtNtNtCsiL6gS0SCXXG_9wp_config6loader5batch5testss_32matches_pattern_star_matches_all
FNDA:1,_RNvNtNtNtCsiL6gS0SCXXG_9wp_config6loader5batch5testss_38load_all_from_dir_finds_matching_files
FNDA:1,_RNvNtNtNtCsiL6gS0SCXXG_9wp_config6loader5batch5testss_44load_all_from_dir_error_on_missing_directory
FNDA:4,_RNvXNtNtNtCsiL6gS0SCXXG_9wp_config6loader5batch5testsNtB2_10TestConfigNtNtB6_6traits12ConfigLoader13load_from_str
FNDA:0,_RNvXNtNtNtCsiL6gS0SCXXG_9wp_config6loader5batch5testsNtB2_10TestConfigNtNtB6_6traits12ConfigLoader16config_type_name
FNDA:1,_RINvNtNtCsiL6gS0SCXXG_9wp_config6loader5batch15load_from_pathsNtNtB2_5tests10TestConfigEB6_
FNDA:2,_RINvNtNtCsiL6gS0SCXXG_9wp_config6loader5batch17load_all_from_dirNtNtB2_5tests10TestConfigEB6_
FNDA:2,_RNCINvNtNtCsiL6gS0SCXXG_9wp_config6loader5batch15load_from_pathsNtNtB4_5tests10TestConfigE0B8_
FNDA:0,_RNCINvNtNtCsiL6gS0SCXXG_9wp_config6loader5batch17load_all_from_dirNtNtB4_5tests10TestConfigE0B8_
FNDA:0,_RNCINvNtNtCsiL6gS0SCXXG_9wp_config6loader5batch17load_all_from_dirNtNtB4_5tests10TestConfigEs_0B8_
FNDA:6,_RNCNvNtNtCsiL6gS0SCXXG_9wp_config6loader5batch15matches_pattern0B7_
FNDA:3,_RNCNvNtNtCsiL6gS0SCXXG_9wp_config6loader5batch15matches_patterns_0B7_
FNDA:12,_RNvNtNtCsiL6gS0SCXXG_9wp_config6loader5batch15matches_pattern
FNF:16
FNH:13
DA:37,2
DA:38,2
DA:39,2
DA:41,2
DA:42,1
DA:43,1
DA:44,1
DA:45,1
DA:47,1
DA:48,0
DA:49,0
DA:50,0
DA:51,1
DA:53,1
DA:55,1
DA:56,0
DA:57,0
DA:58,0
DA:59,0
DA:61,4
DA:62,3
DA:63,0
DA:64,0
DA:65,0
DA:66,0
DA:68,3
DA:70,3
DA:71,2
DA:72,2
DA:73,1
DA:76,1
DA:77,2
DA:93,1
DA:94,1
DA:95,1
DA:97,1
DA:98,1
DA:99,2
DA:100,1
DA:101,1
DA:109,12
DA:111,12
DA:112,3
DA:113,9
DA:116,9
DA:117,6
DA:118,3
DA:121,3
DA:122,12
DA:139,0
DA:140,0
DA:141,0
DA:143,4
DA:144,4
DA:145,4
DA:146,4
DA:147,4
DA:151,1
DA:152,1
DA:155,1
DA:156,1
DA:157,1
DA:159,1
DA:160,1
DA:161,1
DA:163,1
DA:164,1
DA:167,1
DA:168,1
DA:169,1
DA:170,1
DA:171,1
DA:174,1
DA:175,1
DA:178,1
DA:179,1
DA:181,1
DA:182,1
DA:184,1
DA:185,1
DA:187,1
DA:188,1
DA:190,1
DA:191,1
DA:192,1
DA:193,1
DA:196,1
DA:197,1
DA:198,1
DA:199,1
DA:200,1
DA:203,1
DA:204,1
DA:205,1
DA:206,1
DA:207,1
DA:210,1
DA:211,1
DA:212,1
DA:213,1
DA:214,1
BRF:0
BRH:0
LF:108
LH:90
end_of_record
SF:/Users/zwk/src_code/wp-labs/wp-motor/crates/wp-config/src/loader/delegate.rs
FN:21,_RNvMNtNtCs48GgPJaqr2Q_9wp_config6loader8delegateINtB2_12ConfDelegatepE10safe_cleanB6_
FN:12,_RNvMNtNtCs48GgPJaqr2Q_9wp_config6loader8delegateINtB2_12ConfDelegatepE3newB6_
FN:18,_RNvMNtNtCs48GgPJaqr2Q_9wp_config6loader8delegateINtB2_12ConfDelegatepE4initB6_
FN:25,_RNvMNtNtCs48GgPJaqr2Q_9wp_config6loader8delegateINtB2_12ConfDelegatepE4loadB6_
FN:21,_RNvMNtNtCsiL6gS0SCXXG_9wp_config6loader8delegateINtB2_12ConfDelegatepE10safe_cleanB6_
FN:12,_RNvMNtNtCsiL6gS0SCXXG_9wp_config6loader8delegateINtB2_12ConfDelegatepE3newB6_
FN:18,_RNvMNtNtCsiL6gS0SCXXG_9wp_config6loader8delegateINtB2_12ConfDelegatepE4initB6_
FN:25,_RNvMNtNtCsiL6gS0SCXXG_9wp_config6loader8delegateINtB2_12ConfDelegatepE4loadB6_
FN:21,_RNvMNtNtCs48GgPJaqr2Q_9wp_config6loader8delegateINtB2_12ConfDelegateNtNtNtB6_9generator5wpgen11WpGenConfigE10safe_cleanCs6nUYaLIisfe_9wp_engine
FN:12,_RNvMNtNtCs48GgPJaqr2Q_9wp_config6loader8delegateINtB2_12ConfDelegateNtNtNtB6_9generator5wpgen11WpGenConfigE3newCs6nUYaLIisfe_9wp_engine
FN:18,_RNvMNtNtCs48GgPJaqr2Q_9wp_config6loader8delegateINtB2_12ConfDelegateNtNtNtB6_9generator5wpgen11WpGenConfigE4initCs6nUYaLIisfe_9wp_engine
FN:25,_RNvMNtNtCs48GgPJaqr2Q_9wp_config6loader8delegateINtB2_12ConfDelegateNtNtNtB6_9generator5wpgen11WpGenConfigE4loadCs6nUYaLIisfe_9wp_engine
FN:12,_RNvMNtNtCs48GgPJaqr2Q_9wp_config6loader8delegateINtB2_12ConfDelegateNtNtNtB6_9generator5wpgen11WpGenConfigE3newCsloybdjb1c3E_7wp_proj
FN:18,_RNvMNtNtCs48GgPJaqr2Q_9wp_config6loader8delegateINtB2_12ConfDelegateNtNtNtB6_9generator5wpgen11WpGenConfigE4initCsloybdjb1c3E_7wp_proj
FNDA:0,_RNvMNtNtCs48GgPJaqr2Q_9wp_config6loader8delegateINtB2_12ConfDelegatepE10safe_cleanB6_
FNDA:0,_RNvMNtNtCs48GgPJaqr2Q_9wp_config6loader8delegateINtB2_12ConfDelegatepE3newB6_
FNDA:0,_RNvMNtNtCs48GgPJaqr2Q_9wp_config6loader8delegateINtB2_12ConfDelegatepE4initB6_
FNDA:0,_RNvMNtNtCs48GgPJaqr2Q_9wp_config6loader8delegateINtB2_12ConfDelegatepE4loadB6_
FNDA:0,_RNvMNtNtCsiL6gS0SCXXG_9wp_config6loader8delegateINtB2_12ConfDelegatepE10safe_cleanB6_
FNDA:0,_RNvMNtNtCsiL6gS0SCXXG_9wp_config6loader8delegateINtB2_12ConfDelegatepE3newB6_
FNDA:0,_RNvMNtNtCsiL6gS0SCXXG_9wp_config6loader8delegateINtB2_12ConfDelegatepE4initB6_
FNDA:0,_RNvMNtNtCsiL6gS0SCXXG_9wp_config6loader8delegateINtB2_12ConfDelegatepE4loadB6_
FNDA:1,_RNvMNtNtCs48GgPJaqr2Q_9wp_config6loader8delegateINtB2_12ConfDelegateNtNtNtB6_9generator5wpgen11WpGenConfigE10safe_cleanCs6nUYaLIisfe_9wp_engine
FNDA:1,_RNvMNtNtCs48GgPJaqr2Q_9wp_config6loader8delegateINtB2_12ConfDelegateNtNtNtB6_9generator5wpgen11WpGenConfigE3newCs6nUYaLIisfe_9wp_engine
FNDA:1,_RNvMNtNtCs48GgPJaqr2Q_9wp_config6loader8delegateINtB2_12ConfDelegateNtNtNtB6_9generator5wpgen11WpGenConfigE4initCs6nUYaLIisfe_9wp_engine
FNDA:1,_RNvMNtNtCs48GgPJaqr2Q_9wp_config6loader8delegateINtB2_12ConfDelegateNtNtNtB6_9generator5wpgen11WpGenConfigE4loadCs6nUYaLIisfe_9wp_engine
FNDA:0,_RNvMNtNtCs48GgPJaqr2Q_9wp_config6loader8delegateINtB2_12ConfDelegateNtNtNtB6_9generator5wpgen11WpGenConfigE3newCsloybdjb1c3E_7wp_proj
FNDA:0,_RNvMNtNtCs48GgPJaqr2Q_9wp_config6loader8delegateINtB2_12ConfDelegateNtNtNtB6_9generator5wpgen11WpGenConfigE4initCsloybdjb1c3E_7wp_proj
FNF:4
FNH:4
DA:12,1
DA:13,1
DA:14,1
DA:15,1
DA:16,1
DA:17,1
DA:18,1
DA:19,1
DA:20,1
DA:21,1
DA:22,1
DA:23,1
DA:24,1
DA:25,1
DA:26,1
DA:27,1
BRF:0
BRH:0
LF:16
LH:16
end_of_record
SF:/Users/zwk/src_code/wp-labs/wp-motor/crates/wp-config/src/loader/traits.rs
FN:59,_RNCNvYpNtNtNtCs48GgPJaqr2Q_9wp_config6loader6traits12ConfigLoader14load_from_path0Bb_
FN:74,_RNCNvYpNtNtNtCs48GgPJaqr2Q_9wp_config6loader6traits12ConfigLoader14load_from_paths0_0Bb_
FN:70,_RNCNvYpNtNtNtCs48GgPJaqr2Q_9wp_config6loader6traits12ConfigLoader14load_from_paths_0Bb_
FN:55,_RNvYpNtNtNtCs48GgPJaqr2Q_9wp_config6loader6traits12ConfigLoader14load_from_pathB9_
FN:125,_RNvYpNtNtNtCs48GgPJaqr2Q_9wp_config6loader6traits12ConfigLoader8validateB9_
FN:55,_RNvYNtNtNtCsiL6gS0SCXXG_9wp_config7buildin4file12FileSinkConfNtNtNtB8_6loader6traits12ConfigLoader14load_from_pathB8_
FN:55,_RNvYINtNtCsiTraAjBDcu4_5alloc3vec3VecNtNtNtNtCsiL6gS0SCXXG_9wp_config9structure6source8instance18SourceInstanceConfENtNtNtBH_6loader6traits12ConfigLoader14load_from_pathBH_
FN:59,_RNCNvYINtNtCsiTraAjBDcu4_5alloc3vec3VecNtNtNtNtCsiL6gS0SCXXG_9wp_config9structure6source8instance18SourceInstanceConfENtNtNtBJ_6loader6traits12ConfigLoader14load_from_path0BJ_
FN:74,_RNCNvYINtNtCsiTraAjBDcu4_5alloc3vec3VecNtNtNtNtCsiL6gS0SCXXG_9wp_config9structure6source8instance18SourceInstanceConfENtNtNtBJ_6loader6traits12ConfigLoader14load_from_paths0_0BJ_
FN:70,_RNCNvYINtNtCsiTraAjBDcu4_5alloc3vec3VecNtNtNtNtCsiL6gS0SCXXG_9wp_config9structure6source8instance18SourceInstanceConfENtNtNtBJ_6loader6traits12ConfigLoader14load_from_paths_0BJ_
FN:59,_RNCNvYNtNtNtCsiL6gS0SCXXG_9wp_config7buildin4file12FileSinkConfNtNtNtBa_6loader6traits12ConfigLoader14load_from_path0Ba_
FN:74,_RNCNvYNtNtNtCsiL6gS0SCXXG_9wp_config7buildin4file12FileSinkConfNtNtNtBa_6loader6traits12ConfigLoader14load_from_paths0_0Ba_
FN:70,_RNCNvYNtNtNtCsiL6gS0SCXXG_9wp_config7buildin4file12FileSinkConfNtNtNtBa_6loader6traits12ConfigLoader14load_from_paths_0Ba_
FN:59,_RNCNvYNtNtNtCsiL6gS0SCXXG_9wp_config7buildin6syslog14SyslogSinkConfNtNtNtBa_6loader6traits12ConfigLoader14load_from_path0Ba_
FN:74,_RNCNvYNtNtNtCsiL6gS0SCXXG_9wp_config7buildin6syslog14SyslogSinkConfNtNtNtBa_6loader6traits12ConfigLoader14load_from_paths0_0Ba_
FN:70,_RNCNvYNtNtNtCsiL6gS0SCXXG_9wp_config7buildin6syslog14SyslogSinkConfNtNtNtBa_6loader6traits12ConfigLoader14load_from_paths_0Ba_
FN:59,_RNCNvYNtNtNtCsiL6gS0SCXXG_9wp_config7buildin6syslog16SyslogSourceConfNtNtNtBa_6loader6traits12ConfigLoader14load_from_path0Ba_
FN:74,_RNCNvYNtNtNtCsiL6gS0SCXXG_9wp_config7buildin6syslog16SyslogSourceConfNtNtNtBa_6loader6traits12ConfigLoader14load_from_paths0_0Ba_
FN:70,_RNCNvYNtNtNtCsiL6gS0SCXXG_9wp_config7buildin6syslog16SyslogSourceConfNtNtNtBa_6loader6traits12ConfigLoader14load_from_paths_0Ba_
FN:59,_RNCNvYNtNtNtNtCsiL6gS0SCXXG_9wp_config6loader5batch5tests10TestConfigNtNtBa_6traits12ConfigLoader14load_from_path0Bc_
FN:74,_RNCNvYNtNtNtNtCsiL6gS0SCXXG_9wp_config6loader5batch5tests10TestConfigNtNtBa_6traits12ConfigLoader14load_from_paths0_0Bc_
FN:70,_RNCNvYNtNtNtNtCsiL6gS0SCXXG_9wp_config6loader5batch5tests10TestConfigNtNtBa_6traits12ConfigLoader14load_from_paths_0Bc_
FN:59,_RNCNvYNtNtNtNtCsiL6gS0SCXXG_9wp_config6loader6traits5tests10TestConfigNtB8_12ConfigLoader14load_from_path0Bc_
FN:74,_RNCNvYNtNtNtNtCsiL6gS0SCXXG_9wp_config6loader6traits5tests10TestConfigNtB8_12ConfigLoader14load_from_paths0_0Bc_
FN:70,_RNCNvYNtNtNtNtCsiL6gS0SCXXG_9wp_config6loader6traits5tests10TestConfigNtB8_12ConfigLoader14load_from_paths_0Bc_
FN:59,_RNCNvYNtNvNtNtNtCsiL6gS0SCXXG_9wp_config6loader6traits5testss_29config_loader_validate_called13InvalidConfigNtBa_12ConfigLoader14load_from_path0Be_
FN:74,_RNCNvYNtNvNtNtNtCsiL6gS0SCXXG_9wp_config6loader6traits5testss_29config_loader_validate_called13InvalidConfigNtBa_12ConfigLoader14load_from_paths0_0Be_
FN:70,_RNCNvYNtNvNtNtNtCsiL6gS0SCXXG_9wp_config6loader6traits5testss_29config_loader_validate_called13InvalidConfigNtBa_12ConfigLoader14load_from_paths_0Be_
FN:55,_RNvYNtNtNtNtCsiL6gS0SCXXG_9wp_config6loader6traits5tests10TestConfigNtB6_12ConfigLoader14load_from_pathBa_
FN:55,_RNvYNtNvNtNtNtCsiL6gS0SCXXG_9wp_config6loader6traits5testss_29config_loader_validate_called13InvalidConfigNtB8_12ConfigLoader14load_from_pathBc_
FN:55,_RNvYNtNtNtCsiL6gS0SCXXG_9wp_config7buildin6syslog14SyslogSinkConfNtNtNtB8_6loader6traits12ConfigLoader14load_from_pathB8_
FN:125,_RNvYNtNtNtCsiL6gS0SCXXG_9wp_config7buildin6syslog14SyslogSinkConfNtNtNtB8_6loader6traits12ConfigLoader8validateB8_
FN:55,_RNvYNtNtNtCsiL6gS0SCXXG_9wp_config7buildin6syslog16SyslogSourceConfNtNtNtB8_6loader6traits12ConfigLoader14load_from_pathB8_
FN:176,_RNvNtNtNtCsiL6gS0SCXXG_9wp_config6loader6traits5testss_29config_loader_validate_called
FN:209,_RNvNtNtNtCsiL6gS0SCXXG_9wp_config6loader6traits5testss_35config_loader_error_on_missing_file
FN:164,_RNvNtNtNtCsiL6gS0SCXXG_9wp_config6loader6traits5testss_39config_loader_load_from_path_reads_file
FN:147,_RNvXNtNtNtCsiL6gS0SCXXG_9wp_config6loader6traits5testsNtB2_10TestConfigNtB4_12ConfigLoader13load_from_str
FN:143,_RNvXNtNtNtCsiL6gS0SCXXG_9wp_config6loader6traits5testsNtB2_10TestConfigNtB4_12ConfigLoader16config_type_name
FN:153,_RNvXNtNtNtCsiL6gS0SCXXG_9wp_config6loader6traits5testsNtB2_10TestConfigNtB4_12ConfigLoader8validate
FN:186,_RNvXNvNtNtNtCsiL6gS0SCXXG_9wp_config6loader6traits5testss_29config_loader_validate_calledNtB2_13InvalidConfigNtB6_12ConfigLoader13load_from_str
FN:182,_RNvXNvNtNtNtCsiL6gS0SCXXG_9wp_config6loader6traits5testss_29config_loader_validate_calledNtB2_13InvalidConfigNtB6_12ConfigLoader16config_type_name
FN:190,_RNvXNvNtNtNtCsiL6gS0SCXXG_9wp_config6loader6traits5testss_29config_loader_validate_calledNtB2_13InvalidConfigNtB6_12ConfigLoader8validate
FN:55,_RNvYNtNtNtNtCsiL6gS0SCXXG_9wp_config6loader5batch5tests10TestConfigNtNtB8_6traits12ConfigLoader14load_from_pathBa_
FN:125,_RNvYNtNtNtNtCsiL6gS0SCXXG_9wp_config6loader5batch5tests10TestConfigNtNtB8_6traits12ConfigLoader8validateBa_
FNDA:0,_RNCNvYpNtNtNtCs48GgPJaqr2Q_9wp_config6loader6traits12ConfigLoader14load_from_path0Bb_
FNDA:0,_RNCNvYpNtNtNtCs48GgPJaqr2Q_9wp_config6loader6traits12ConfigLoader14load_from_paths0_0Bb_
FNDA:0,_RNCNvYpNtNtNtCs48GgPJaqr2Q_9wp_config6loader6traits12ConfigLoader14load_from_paths_0Bb_
FNDA:0,_RNvYpNtNtNtCs48GgPJaqr2Q_9wp_config6loader6traits12ConfigLoader14load_from_pathB9_
FNDA:0,_RNvYpNtNtNtCs48GgPJaqr2Q_9wp_config6loader6traits12ConfigLoader8validateB9_
FNDA:2,_RNvYNtNtNtCsiL6gS0SCXXG_9wp_config7buildin4file12FileSinkConfNtNtNtB8_6loader6traits12ConfigLoader14load_from_pathB8_
FNDA:2,_RNvYINtNtCsiTraAjBDcu4_5alloc3vec3VecNtNtNtNtCsiL6gS0SCXXG_9wp_config9structure6source8instance18SourceInstanceConfENtNtNtBH_6loader6traits12ConfigLoader14load_from_pathBH_
FNDA:0,_RNCNvYINtNtCsiTraAjBDcu4_5alloc3vec3VecNtNtNtNtCsiL6gS0SCXXG_9wp_config9structure6source8instance18SourceInstanceConfENtNtNtBJ_6loader6traits12ConfigLoader14load_from_path0BJ_
FNDA:2,_RNCNvYINtNtCsiTraAjBDcu4_5alloc3vec3VecNtNtNtNtCsiL6gS0SCXXG_9wp_config9structure6source8instance18SourceInstanceConfENtNtNtBJ_6loader6traits12ConfigLoader14load_from_paths0_0BJ_
FNDA:0,_RNCNvYINtNtCsiTraAjBDcu4_5alloc3vec3VecNtNtNtNtCsiL6gS0SCXXG_9wp_config9structure6source8instance18SourceInstanceConfENtNtNtBJ_6loader6traits12ConfigLoader14load_from_paths_0BJ_
FNDA:0,_RNCNvYNtNtNtCsiL6gS0SCXXG_9wp_config7buildin4file12FileSinkConfNtNtNtBa_6loader6traits12ConfigLoader14load_from_path0Ba_
FNDA:2,_RNCNvYNtNtNtCsiL6gS0SCXXG_9wp_config7buildin4file12FileSinkConfNtNtNtBa_6loader6traits12ConfigLoader14load_from_paths0_0Ba_
FNDA:0,_RNCNvYNtNtNtCsiL6gS0SCXXG_9wp_config7buildin4file12FileSinkConfNtNtNtBa_6loader6traits12ConfigLoader14load_from_paths_0Ba_
FNDA:0,_RNCNvYNtNtNtCsiL6gS0SCXXG_9wp_config7buildin6syslog14SyslogSinkConfNtNtNtBa_6loader6traits12ConfigLoader14load_from_path0Ba_
FNDA:1,_RNCNvYNtNtNtCsiL6gS0SCXXG_9wp_config7buildin6syslog14SyslogSinkConfNtNtNtBa_6loader6traits12ConfigLoader14load_from_paths0_0Ba_
FNDA:0,_RNCNvYNtNtNtCsiL6gS0SCXXG_9wp_config7buildin6syslog14SyslogSinkConfNtNtNtBa_6loader6traits12ConfigLoader14load_from_paths_0Ba_
FNDA:0,_RNCNvYNtNtNtCsiL6gS0SCXXG_9wp_config7buildin6syslog16SyslogSourceConfNtNtNtBa_6loader6traits12ConfigLoader14load_from_path0Ba_
FNDA:2,_RNCNvYNtNtNtCsiL6gS0SCXXG_9wp_config7buildin6syslog16SyslogSourceConfNtNtNtBa_6loader6traits12ConfigLoader14load_from_paths0_0Ba_
FNDA:0,_RNCNvYNtNtNtCsiL6gS0SCXXG_9wp_config7buildin6syslog16SyslogSourceConfNtNtNtBa_6loader6traits12ConfigLoader14load_from_paths_0Ba_
FNDA:0,_RNCNvYNtNtNtNtCsiL6gS0SCXXG_9wp_config6loader5batch5tests10TestConfigNtNtBa_6traits12ConfigLoader14load_from_path0Bc_
FNDA:4,_RNCNvYNtNtNtNtCsiL6gS0SCXXG_9wp_config6loader5batch5tests10TestConfigNtNtBa_6traits12ConfigLoader14load_from_paths0_0Bc_
FNDA:0,_RNCNvYNtNtNtNtCsiL6gS0SCXXG_9wp_config6loader5batch5tests10TestConfigNtNtBa_6traits12ConfigLoader14load_from_paths_0Bc_
FNDA:1,_RNCNvYNtNtNtNtCsiL6gS0SCXXG_9wp_config6loader6traits5tests10TestConfigNtB8_12ConfigLoader14load_from_path0Bc_
FNDA:1,_RNCNvYNtNtNtNtCsiL6gS0SCXXG_9wp_config6loader6traits5tests10TestConfigNtB8_12ConfigLoader14load_from_paths0_0Bc_
FNDA:0,_RNCNvYNtNtNtNtCsiL6gS0SCXXG_9wp_config6loader6traits5tests10TestConfigNtB8_12ConfigLoader14load_from_paths_0Bc_
FNDA:0,_RNCNvYNtNvNtNtNtCsiL6gS0SCXXG_9wp_config6loader6traits5testss_29config_loader_validate_called13InvalidConfigNtBa_12ConfigLoader14load_from_path0Be_
FNDA:1,_RNCNvYNtNvNtNtNtCsiL6gS0SCXXG_9wp_config6loader6traits5testss_29config_loader_validate_called13InvalidConfigNtBa_12ConfigLoader14load_from_paths0_0Be_
FNDA:0,_RNCNvYNtNvNtNtNtCsiL6gS0SCXXG_9wp_config6loader6traits5testss_29config_loader_validate_called13InvalidConfigNtBa_12ConfigLoader14load_from_paths_0Be_
FNDA:2,_RNvYNtNtNtNtCsiL6gS0SCXXG_9wp_config6loader6traits5tests10TestConfigNtB6_12ConfigLoader14load_from_pathBa_
FNDA:1,_RNvYNtNvNtNtNtCsiL6gS0SCXXG_9wp_config6loader6traits5testss_29config_loader_validate_called13InvalidConfigNtB8_12ConfigLoader14load_from_pathBc_
FNDA:1,_RNvYNtNtNtCsiL6gS0SCXXG_9wp_config7buildin6syslog14SyslogSinkConfNtNtNtB8_6loader6traits12ConfigLoader14load_from_pathB8_
FNDA:1,_RNvYNtNtNtCsiL6gS0SCXXG_9wp_config7buildin6syslog14SyslogSinkConfNtNtNtB8_6loader6traits12ConfigLoader8validateB8_
FNDA:2,_RNvYNtNtNtCsiL6gS0SCXXG_9wp_config7buildin6syslog16SyslogSourceConfNtNtNtB8_6loader6traits12ConfigLoader14load_from_pathB8_
FNDA:1,_RNvNtNtNtCsiL6gS0SCXXG_9wp_config6loader6traits5testss_29config_loader_validate_called
FNDA:1,_RNvNtNtNtCsiL6gS0SCXXG_9wp_config6loader6traits5testss_35config_loader_error_on_missing_file
FNDA:1,_RNvNtNtNtCsiL6gS0SCXXG_9wp_config6loader6traits5testss_39config_loader_load_from_path_reads_file
FNDA:1,_RNvXNtNtNtCsiL6gS0SCXXG_9wp_config6loader6traits5testsNtB2_10TestConfigNtB4_12ConfigLoader13load_from_str
FNDA:1,_RNvXNtNtNtCsiL6gS0SCXXG_9wp_config6loader6traits5testsNtB2_10TestConfigNtB4_12ConfigLoader16config_type_name
FNDA:1,_RNvXNtNtNtCsiL6gS0SCXXG_9wp_config6loader6traits5testsNtB2_10TestConfigNtB4_12ConfigLoader8validate
FNDA:1,_RNvXNvNtNtNtCsiL6gS0SCXXG_9wp_config6loader6traits5testss_29config_loader_validate_calledNtB2_13InvalidConfigNtB6_12ConfigLoader13load_from_str
FNDA:0,_RNvXNvNtNtNtCsiL6gS0SCXXG_9wp_config6loader6traits5testss_29config_loader_validate_calledNtB2_13InvalidConfigNtB6_12ConfigLoader16config_type_name
FNDA:1,_RNvXNvNtNtNtCsiL6gS0SCXXG_9wp_config6loader6traits5testss_29config_loader_validate_calledNtB2_13InvalidConfigNtB6_12ConfigLoader8validate
FNDA:4,_RNvYNtNtNtNtCsiL6gS0SCXXG_9wp_config6loader5batch5tests10TestConfigNtNtB8_6traits12ConfigLoader14load_from_pathBa_
FNDA:4,_RNvYNtNtNtNtCsiL6gS0SCXXG_9wp_config6loader5batch5tests10TestConfigNtNtB8_6traits12ConfigLoader8validateBa_
FNF:14
FNH:12
DA:55,14
DA:56,14
DA:57,14
DA:59,14
DA:60,1
DA:61,1
DA:62,1
DA:63,1
DA:64,1
DA:68,1
DA:70,13
DA:71,13
DA:74,13
DA:75,13
DA:76,0
DA:79,13
DA:81,8
DA:82,14
DA:125,5
DA:126,5
DA:127,5
DA:143,1
DA:144,1
DA:145,1
DA:147,1
DA:148,1
DA:149,1
DA:150,1
DA:151,1
DA:153,1
DA:154,1
DA:155,0
DA:156,0
DA:157,0
DA:158,1
DA:159,1
DA:160,1
DA:164,1
DA:168,1
DA:169,1
DA:171,1
DA:172,1
DA:173,1
DA:176,1
DA:182,0
DA:183,0
DA:184,0
DA:186,1
DA:187,1
DA:188,1
DA:190,1
DA:191,1
DA:192,1
DA:193,1
DA:194,1
DA:200,1
DA:201,1
DA:203,1
DA:204,1
DA:205,1
DA:206,1
DA:209,1
DA:210,1
DA:211,1
DA:212,1
DA:214,1
DA:215,1
BRF:0
BRH:0
LF:71
LH:63
end_of_record
SF:/Users/zwk/src_code/wp-labs/wp-motor/crates/wp-config/src/loader/validate_vars.rs
FN:39,_RINvNtNtCs48GgPJaqr2Q_9wp_config6loader13validate_vars26check_unresolved_variablespEB6_
FN:44,_RNCINvNtNtCs48GgPJaqr2Q_9wp_config6loader13validate_vars26check_unresolved_variablespE0B8_
FN:39,_RINvNtNtCsiL6gS0SCXXG_9wp_config6loader13validate_vars26check_unresolved_variablesINtNtCsiTraAjBDcu4_5alloc3vec3VecNtNtNtNtB6_9structure6source8instance18SourceInstanceConfEEB6_
FN:39,_RINvNtNtCsiL6gS0SCXXG_9wp_config6loader13validate_vars26check_unresolved_variablesNtNtB2_5tests10TestConfigEB6_
FN:39,_RINvNtNtCsiL6gS0SCXXG_9wp_config6loader13validate_vars26check_unresolved_variablesNtNtNtB4_5batch5tests10TestConfigEB6_
FN:39,_RINvNtNtCsiL6gS0SCXXG_9wp_config6loader13validate_vars26check_unresolved_variablesNtNtNtB4_6traits5tests10TestConfigEB6_
FN:39,_RINvNtNtCsiL6gS0SCXXG_9wp_config6loader13validate_vars26check_unresolved_variablesNtNtNtB6_7buildin4file12FileSinkConfEB6_
FN:39,_RINvNtNtCsiL6gS0SCXXG_9wp_config6loader13validate_vars26check_unresolved_variablesNtNtNtB6_7buildin6syslog14SyslogSinkConfEB6_
FN:39,_RINvNtNtCsiL6gS0SCXXG_9wp_config6loader13validate_vars26check_unresolved_variablesNtNtNtB6_7buildin6syslog16SyslogSourceConfEB6_
FN:39,_RINvNtNtCsiL6gS0SCXXG_9wp_config6loader13validate_vars26check_unresolved_variablesNtNvNtB2_5testss_32detects_variable_in_nested_field12NestedConfigEB6_
FN:39,_RINvNtNtCsiL6gS0SCXXG_9wp_config6loader13validate_vars26check_unresolved_variablesNtNvNtNtB4_6traits5testss_29config_loader_validate_called13InvalidConfigEB6_
FN:44,_RNCINvNtNtCsiL6gS0SCXXG_9wp_config6loader13validate_vars26check_unresolved_variablesINtNtCsiTraAjBDcu4_5alloc3vec3VecNtNtNtNtB8_9structure6source8instance18SourceInstanceConfEE0B8_
FN:44,_RNCINvNtNtCsiL6gS0SCXXG_9wp_config6loader13validate_vars26check_unresolved_variablesNtNtB4_5tests10TestConfigE0B8_
FN:44,_RNCINvNtNtCsiL6gS0SCXXG_9wp_config6loader13validate_vars26check_unresolved_variablesNtNtNtB6_5batch5tests10TestConfigE0B8_
FN:44,_RNCINvNtNtCsiL6gS0SCXXG_9wp_config6loader13validate_vars26check_unresolved_variablesNtNtNtB6_6traits5tests10TestConfigE0B8_
FN:44,_RNCINvNtNtCsiL6gS0SCXXG_9wp_config6loader13validate_vars26check_unresolved_variablesNtNtNtB8_7buildin4file12FileSinkConfE0B8_
FN:44,_RNCINvNtNtCsiL6gS0SCXXG_9wp_config6loader13validate_vars26check_unresolved_variablesNtNtNtB8_7buildin6syslog14SyslogSinkConfE0B8_
FN:44,_RNCINvNtNtCsiL6gS0SCXXG_9wp_config6loader13validate_vars26check_unresolved_variablesNtNtNtB8_7buildin6syslog16SyslogSourceConfE0B8_
FN:44,_RNCINvNtNtCsiL6gS0SCXXG_9wp_config6loader13validate_vars26check_unresolved_variablesNtNvNtB4_5testss_32detects_variable_in_nested_field12NestedConfigE0B8_
FN:44,_RNCINvNtNtCsiL6gS0SCXXG_9wp_config6loader13validate_vars26check_unresolved_variablesNtNvNtNtB6_6traits5testss_29config_loader_validate_called13InvalidConfigE0B8_
FN:68,_RNvNtNtCsiL6gS0SCXXG_9wp_config6loader13validate_vars25find_first_unresolved_var
FN:90,_RNvNtNtNtCsiL6gS0SCXXG_9wp_config6loader13validate_vars5testss_27detects_unresolved_variable
FN:105,_RNvNtNtNtCsiL6gS0SCXXG_9wp_config6loader13validate_vars5testss_30passes_with_resolved_variables
FN:134,_RNvNtNtNtCsiL6gS0SCXXG_9wp_config6loader13validate_vars5testss_31find_first_unresolved_var_works
FN:116,_RNvNtNtNtCsiL6gS0SCXXG_9wp_config6loader13validate_vars5testss_32detects_variable_in_nested_field
FNDA:0,_RINvNtNtCs48GgPJaqr2Q_9wp_config6loader13validate_vars26check_unresolved_variablespEB6_
FNDA:0,_RNCINvNtNtCs48GgPJaqr2Q_9wp_config6loader13validate_vars26check_unresolved_variablespE0B8_
FNDA:2,_RINvNtNtCsiL6gS0SCXXG_9wp_config6loader13validate_vars26check_unresolved_variablesINtNtCsiTraAjBDcu4_5alloc3vec3VecNtNtNtNtB6_9structure6source8instance18SourceInstanceConfEEB6_
FNDA:2,_RINvNtNtCsiL6gS0SCXXG_9wp_config6loader13validate_vars26check_unresolved_variablesNtNtB2_5tests10TestConfigEB6_
FNDA:4,_RINvNtNtCsiL6gS0SCXXG_9wp_config6loader13validate_vars26check_unresolved_variablesNtNtNtB4_5batch5tests10TestConfigEB6_
FNDA:1,_RINvNtNtCsiL6gS0SCXXG_9wp_config6loader13validate_vars26check_unresolved_variablesNtNtNtB4_6traits5tests10TestConfigEB6_
FNDA:2,_RINvNtNtCsiL6gS0SCXXG_9wp_config6loader13validate_vars26check_unresolved_variablesNtNtNtB6_7buildin4file12FileSinkConfEB6_
FNDA:1,_RINvNtNtCsiL6gS0SCXXG_9wp_config6loader13validate_vars26check_unresolved_variablesNtNtNtB6_7buildin6syslog14SyslogSinkConfEB6_
FNDA:2,_RINvNtNtCsiL6gS0SCXXG_9wp_config6loader13validate_vars26check_unresolved_variablesNtNtNtB6_7buildin6syslog16SyslogSourceConfEB6_
FNDA:1,_RINvNtNtCsiL6gS0SCXXG_9wp_config6loader13validate_vars26check_unresolved_variablesNtNvNtB2_5testss_32detects_variable_in_nested_field12NestedConfigEB6_
FNDA:1,_RINvNtNtCsiL6gS0SCXXG_9wp_config6loader13validate_vars26check_unresolved_variablesNtNvNtNtB4_6traits5testss_29config_loader_validate_called13InvalidConfigEB6_
FNDA:0,_RNCINvNtNtCsiL6gS0SCXXG_9wp_config6loader13validate_vars26check_unresolved_variablesINtNtCsiTraAjBDcu4_5alloc3vec3VecNtNtNtNtB8_9structure6source8instance18SourceInstanceConfEE0B8_
FNDA:0,_RNCINvNtNtCsiL6gS0SCXXG_9wp_config6loader13validate_vars26check_unresolved_variablesNtNtB4_5tests10TestConfigE0B8_
FNDA:0,_RNCINvNtNtCsiL6gS0SCXXG_9wp_config6loader13validate_vars26check_unresolved_variablesNtNtNtB6_5batch5tests10TestConfigE0B8_
FNDA:0,_RNCINvNtNtCsiL6gS0SCXXG_9wp_config6loader13validate_vars26check_unresolved_variablesNtNtNtB6_6traits5tests10TestConfigE0B8_
FNDA:0,_RNCINvNtNtCsiL6gS0SCXXG_9wp_config6loader13validate_vars26check_unresolved_variablesNtNtNtB8_7buildin4file12FileSinkConfE0B8_
FNDA:0,_RNCINvNtNtCsiL6gS0SCXXG_9wp_config6loader13validate_vars26check_unresolved_variablesNtNtNtB8_7buildin6syslog14SyslogSinkConfE0B8_
FNDA:0,_RNCINvNtNtCsiL6gS0SCXXG_9wp_config6loader13validate_vars26check_unresolved_variablesNtNtNtB8_7buildin6syslog16SyslogSourceConfE0B8_
FNDA:0,_RNCINvNtNtCsiL6gS0SCXXG_9wp_config6loader13validate_vars26check_unresolved_variablesNtNvNtB4_5testss_32detects_variable_in_nested_field12NestedConfigE0B8_
FNDA:0,_RNCINvNtNtCsiL6gS0SCXXG_9wp_config6loader13validate_vars26check_unresolved_variablesNtNvNtNtB6_6traits5testss_29config_loader_validate_called13InvalidConfigE0B8_
FNDA:20,_RNvNtNtCsiL6gS0SCXXG_9wp_config6loader13validate_vars25find_first_unresolved_var
FNDA:1,_RNvNtNtNtCsiL6gS0SCXXG_9wp_config6loader13validate_vars5testss_27detects_unresolved_variable
FNDA:1,_RNvNtNtNtCsiL6gS0SCXXG_9wp_config6loader13validate_vars5testss_30passes_with_resolved_variables
FNDA:1,_RNvNtNtNtCsiL6gS0SCXXG_9wp_config6loader13validate_vars5testss_31find_first_unresolved_var_works
FNDA:1,_RNvNtNtNtCsiL6gS0SCXXG_9wp_config6loader13validate_vars5testss_32detects_variable_in_nested_field
FNF:7
FNH:6
DA:39,16
DA:40,16
DA:41,16
DA:42,16
DA:44,16
DA:45,0
DA:46,0
DA:47,0
DA:48,0
DA:51,16
DA:52,2
DA:53,2
DA:54,2
DA:55,2
DA:56,2
DA:57,2
DA:58,2
DA:59,2
DA:60,14
DA:62,14
DA:63,16
DA:68,20
DA:69,20
DA:70,5
DA:72,4
DA:73,4
DA:74,16
DA:75,16
DA:76,20
DA:90,1
DA:91,1
DA:92,1
DA:93,1
DA:94,1
DA:96,1
DA:97,1
DA:99,1
DA:100,1
DA:101,1
DA:102,1
DA:105,1
DA:106,1
DA:107,1
DA:108,1
DA:109,1
DA:111,1
DA:112,1
DA:113,1
DA:116,1
DA:122,1
DA:123,1
DA:124,1
DA:125,1
DA:126,1
DA:127,1
DA:129,1
DA:130,1
DA:131,1
DA:134,1
DA:135,1
DA:136,1
DA:137,1
DA:139,1
DA:140,1
DA:141,1
DA:143,1
DA:144,1
DA:145,1
BRF:0
BRH:0
LF:70
LH:64
end_of_record
SF:/Users/zwk/src_code/wp-labs/wp-motor/crates/wp-config/src/run_args.rs
FN:78,_RNvMs_NtCs48GgPJaqr2Q_9wp_config8run_argsNtB4_11RuntimeArgs10need_flush
FN:62,_RNvMs_NtCs48GgPJaqr2Q_9wp_config8run_argsNtB4_11RuntimeArgs6ge_max
FN:70,_RNvMs_NtCs48GgPJaqr2Q_9wp_config8run_argsNtB4_11RuntimeArgs6gt_max
FN:81,_RNvMs_NtCs48GgPJaqr2Q_9wp_config8run_argsNtB4_11RuntimeArgs7dry_run
FN:56,_RNvMs_NtCs48GgPJaqr2Q_9wp_config8run_argsNtB4_11RuntimeArgs8for_test
FN:35,_RNvXNtCs48GgPJaqr2Q_9wp_config8run_argsNtB2_11RuntimeArgsNtNtCsaNl6UpbT7bw_4core7default7Default7default
FN:78,_RNvMs_NtCsiL6gS0SCXXG_9wp_config8run_argsNtB4_11RuntimeArgs10need_flush
FN:62,_RNvMs_NtCsiL6gS0SCXXG_9wp_config8run_argsNtB4_11RuntimeArgs6ge_max
FN:70,_RNvMs_NtCsiL6gS0SCXXG_9wp_config8run_argsNtB4_11RuntimeArgs6gt_max
FN:81,_RNvMs_NtCsiL6gS0SCXXG_9wp_config8run_argsNtB4_11RuntimeArgs7dry_run
FN:56,_RNvMs_NtCsiL6gS0SCXXG_9wp_config8run_argsNtB4_11RuntimeArgs8for_test
FN:35,_RNvXNtCsiL6gS0SCXXG_9wp_config8run_argsNtB2_11RuntimeArgsNtNtCsaNl6UpbT7bw_4core7default7Default7default
FNDA:0,_RNvMs_NtCs48GgPJaqr2Q_9wp_config8run_argsNtB4_11RuntimeArgs10need_flush
FNDA:19,_RNvMs_NtCs48GgPJaqr2Q_9wp_config8run_argsNtB4_11RuntimeArgs6ge_max
FNDA:0,_RNvMs_NtCs48GgPJaqr2Q_9wp_config8run_argsNtB4_11RuntimeArgs6gt_max
FNDA:0,_RNvMs_NtCs48GgPJaqr2Q_9wp_config8run_argsNtB4_11RuntimeArgs7dry_run
FNDA:3,_RNvMs_NtCs48GgPJaqr2Q_9wp_config8run_argsNtB4_11RuntimeArgs8for_test
FNDA:5,_RNvXNtCs48GgPJaqr2Q_9wp_config8run_argsNtB2_11RuntimeArgsNtNtCsaNl6UpbT7bw_4core7default7Default7default
FNDA:0,_RNvMs_NtCsiL6gS0SCXXG_9wp_config8run_argsNtB4_11RuntimeArgs10need_flush
FNDA:0,_RNvMs_NtCsiL6gS0SCXXG_9wp_config8run_argsNtB4_11RuntimeArgs6ge_max
FNDA:0,_RNvMs_NtCsiL6gS0SCXXG_9wp_config8run_argsNtB4_11RuntimeArgs6gt_max
FNDA:0,_RNvMs_NtCsiL6gS0SCXXG_9wp_config8run_argsNtB4_11RuntimeArgs7dry_run
FNDA:0,_RNvMs_NtCsiL6gS0SCXXG_9wp_config8run_argsNtB4_11RuntimeArgs8for_test
FNDA:0,_RNvXNtCsiL6gS0SCXXG_9wp_config8run_argsNtB2_11RuntimeArgsNtNtCsaNl6UpbT7bw_4core7default7Default7default
FNF:6
FNH:3
DA:35,5
DA:36,5
DA:37,5
DA:38,5
DA:39,5
DA:40,5
DA:41,5
DA:42,5
DA:43,5
DA:44,5
DA:45,5
DA:46,5
DA:47,5
DA:48,5
DA:49,5
DA:50,5
DA:51,5
DA:52,5
DA:56,3
DA:57,3
DA:58,3
DA:59,3
DA:60,3
DA:61,3
DA:62,19
DA:63,19
DA:64,19
DA:66,1
DA:67,18
DA:68,18
DA:69,19
DA:70,0
DA:71,0
DA:72,0
DA:74,0
DA:75,0
DA:76,0
DA:77,0
DA:78,0
DA:79,0
DA:80,0
DA:81,0
DA:82,0
DA:83,0
DA:84,0
DA:85,0
DA:86,0
DA:87,0
DA:88,0
BRF:0
BRH:0
LF:49
LH:31
end_of_record
SF:/Users/zwk/src_code/wp-labs/wp-motor/crates/wp-config/src/sinks/build.rs
FN:73,_RNCNCNCNvNtNtCs48GgPJaqr2Q_9wp_config5sinks5build11pick_string000Bb_
FN:73,_RNCNCNvNtNtCs48GgPJaqr2Q_9wp_config5sinks5build11pick_string00B9_
FN:84,_RNCNvNtNtCs48GgPJaqr2Q_9wp_config5sinks5build10decide_fmt0B7_
FN:68,_RNCNvNtNtCs48GgPJaqr2Q_9wp_config5sinks5build11pick_string0B7_
FN:100,_RNCNvNtNtCs48GgPJaqr2Q_9wp_config5sinks5build17merge_sink_params0B7_
FN:101,_RNCNvNtNtCs48GgPJaqr2Q_9wp_config5sinks5build17merge_sink_paramss_0B7_
FN:311,_RNCNvNtNtCs48GgPJaqr2Q_9wp_config5sinks5build17resolve_connector0B7_
FN:31,_RNCNvNtNtCs48GgPJaqr2Q_9wp_config5sinks5build19build_sink_instance0B7_
FN:40,_RNCNvNtNtCs48GgPJaqr2Q_9wp_config5sinks5build19build_sink_instances0_0B7_
FN:32,_RNCNvNtNtCs48GgPJaqr2Q_9wp_config5sinks5build19build_sink_instances_0B7_
FN:386,_RNCNvNtNtCs48GgPJaqr2Q_9wp_config5sinks5build20plugin_validate_with0B7_
FN:387,_RNCNvNtNtCs48GgPJaqr2Q_9wp_config5sinks5build20plugin_validate_withs_0B7_
FN:354,_RNCNvNtNtCs48GgPJaqr2Q_9wp_config5sinks5build22validate_sink_instance0B7_
FN:355,_RNCNvNtNtCs48GgPJaqr2Q_9wp_config5sinks5build22validate_sink_instances_0B7_
FN:278,_RNCNvNtNtCs48GgPJaqr2Q_9wp_config5sinks5build26build_route_conf_from_with0B7_
FN:151,_RNCNvNtNtCs48GgPJaqr2Q_9wp_config5sinks5build27merge_params_with_allowlist0B7_
FN:146,_RNCNvNtNtCs48GgPJaqr2Q_9wp_config5sinks5build27merge_params_with_allowlists0_0B7_
FN:147,_RNCNvNtNtCs48GgPJaqr2Q_9wp_config5sinks5build27merge_params_with_allowlists1_0B7_
FN:163,_RNCNvNtNtCs48GgPJaqr2Q_9wp_config5sinks5build27merge_params_with_allowlists2_0B7_
FN:164,_RNCNvNtNtCs48GgPJaqr2Q_9wp_config5sinks5build27merge_params_with_allowlists3_0B7_
FN:139,_RNCNvNtNtCs48GgPJaqr2Q_9wp_config5sinks5build27merge_params_with_allowlists_0B7_
FN:82,_RNvNtNtCs48GgPJaqr2Q_9wp_config5sinks5build10decide_fmt
FN:67,_RNvNtNtCs48GgPJaqr2Q_9wp_config5sinks5build11pick_string
FN:91,_RNvNtNtCs48GgPJaqr2Q_9wp_config5sinks5build17merge_sink_params
FN:306,_RNvNtNtCs48GgPJaqr2Q_9wp_config5sinks5build17resolve_connector
FN:202,_RNvNtNtCs48GgPJaqr2Q_9wp_config5sinks5build18assemble_sink_tags
FN:322,_RNvNtNtCs48GgPJaqr2Q_9wp_config5sinks5build18ensure_unique_name
FN:22,_RNvNtNtCs48GgPJaqr2Q_9wp_config5sinks5build19build_sink_instance
FN:220,_RNvNtNtCs48GgPJaqr2Q_9wp_config5sinks5build20apply_group_metadata
FN:361,_RNvNtNtCs48GgPJaqr2Q_9wp_config5sinks5build20plugin_validate_with
FN:247,_RNvNtNtCs48GgPJaqr2Q_9wp_config5sinks5build21build_route_conf_from
FN:173,_RNvNtNtCs48GgPJaqr2Q_9wp_config5sinks5build22collect_group_matchers
FN:419,_RNvNtNtCs48GgPJaqr2Q_9wp_config5sinks5build22load_infra_route_confs
FN:338,_RNvNtNtCs48GgPJaqr2Q_9wp_config5sinks5build22validate_sink_instance
FN:395,_RNvNtNtCs48GgPJaqr2Q_9wp_config5sinks5build25load_business_route_confs
FN:255,_RNvNtNtCs48GgPJaqr2Q_9wp_config5sinks5build26build_route_conf_from_with
FN:113,_RNvNtNtCs48GgPJaqr2Q_9wp_config5sinks5build27is_nested_field_blacklisted
FN:118,_RNvNtNtCs48GgPJaqr2Q_9wp_config5sinks5build27merge_params_with_allowlist
FN:402,_RNvNtNtCs48GgPJaqr2Q_9wp_config5sinks5build30load_business_route_confs_with
FN:60,_RNvXNtNtCs48GgPJaqr2Q_9wp_config5sinks5buildNtB2_21NullSinkFactoryLookupNtB2_17SinkFactoryLookup3get
FN:173,_RNvNtNtCsiL6gS0SCXXG_9wp_config5sinks5build22collect_group_matchers
FN:73,_RNCNCNCNvNtNtCsiL6gS0SCXXG_9wp_config5sinks5build11pick_string000Bb_
FN:73,_RNCNCNvNtNtCsiL6gS0SCXXG_9wp_config5sinks5build11pick_string00B9_
FN:84,_RNCNvNtNtCsiL6gS0SCXXG_9wp_config5sinks5build10decide_fmt0B7_
FN:68,_RNCNvNtNtCsiL6gS0SCXXG_9wp_config5sinks5build11pick_string0B7_
FN:100,_RNCNvNtNtCsiL6gS0SCXXG_9wp_config5sinks5build17merge_sink_params0B7_
FN:101,_RNCNvNtNtCsiL6gS0SCXXG_9wp_config5sinks5build17merge_sink_paramss_0B7_
FN:311,_RNCNvNtNtCsiL6gS0SCXXG_9wp_config5sinks5build17resolve_connector0B7_
FN:31,_RNCNvNtNtCsiL6gS0SCXXG_9wp_config5sinks5build19build_sink_instance0B7_
FN:40,_RNCNvNtNtCsiL6gS0SCXXG_9wp_config5sinks5build19build_sink_instances0_0B7_
FN:32,_RNCNvNtNtCsiL6gS0SCXXG_9wp_config5sinks5build19build_sink_instances_0B7_
FN:386,_RNCNvNtNtCsiL6gS0SCXXG_9wp_config5sinks5build20plugin_validate_with0B7_
FN:387,_RNCNvNtNtCsiL6gS0SCXXG_9wp_config5sinks5build20plugin_validate_withs_0B7_
FN:354,_RNCNvNtNtCsiL6gS0SCXXG_9wp_config5sinks5build22validate_sink_instance0B7_
FN:355,_RNCNvNtNtCsiL6gS0SCXXG_9wp_config5sinks5build22validate_sink_instances_0B7_
FN:278,_RNCNvNtNtCsiL6gS0SCXXG_9wp_config5sinks5build26build_route_conf_from_with0B7_
FN:151,_RNCNvNtNtCsiL6gS0SCXXG_9wp_config5sinks5build27merge_params_with_allowlist0B7_
FN:146,_RNCNvNtNtCsiL6gS0SCXXG_9wp_config5sinks5build27merge_params_with_allowlists0_0B7_
FN:147,_RNCNvNtNtCsiL6gS0SCXXG_9wp_config5sinks5build27merge_params_with_allowlists1_0B7_
FN:163,_RNCNvNtNtCsiL6gS0SCXXG_9wp_config5sinks5build27merge_params_with_allowlists2_0B7_
FN:164,_RNCNvNtNtCsiL6gS0SCXXG_9wp_config5sinks5build27merge_params_with_allowlists3_0B7_
FN:139,_RNCNvNtNtCsiL6gS0SCXXG_9wp_config5sinks5build27merge_params_with_allowlists_0B7_
FN:82,_RNvNtNtCsiL6gS0SCXXG_9wp_config5sinks5build10decide_fmt
FN:67,_RNvNtNtCsiL6gS0SCXXG_9wp_config5sinks5build11pick_string
FN:91,_RNvNtNtCsiL6gS0SCXXG_9wp_config5sinks5build17merge_sink_params
FN:306,_RNvNtNtCsiL6gS0SCXXG_9wp_config5sinks5build17resolve_connector
FN:202,_RNvNtNtCsiL6gS0SCXXG_9wp_config5sinks5build18assemble_sink_tags
FN:322,_RNvNtNtCsiL6gS0SCXXG_9wp_config5sinks5build18ensure_unique_name
FN:22,_RNvNtNtCsiL6gS0SCXXG_9wp_config5sinks5build19build_sink_instance
FN:220,_RNvNtNtCsiL6gS0SCXXG_9wp_config5sinks5build20apply_group_metadata
FN:361,_RNvNtNtCsiL6gS0SCXXG_9wp_config5sinks5build20plugin_validate_with
FN:247,_RNvNtNtCsiL6gS0SCXXG_9wp_config5sinks5build21build_route_conf_from
FN:419,_RNvNtNtCsiL6gS0SCXXG_9wp_config5sinks5build22load_infra_route_confs
FN:338,_RNvNtNtCsiL6gS0SCXXG_9wp_config5sinks5build22validate_sink_instance
FN:395,_RNvNtNtCsiL6gS0SCXXG_9wp_config5sinks5build25load_business_route_confs
FN:255,_RNvNtNtCsiL6gS0SCXXG_9wp_config5sinks5build26build_route_conf_from_with
FN:113,_RNvNtNtCsiL6gS0SCXXG_9wp_config5sinks5build27is_nested_field_blacklisted
FN:118,_RNvNtNtCsiL6gS0SCXXG_9wp_config5sinks5build27merge_params_with_allowlist
FN:402,_RNvNtNtCsiL6gS0SCXXG_9wp_config5sinks5build30load_business_route_confs_with
FN:60,_RNvXNtNtCsiL6gS0SCXXG_9wp_config5sinks5buildNtB2_21NullSinkFactoryLookupNtB2_17SinkFactoryLookup3get
FN:483,_RNvNtNtNtCsiL6gS0SCXXG_9wp_config5sinks5build5testss_30test_collect_matchers_oml_only
FN:453,_RNvNtNtNtCsiL6gS0SCXXG_9wp_config5sinks5build5testss_31test_collect_matchers_rule_only
FN:509,_RNvNtNtNtCsiL6gS0SCXXG_9wp_config5sinks5build5testss_39test_collect_matchers_both_oml_and_rule
FN:540,_RNvNtNtNtCsiL6gS0SCXXG_9wp_config5sinks5build5testss_42test_collect_matchers_neither_oml_nor_rule
FNDA:0,_RNCNCNCNvNtNtCs48GgPJaqr2Q_9wp_config5sinks5build11pick_string000Bb_
FNDA:0,_RNCNCNvNtNtCs48GgPJaqr2Q_9wp_config5sinks5build11pick_string00B9_
FNDA:22,_RNCNvNtNtCs48GgPJaqr2Q_9wp_config5sinks5build10decide_fmt0B7_
FNDA:6,_RNCNvNtNtCs48GgPJaqr2Q_9wp_config5sinks5build11pick_string0B7_
FNDA:23,_RNCNvNtNtCs48GgPJaqr2Q_9wp_config5sinks5build17merge_sink_params0B7_
FNDA:5,_RNCNvNtNtCs48GgPJaqr2Q_9wp_config5sinks5build17merge_sink_paramss_0B7_
FNDA:0,_RNCNvNtNtCs48GgPJaqr2Q_9wp_config5sinks5build17resolve_connector0B7_
FNDA:23,_RNCNvNtNtCs48GgPJaqr2Q_9wp_config5sinks5build19build_sink_instance0B7_
FNDA:0,_RNCNvNtNtCs48GgPJaqr2Q_9wp_config5sinks5build19build_sink_instances0_0B7_
FNDA:5,_RNCNvNtNtCs48GgPJaqr2Q_9wp_config5sinks5build19build_sink_instances_0B7_
FNDA:0,_RNCNvNtNtCs48GgPJaqr2Q_9wp_config5sinks5build20plugin_validate_with0B7_
FNDA:0,_RNCNvNtNtCs48GgPJaqr2Q_9wp_config5sinks5build20plugin_validate_withs_0B7_
FNDA:0,_RNCNvNtNtCs48GgPJaqr2Q_9wp_config5sinks5build22validate_sink_instance0B7_
FNDA:0,_RNCNvNtNtCs48GgPJaqr2Q_9wp_config5sinks5build22validate_sink_instances_0B7_
FNDA:7,_RNCNvNtNtCs48GgPJaqr2Q_9wp_config5sinks5build26build_route_conf_from_with0B7_
FNDA:56,_RNCNvNtNtCs48GgPJaqr2Q_9wp_config5sinks5build27merge_params_with_allowlist0B7_
FNDA:0,_RNCNvNtNtCs48GgPJaqr2Q_9wp_config5sinks5build27merge_params_with_allowlists0_0B7_
FNDA:0,_RNCNvNtNtCs48GgPJaqr2Q_9wp_config5sinks5build27merge_params_with_allowlists1_0B7_
FNDA:0,_RNCNvNtNtCs48GgPJaqr2Q_9wp_config5sinks5build27merge_params_with_allowlists2_0B7_
FNDA:0,_RNCNvNtNtCs48GgPJaqr2Q_9wp_config5sinks5build27merge_params_with_allowlists3_0B7_
FNDA:0,_RNCNvNtNtCs48GgPJaqr2Q_9wp_config5sinks5build27merge_params_with_allowlists_0B7_
FNDA:28,_RNvNtNtCs48GgPJaqr2Q_9wp_config5sinks5build10decide_fmt
FNDA:28,_RNvNtNtCs48GgPJaqr2Q_9wp_config5sinks5build11pick_string
FNDA:28,_RNvNtNtCs48GgPJaqr2Q_9wp_config5sinks5build17merge_sink_params
FNDA:28,_RNvNtNtCs48GgPJaqr2Q_9wp_config5sinks5build17resolve_connector
FNDA:28,_RNvNtNtCs48GgPJaqr2Q_9wp_config5sinks5build18assemble_sink_tags
FNDA:28,_RNvNtNtCs48GgPJaqr2Q_9wp_config5sinks5build18ensure_unique_name
FNDA:28,_RNvNtNtCs48GgPJaqr2Q_9wp_config5sinks5build19build_sink_instance
FNDA:28,_RNvNtNtCs48GgPJaqr2Q_9wp_config5sinks5build20apply_group_metadata
FNDA:28,_RNvNtNtCs48GgPJaqr2Q_9wp_config5sinks5build20plugin_validate_with
FNDA:26,_RNvNtNtCs48GgPJaqr2Q_9wp_config5sinks5build21build_route_conf_from
FNDA:28,_RNvNtNtCs48GgPJaqr2Q_9wp_config5sinks5build22collect_group_matchers
FNDA:3,_RNvNtNtCs48GgPJaqr2Q_9wp_config5sinks5build22load_infra_route_confs
FNDA:28,_RNvNtNtCs48GgPJaqr2Q_9wp_config5sinks5build22validate_sink_instance
FNDA:1,_RNvNtNtCs48GgPJaqr2Q_9wp_config5sinks5build25load_business_route_confs
FNDA:28,_RNvNtNtCs48GgPJaqr2Q_9wp_config5sinks5build26build_route_conf_from_with
FNDA:36,_RNvNtNtCs48GgPJaqr2Q_9wp_config5sinks5build27is_nested_field_blacklisted
FNDA:28,_RNvNtNtCs48GgPJaqr2Q_9wp_config5sinks5build27merge_params_with_allowlist
FNDA:3,_RNvNtNtCs48GgPJaqr2Q_9wp_config5sinks5build30load_business_route_confs_with
FNDA:27,_RNvXNtNtCs48GgPJaqr2Q_9wp_config5sinks5buildNtB2_21NullSinkFactoryLookupNtB2_17SinkFactoryLookup3get
FNDA:4,_RNvNtNtCsiL6gS0SCXXG_9wp_config5sinks5build22collect_group_matchers
FNDA:0,_RNCNCNCNvNtNtCsiL6gS0SCXXG_9wp_config5sinks5build11pick_string000Bb_
FNDA:0,_RNCNCNvNtNtCsiL6gS0SCXXG_9wp_config5sinks5build11pick_string00B9_
FNDA:0,_RNCNvNtNtCsiL6gS0SCXXG_9wp_config5sinks5build10decide_fmt0B7_
FNDA:0,_RNCNvNtNtCsiL6gS0SCXXG_9wp_config5sinks5build11pick_string0B7_
FNDA:0,_RNCNvNtNtCsiL6gS0SCXXG_9wp_config5sinks5build17merge_sink_params0B7_
FNDA:0,_RNCNvNtNtCsiL6gS0SCXXG_9wp_config5sinks5build17merge_sink_paramss_0B7_
FNDA:0,_RNCNvNtNtCsiL6gS0SCXXG_9wp_config5sinks5build17resolve_connector0B7_
FNDA:0,_RNCNvNtNtCsiL6gS0SCXXG_9wp_config5sinks5build19build_sink_instance0B7_
FNDA:0,_RNCNvNtNtCsiL6gS0SCXXG_9wp_config5sinks5build19build_sink_instances0_0B7_
FNDA:0,_RNCNvNtNtCsiL6gS0SCXXG_9wp_config5sinks5build19build_sink_instances_0B7_
FNDA:0,_RNCNvNtNtCsiL6gS0SCXXG_9wp_config5sinks5build20plugin_validate_with0B7_
FNDA:0,_RNCNvNtNtCsiL6gS0SCXXG_9wp_config5sinks5build20plugin_validate_withs_0B7_
FNDA:0,_RNCNvNtNtCsiL6gS0SCXXG_9wp_config5sinks5build22validate_sink_instance0B7_
FNDA:0,_RNCNvNtNtCsiL6gS0SCXXG_9wp_config5sinks5build22validate_sink_instances_0B7_
FNDA:0,_RNCNvNtNtCsiL6gS0SCXXG_9wp_config5sinks5build26build_route_conf_from_with0B7_
FNDA:0,_RNCNvNtNtCsiL6gS0SCXXG_9wp_config5sinks5build27merge_params_with_allowlist0B7_
FNDA:0,_RNCNvNtNtCsiL6gS0SCXXG_9wp_config5sinks5build27merge_params_with_allowlists0_0B7_
FNDA:0,_RNCNvNtNtCsiL6gS0SCXXG_9wp_config5sinks5build27merge_params_with_allowlists1_0B7_
FNDA:0,_RNCNvNtNtCsiL6gS0SCXXG_9wp_config5sinks5build27merge_params_with_allowlists2_0B7_
FNDA:0,_RNCNvNtNtCsiL6gS0SCXXG_9wp_config5sinks5build27merge_params_with_allowlists3_0B7_
FNDA:0,_RNCNvNtNtCsiL6gS0SCXXG_9wp_config5sinks5build27merge_params_with_allowlists_0B7_
FNDA:0,_RNvNtNtCsiL6gS0SCXXG_9wp_config5sinks5build10decide_fmt
FNDA:0,_RNvNtNtCsiL6gS0SCXXG_9wp_config5sinks5build11pick_string
FNDA:0,_RNvNtNtCsiL6gS0SCXXG_9wp_config5sinks5build17merge_sink_params
FNDA:0,_RNvNtNtCsiL6gS0SCXXG_9wp_config5sinks5build17resolve_connector
FNDA:0,_RNvNtNtCsiL6gS0SCXXG_9wp_config5sinks5build18assemble_sink_tags
FNDA:0,_RNvNtNtCsiL6gS0SCXXG_9wp_config5sinks5build18ensure_unique_name
FNDA:0,_RNvNtNtCsiL6gS0SCXXG_9wp_config5sinks5build19build_sink_instance
FNDA:0,_RNvNtNtCsiL6gS0SCXXG_9wp_config5sinks5build20apply_group_metadata
FNDA:0,_RNvNtNtCsiL6gS0SCXXG_9wp_config5sinks5build20plugin_validate_with
FNDA:0,_RNvNtNtCsiL6gS0SCXXG_9wp_config5sinks5build21build_route_conf_from
FNDA:0,_RNvNtNtCsiL6gS0SCXXG_9wp_config5sinks5build22load_infra_route_confs
FNDA:0,_RNvNtNtCsiL6gS0SCXXG_9wp_config5sinks5build22validate_sink_instance
FNDA:0,_RNvNtNtCsiL6gS0SCXXG_9wp_config5sinks5build25load_business_route_confs
FNDA:0,_RNvNtNtCsiL6gS0SCXXG_9wp_config5sinks5build26build_route_conf_from_with
FNDA:0,_RNvNtNtCsiL6gS0SCXXG_9wp_config5sinks5build27is_nested_field_blacklisted
FNDA:0,_RNvNtNtCsiL6gS0SCXXG_9wp_config5sinks5build27merge_params_with_allowlist
FNDA:0,_RNvNtNtCsiL6gS0SCXXG_9wp_config5sinks5build30load_business_route_confs_with
FNDA:0,_RNvXNtNtCsiL6gS0SCXXG_9wp_config5sinks5buildNtB2_21NullSinkFactoryLookupNtB2_17SinkFactoryLookup3get
FNDA:1,_RNvNtNtNtCsiL6gS0SCXXG_9wp_config5sinks5build5testss_30test_collect_matchers_oml_only
FNDA:1,_RNvNtNtNtCsiL6gS0SCXXG_9wp_config5sinks5build5testss_31test_collect_matchers_rule_only
FNDA:1,_RNvNtNtNtCsiL6gS0SCXXG_9wp_config5sinks5build5testss_39test_collect_matchers_both_oml_and_rule
FNDA:1,_RNvNtNtNtCsiL6gS0SCXXG_9wp_config5sinks5build5testss_42test_collect_matchers_neither_oml_nor_rule
FNF:44
FNH:31
DA:22,28
DA:23,28
DA:24,28
DA:25,28
DA:26,28
DA:27,28
DA:28,28
DA:29,28
DA:30,28
DA:31,28
DA:32,28
DA:33,28
DA:34,28
DA:35,28
DA:36,28
DA:37,28
DA:38,28
DA:39,28
DA:40,28
DA:43,28
DA:44,28
DA:45,28
DA:46,28
DA:47,28
DA:48,28
DA:49,28
DA:60,27
DA:61,27
DA:62,27
DA:67,28
DA:68,28
DA:69,6
DA:70,0
DA:71,0
DA:72,0
DA:73,0
DA:74,0
DA:75,0
DA:76,6
DA:77,28
DA:82,28
DA:83,28
DA:84,28
DA:85,28
DA:87,0
DA:89,28
DA:91,28
DA:92,28
DA:93,28
DA:94,28
DA:95,28
DA:96,28
DA:97,28
DA:98,28
DA:99,28
DA:100,28
DA:101,28
DA:102,28
DA:103,28
DA:104,28
DA:105,28
DA:106,28
DA:107,28
DA:108,28
DA:109,28
DA:111,28
DA:113,36
DA:114,36
DA:115,36
DA:118,28
DA:119,28
DA:120,28
DA:121,28
DA:122,28
DA:123,28
DA:124,28
DA:125,28
DA:126,28
DA:127,28
DA:128,36
DA:129,36
DA:131,0
DA:132,0
DA:133,0
DA:134,0
DA:136,0
DA:137,0
DA:138,0
DA:139,0
DA:140,0
DA:141,0
DA:145,0
DA:146,0
DA:147,0
DA:150,36
DA:151,56
DA:153,0
DA:154,0
DA:155,0
DA:156,0
DA:158,0
DA:162,0
DA:163,0
DA:164,0
DA:167,36
DA:168,36
DA:170,28
DA:171,28
DA:173,32
DA:175,32
DA:176,10
DA:177,1
DA:178,9
DA:181,22
DA:185,32
DA:186,14
DA:187,1
DA:188,13
DA:191,18
DA:195,32
DA:196,17
DA:197,15
DA:199,15
DA:200,32
DA:202,28
DA:203,28
DA:204,28
DA:205,28
DA:206,28
DA:207,28
DA:208,28
DA:209,6
DA:210,22
DA:211,28
DA:212,9
DA:213,19
DA:214,28
DA:215,4
DA:216,24
DA:217,28
DA:218,28
DA:220,28
DA:221,28
DA:222,28
DA:223,28
DA:224,28
DA:225,28
DA:226,0
DA:227,28
DA:228,28
DA:229,0
DA:230,28
DA:231,28
DA:232,7
DA:233,7
DA:234,21
DA:235,28
DA:236,9
DA:237,19
DA:238,28
DA:239,6
DA:240,22
DA:241,28
DA:242,6
DA:243,22
DA:244,28
DA:247,26
DA:248,26
DA:249,26
DA:250,26
DA:251,26
DA:252,26
DA:253,26
DA:255,28
DA:256,28
DA:257,28
DA:258,28
DA:259,28
DA:260,28
DA:262,28
DA:265,28
DA:266,28
DA:267,28
DA:268,28
DA:269,28
DA:270,28
DA:271,28
DA:272,28
DA:273,28
DA:274,28
DA:275,0
DA:276,28
DA:277,28
DA:278,28
DA:279,28
DA:281,28
DA:282,28
DA:283,28
DA:284,28
DA:288,28
DA:289,0
DA:290,0
DA:291,0
DA:292,28
DA:293,28
DA:294,28
DA:295,28
DA:296,28
DA:298,28
DA:299,28
DA:300,28
DA:301,28
DA:302,28
DA:306,28
DA:307,28
DA:308,28
DA:309,28
DA:310,28
DA:311,28
DA:312,0
DA:313,0
DA:314,0
DA:315,0
DA:316,0
DA:319,0
DA:320,28
DA:322,28
DA:323,28
DA:324,28
DA:325,28
DA:326,28
DA:327,28
DA:328,0
DA:329,0
DA:330,0
DA:331,0
DA:332,0
DA:333,0
DA:334,28
DA:335,28
DA:336,28
DA:338,28
DA:339,28
DA:340,28
DA:341,28
DA:342,28
DA:343,28
DA:344,0
DA:345,0
DA:346,0
DA:347,0
DA:350,0
DA:352,0
DA:353,0
DA:354,0
DA:355,0
DA:357,28
DA:358,28
DA:359,28
DA:361,28
DA:362,28
DA:363,28
DA:364,28
DA:365,28
DA:366,28
DA:367,28
DA:368,28
DA:369,1
DA:370,1
DA:371,1
DA:372,1
DA:373,1
DA:375,1
DA:376,0
DA:377,0
DA:378,0
DA:379,0
DA:382,0
DA:384,0
DA:385,0
DA:386,0
DA:387,0
DA:389,1
DA:390,27
DA:391,28
DA:392,28
DA:395,1
DA:396,1
DA:397,1
DA:398,1
DA:399,1
DA:400,1
DA:402,3
DA:403,3
DA:404,3
DA:405,3
DA:406,3
DA:407,3
DA:408,3
DA:409,3
DA:410,3
DA:411,3
DA:412,2
DA:413,2
DA:415,3
DA:416,3
DA:419,3
DA:420,3
DA:421,3
DA:422,3
DA:424,3
DA:425,3
DA:426,3
DA:427,3
DA:428,10
DA:431,10
DA:432,0
DA:433,0
DA:434,0
DA:435,0
DA:436,0
DA:437,0
DA:438,0
DA:439,0
DA:440,10
DA:441,10
DA:442,10
DA:444,3
DA:445,3
DA:453,1
DA:455,1
DA:456,1
DA:457,1
DA:458,1
DA:459,1
DA:460,1
DA:461,1
DA:462,1
DA:463,1
DA:464,1
DA:465,1
DA:466,1
DA:467,1
DA:468,1
DA:469,1
DA:470,1
DA:471,1
DA:472,1
DA:474,1
DA:476,1
DA:477,1
DA:478,1
DA:479,1
DA:480,1
DA:483,1
DA:485,1
DA:486,1
DA:487,1
DA:488,1
DA:489,1
DA:490,1
DA:491,1
DA:492,1
DA:493,1
DA:494,1
DA:495,1
DA:496,1
DA:497,1
DA:498,1
DA:499,1
DA:501,1
DA:503,1
DA:504,1
DA:505,1
DA:506,1
DA:509,1
DA:511,1
DA:512,1
DA:513,1
DA:514,1
DA:515,1
DA:516,1
DA:517,1
DA:518,1
DA:519,1
DA:520,1
DA:521,1
DA:522,1
DA:523,1
DA:524,1
DA:525,1
DA:526,1
DA:527,1
DA:528,1
DA:530,1
DA:532,1
DA:533,1
DA:534,1
DA:535,1
DA:536,1
DA:537,1
DA:540,1
DA:542,1
DA:543,1
DA:544,1
DA:545,1
DA:546,1
DA:547,1
DA:548,1
DA:549,1
DA:550,1
DA:551,1
DA:552,1
DA:553,1
DA:554,1
DA:555,1
DA:556,1
DA:558,1
DA:560,1
DA:561,1
DA:562,1
BRF:0
BRH:0
LF:442
LH:357
end_of_record
SF:/Users/zwk/src_code/wp-labs/wp-motor/crates/wp-config/src/sinks/constants.rs
FN:23,_RNvNtNtCsiL6gS0SCXXG_9wp_config5sinks9constants19is_infra_group_name
FN:23,_RNvNtNtCs48GgPJaqr2Q_9wp_config5sinks9constants19is_infra_group_name
FNDA:0,_RNvNtNtCsiL6gS0SCXXG_9wp_config5sinks9constants19is_infra_group_name
FNDA:8,_RNvNtNtCs48GgPJaqr2Q_9wp_config5sinks9constants19is_infra_group_name
FNF:1
FNH:1
DA:23,8
DA:24,8
DA:25,8
BRF:0
BRH:0
LF:3
LH:3
end_of_record
SF:/Users/zwk/src_code/wp-labs/wp-motor/crates/wp-config/src/sinks/infra.rs
FN:57,_RNCNvMs_NtNtCs48GgPJaqr2Q_9wp_config5sinks5infraNtB6_13InfraSinkConf4load0Ba_
FN:57,_RNCNvMs_NtNtCsiL6gS0SCXXG_9wp_config5sinks5infraNtB6_13InfraSinkConf4load0Ba_
FN:33,_RNvMs_NtNtCsiL6gS0SCXXG_9wp_config5sinks5infraNtB4_13InfraSinkConf16clean_local_file
FN:51,_RNvMs_NtNtCsiL6gS0SCXXG_9wp_config5sinks5infraNtB4_13InfraSinkConf4load
FN:23,_RNvXNtNtCsiL6gS0SCXXG_9wp_config5sinks5infraNtB2_13InfraSinkConfINtNtNtCsfv6z1NgKsoT_13orion_variate4vars5types12EnvEvaluableBG_E8env_eval
FN:130,_RNvXs0_NtNtCsiL6gS0SCXXG_9wp_config5sinks5infraNtB5_13InfraSinkConfNtNtCsaNl6UpbT7bw_4core7default7Default7default
FN:149,_RNvNtNtNtCsiL6gS0SCXXG_9wp_config5sinks5infra5testss_15test_infra_conf
FN:33,_RNvMs_NtNtCs48GgPJaqr2Q_9wp_config5sinks5infraNtB4_13InfraSinkConf16clean_local_file
FN:51,_RNvMs_NtNtCs48GgPJaqr2Q_9wp_config5sinks5infraNtB4_13InfraSinkConf4load
FN:23,_RNvXNtNtCs48GgPJaqr2Q_9wp_config5sinks5infraNtB2_13InfraSinkConfINtNtNtCsfv6z1NgKsoT_13orion_variate4vars5types12EnvEvaluableBG_E8env_eval
FN:130,_RNvXs0_NtNtCs48GgPJaqr2Q_9wp_config5sinks5infraNtB5_13InfraSinkConfNtNtCsaNl6UpbT7bw_4core7default7Default7default
FNDA:0,_RNCNvMs_NtNtCs48GgPJaqr2Q_9wp_config5sinks5infraNtB6_13InfraSinkConf4load0Ba_
FNDA:0,_RNCNvMs_NtNtCsiL6gS0SCXXG_9wp_config5sinks5infraNtB6_13InfraSinkConf4load0Ba_
FNDA:0,_RNvMs_NtNtCsiL6gS0SCXXG_9wp_config5sinks5infraNtB4_13InfraSinkConf16clean_local_file
FNDA:0,_RNvMs_NtNtCsiL6gS0SCXXG_9wp_config5sinks5infraNtB4_13InfraSinkConf4load
FNDA:0,_RNvXNtNtCsiL6gS0SCXXG_9wp_config5sinks5infraNtB2_13InfraSinkConfINtNtNtCsfv6z1NgKsoT_13orion_variate4vars5types12EnvEvaluableBG_E8env_eval
FNDA:0,_RNvXs0_NtNtCsiL6gS0SCXXG_9wp_config5sinks5infraNtB5_13InfraSinkConfNtNtCsaNl6UpbT7bw_4core7default7Default7default
FNDA:1,_RNvNtNtNtCsiL6gS0SCXXG_9wp_config5sinks5infra5testss_15test_infra_conf
FNDA:0,_RNvMs_NtNtCs48GgPJaqr2Q_9wp_config5sinks5infraNtB4_13InfraSinkConf16clean_local_file
FNDA:2,_RNvMs_NtNtCs48GgPJaqr2Q_9wp_config5sinks5infraNtB4_13InfraSinkConf4load
FNDA:2,_RNvXNtNtCs48GgPJaqr2Q_9wp_config5sinks5infraNtB2_13InfraSinkConfINtNtNtCsfv6z1NgKsoT_13orion_variate4vars5types12EnvEvaluableBG_E8env_eval
FNDA:2,_RNvXs0_NtNtCs48GgPJaqr2Q_9wp_config5sinks5infraNtB5_13InfraSinkConfNtNtCsaNl6UpbT7bw_4core7default7Default7default
FNF:6
FNH:4
DA:23,2
DA:24,2
DA:25,2
DA:26,2
DA:27,2
DA:28,2
DA:29,2
DA:30,2
DA:33,0
DA:34,0
DA:35,0
DA:37,0
DA:38,0
DA:40,0
DA:41,0
DA:43,0
DA:44,0
DA:46,0
DA:47,0
DA:49,0
DA:50,0
DA:51,2
DA:53,2
DA:54,2
DA:55,2
DA:57,2
DA:58,0
DA:59,0
DA:60,0
DA:61,0
DA:62,2
DA:63,12
DA:64,10
DA:65,10
DA:66,10
DA:67,2
DA:68,2
DA:69,2
DA:70,2
DA:71,2
DA:72,2
DA:73,2
DA:74,2
DA:76,8
DA:77,2
DA:78,2
DA:79,2
DA:80,2
DA:81,2
DA:82,2
DA:83,2
DA:84,2
DA:86,6
DA:87,2
DA:88,2
DA:89,2
DA:90,2
DA:91,2
DA:92,2
DA:93,2
DA:94,2
DA:96,4
DA:97,2
DA:98,2
DA:99,2
DA:100,2
DA:101,2
DA:102,2
DA:103,2
DA:104,2
DA:106,2
DA:107,2
DA:109,2
DA:110,1
DA:111,1
DA:112,2
DA:114,0
DA:115,0
DA:116,0
DA:119,2
DA:120,0
DA:122,0
DA:123,0
DA:124,0
DA:125,0
DA:126,0
DA:127,2
DA:130,2
DA:131,2
DA:132,2
DA:133,2
DA:134,2
DA:135,2
DA:136,2
DA:137,2
DA:138,2
DA:149,1
DA:150,1
DA:151,1
DA:152,1
DA:153,0
DA:155,1
DA:156,1
DA:157,1
DA:158,1
DA:159,1
DA:160,1
DA:161,1
DA:162,1
DA:163,1
DA:164,1
DA:165,1
DA:166,1
DA:167,1
DA:168,1
DA:169,1
DA:170,1
DA:171,1
DA:172,1
DA:173,1
DA:174,1
DA:175,1
DA:176,1
DA:177,1
DA:178,1
DA:179,1
DA:180,1
DA:181,1
DA:182,1
DA:183,1
DA:184,1
DA:185,1
DA:186,1
DA:187,1
DA:188,1
DA:189,1
DA:190,1
DA:191,1
DA:192,1
DA:193,1
DA:194,1
DA:195,1
DA:196,1
DA:197,1
DA:198,1
DA:199,1
DA:200,1
DA:201,1
DA:202,1
DA:203,1
DA:204,1
DA:205,1
DA:206,1
DA:207,1
DA:208,1
BRF:0
BRH:0
LF:157
LH:128
end_of_record
SF:/Users/zwk/src_code/wp-labs/wp-motor/crates/wp-config/src/sinks/io.rs
FN:23,_RNvNtNtCs48GgPJaqr2Q_9wp_config5sinks2io19load_connectors_for
FN:36,_RNvNtNtCs48GgPJaqr2Q_9wp_config5sinks2io21load_route_files_from
FN:18,_RNvNtNtCs48GgPJaqr2Q_9wp_config5sinks2io24find_connectors_base_dir
FN:86,_RINvNtNtCs48GgPJaqr2Q_9wp_config5sinks2io12business_dirReEB6_
FN:74,_RINvNtNtCs48GgPJaqr2Q_9wp_config5sinks2io18load_sink_defaultsReEB6_
FN:89,_RINvNtNtCs48GgPJaqr2Q_9wp_config5sinks2io9infra_dirReEB6_
FN:86,_RINvNtNtCsiL6gS0SCXXG_9wp_config5sinks2io12business_dirpEB6_
FN:74,_RINvNtNtCsiL6gS0SCXXG_9wp_config5sinks2io18load_sink_defaultspEB6_
FN:89,_RINvNtNtCsiL6gS0SCXXG_9wp_config5sinks2io9infra_dirpEB6_
FN:23,_RNvNtNtCsiL6gS0SCXXG_9wp_config5sinks2io19load_connectors_for
FN:36,_RNvNtNtCsiL6gS0SCXXG_9wp_config5sinks2io21load_route_files_from
FN:18,_RNvNtNtCsiL6gS0SCXXG_9wp_config5sinks2io24find_connectors_base_dir
FN:86,_RINvNtNtCs48GgPJaqr2Q_9wp_config5sinks2io12business_dirRNtNtCsht3nMU9UgFu_3std4path7PathBufECs1peygmGMWS6_7wp_proj
FN:74,_RINvNtNtCs48GgPJaqr2Q_9wp_config5sinks2io18load_sink_defaultsRNtNtCsht3nMU9UgFu_3std4path7PathBufECs1peygmGMWS6_7wp_proj
FN:89,_RINvNtNtCs48GgPJaqr2Q_9wp_config5sinks2io9infra_dirRNtNtCsht3nMU9UgFu_3std4path7PathBufECs1peygmGMWS6_7wp_proj
FNDA:11,_RNvNtNtCs48GgPJaqr2Q_9wp_config5sinks2io19load_connectors_for
FNDA:26,_RNvNtNtCs48GgPJaqr2Q_9wp_config5sinks2io21load_route_files_from
FNDA:32,_RNvNtNtCs48GgPJaqr2Q_9wp_config5sinks2io24find_connectors_base_dir
FNDA:3,_RINvNtNtCs48GgPJaqr2Q_9wp_config5sinks2io12business_dirReEB6_
FNDA:22,_RINvNtNtCs48GgPJaqr2Q_9wp_config5sinks2io18load_sink_defaultsReEB6_
FNDA:3,_RINvNtNtCs48GgPJaqr2Q_9wp_config5sinks2io9infra_dirReEB6_
FNDA:0,_RINvNtNtCsiL6gS0SCXXG_9wp_config5sinks2io12business_dirpEB6_
FNDA:0,_RINvNtNtCsiL6gS0SCXXG_9wp_config5sinks2io18load_sink_defaultspEB6_
FNDA:0,_RINvNtNtCsiL6gS0SCXXG_9wp_config5sinks2io9infra_dirpEB6_
FNDA:0,_RNvNtNtCsiL6gS0SCXXG_9wp_config5sinks2io19load_connectors_for
FNDA:0,_RNvNtNtCsiL6gS0SCXXG_9wp_config5sinks2io21load_route_files_from
FNDA:0,_RNvNtNtCsiL6gS0SCXXG_9wp_config5sinks2io24find_connectors_base_dir
FNDA:0,_RINvNtNtCs48GgPJaqr2Q_9wp_config5sinks2io12business_dirRNtNtCsht3nMU9UgFu_3std4path7PathBufECs1peygmGMWS6_7wp_proj
FNDA:0,_RINvNtNtCs48GgPJaqr2Q_9wp_config5sinks2io18load_sink_defaultsRNtNtCsht3nMU9UgFu_3std4path7PathBufECs1peygmGMWS6_7wp_proj
FNDA:0,_RINvNtNtCs48GgPJaqr2Q_9wp_config5sinks2io9infra_dirRNtNtCsht3nMU9UgFu_3std4path7PathBufECs1peygmGMWS6_7wp_proj
FNF:6
FNH:6
DA:18,32
DA:20,32
DA:21,32
DA:23,11
DA:24,11
DA:25,11
DA:26,11
DA:27,11
DA:28,11
DA:29,55
DA:30,55
DA:31,55
DA:32,0
DA:33,11
DA:34,11
DA:36,26
DA:37,26
DA:38,26
DA:39,2
DA:40,24
DA:43,24
DA:44,24
DA:45,24
DA:46,28
DA:47,28
DA:48,28
DA:49,28
DA:51,0
DA:54,24
DA:55,28
DA:56,28
DA:57,28
DA:58,28
DA:59,28
DA:60,28
DA:61,28
DA:63,28
DA:64,28
DA:65,28
DA:66,28
DA:67,28
DA:68,28
DA:69,28
DA:71,24
DA:72,26
DA:74,22
DA:75,22
DA:76,22
DA:77,22
DA:78,22
DA:79,22
DA:80,18
DA:81,4
DA:82,4
DA:83,4
DA:84,22
DA:86,3
DA:87,3
DA:88,3
DA:89,3
DA:90,3
DA:91,3
BRF:0
BRH:0
LF:62
LH:60
end_of_record
SF:/Users/zwk/src_code/wp-labs/wp-motor/crates/wp-config/src/sinks/resolved.rs
FN:17,_RINvNtNtCs48GgPJaqr2Q_9wp_config5sinks8resolved21core_to_resolved_withNtNtCsiTraAjBDcu4_5alloc6string6StringB16_EB6_
FN:17,_RINvNtNtCsiL6gS0SCXXG_9wp_config5sinks8resolved21core_to_resolved_withppEB6_
FN:5,_RNvNtNtCsiL6gS0SCXXG_9wp_config5sinks8resolved16core_to_resolved
FN:5,_RNvNtNtCs48GgPJaqr2Q_9wp_config5sinks8resolved16core_to_resolved
FNDA:1,_RINvNtNtCs48GgPJaqr2Q_9wp_config5sinks8resolved21core_to_resolved_withNtNtCsiTraAjBDcu4_5alloc6string6StringB16_EB6_
FNDA:0,_RINvNtNtCsiL6gS0SCXXG_9wp_config5sinks8resolved21core_to_resolved_withppEB6_
FNDA:0,_RNvNtNtCsiL6gS0SCXXG_9wp_config5sinks8resolved16core_to_resolved
FNDA:12,_RNvNtNtCs48GgPJaqr2Q_9wp_config5sinks8resolved16core_to_resolved
FNF:2
FNH:2
DA:5,12
DA:6,12
DA:7,12
DA:8,12
DA:9,12
DA:10,12
DA:11,12
DA:12,12
DA:13,12
DA:14,12
DA:17,1
DA:18,1
DA:19,1
DA:20,1
DA:21,1
DA:22,1
DA:23,1
DA:24,1
DA:25,1
DA:26,0
DA:30,1
DA:31,1
DA:32,1
DA:33,1
DA:34,1
DA:35,1
DA:36,1
DA:37,1
DA:38,1
BRF:0
BRH:0
LF:29
LH:28
end_of_record
SF:/Users/zwk/src_code/wp-labs/wp-motor/crates/wp-config/src/sinks/types.rs
FN:104,_RNvMs1_NtNtCs48GgPJaqr2Q_9wp_config5sinks5typesNtB5_9RouteSink10inner_name
FN:113,_RNvMs1_NtNtCs48GgPJaqr2Q_9wp_config5sinks5typesNtB5_9RouteSink11filter_path
FN:119,_RNvMs1_NtNtCs48GgPJaqr2Q_9wp_config5sinks5typesNtB5_9RouteSink13filter_expect
FN:116,_RNvMs1_NtNtCs48GgPJaqr2Q_9wp_config5sinks5typesNtB5_9RouteSink4tags
FN:110,_RNvMs1_NtNtCs48GgPJaqr2Q_9wp_config5sinks5typesNtB5_9RouteSink6expect
FN:107,_RNvMs1_NtNtCs48GgPJaqr2Q_9wp_config5sinks5typesNtB5_9RouteSink6params
FN:101,_RNvMs1_NtNtCs48GgPJaqr2Q_9wp_config5sinks5typesNtB5_9RouteSink6use_id
FN:136,_RNvMs2_NtNtCs48GgPJaqr2Q_9wp_config5sinks5typesNtB5_13StringOrArray6as_vec
FN:124,_RNvNtNtCs48GgPJaqr2Q_9wp_config5sinks5types18crate_default_true
FN:25,_RNvXNtNtCs48GgPJaqr2Q_9wp_config5sinks5typesNtB2_9RouteFileINtNtNtCsfv6z1NgKsoT_13orion_variate4vars5types12EnvEvaluableBG_E8env_eval
FN:88,_RNvXs0_NtNtCs48GgPJaqr2Q_9wp_config5sinks5typesNtB5_9RouteSinkINtNtNtCsfv6z1NgKsoT_13orion_variate4vars5types12EnvEvaluableBJ_E8env_eval
FN:56,_RNvXs_NtNtCs48GgPJaqr2Q_9wp_config5sinks5typesNtB4_10RouteGroupINtNtNtCsfv6z1NgKsoT_13orion_variate4vars5types12EnvEvaluableBI_E8env_eval
FN:104,_RNvMs1_NtNtCsiL6gS0SCXXG_9wp_config5sinks5typesNtB5_9RouteSink10inner_name
FN:113,_RNvMs1_NtNtCsiL6gS0SCXXG_9wp_config5sinks5typesNtB5_9RouteSink11filter_path
FN:119,_RNvMs1_NtNtCsiL6gS0SCXXG_9wp_config5sinks5typesNtB5_9RouteSink13filter_expect
FN:116,_RNvMs1_NtNtCsiL6gS0SCXXG_9wp_config5sinks5typesNtB5_9RouteSink4tags
FN:110,_RNvMs1_NtNtCsiL6gS0SCXXG_9wp_config5sinks5typesNtB5_9RouteSink6expect
FN:107,_RNvMs1_NtNtCsiL6gS0SCXXG_9wp_config5sinks5typesNtB5_9RouteSink6params
FN:101,_RNvMs1_NtNtCsiL6gS0SCXXG_9wp_config5sinks5typesNtB5_9RouteSink6use_id
FN:136,_RNvMs2_NtNtCsiL6gS0SCXXG_9wp_config5sinks5typesNtB5_13StringOrArray6as_vec
FN:124,_RNvNtNtCsiL6gS0SCXXG_9wp_config5sinks5types18crate_default_true
FN:25,_RNvXNtNtCsiL6gS0SCXXG_9wp_config5sinks5typesNtB2_9RouteFileINtNtNtCsfv6z1NgKsoT_13orion_variate4vars5types12EnvEvaluableBG_E8env_eval
FN:88,_RNvXs0_NtNtCsiL6gS0SCXXG_9wp_config5sinks5typesNtB5_9RouteSinkINtNtNtCsfv6z1NgKsoT_13orion_variate4vars5types12EnvEvaluableBJ_E8env_eval
FN:56,_RNvXs_NtNtCsiL6gS0SCXXG_9wp_config5sinks5typesNtB4_10RouteGroupINtNtNtCsfv6z1NgKsoT_13orion_variate4vars5types12EnvEvaluableBI_E8env_eval
FNDA:56,_RNvMs1_NtNtCs48GgPJaqr2Q_9wp_config5sinks5typesNtB5_9RouteSink10inner_name
FNDA:28,_RNvMs1_NtNtCs48GgPJaqr2Q_9wp_config5sinks5typesNtB5_9RouteSink11filter_path
FNDA:28,_RNvMs1_NtNtCs48GgPJaqr2Q_9wp_config5sinks5typesNtB5_9RouteSink13filter_expect
FNDA:28,_RNvMs1_NtNtCs48GgPJaqr2Q_9wp_config5sinks5typesNtB5_9RouteSink4tags
FNDA:28,_RNvMs1_NtNtCs48GgPJaqr2Q_9wp_config5sinks5typesNtB5_9RouteSink6expect
FNDA:28,_RNvMs1_NtNtCs48GgPJaqr2Q_9wp_config5sinks5typesNtB5_9RouteSink6params
FNDA:28,_RNvMs1_NtNtCs48GgPJaqr2Q_9wp_config5sinks5typesNtB5_9RouteSink6use_id
FNDA:0,_RNvMs2_NtNtCs48GgPJaqr2Q_9wp_config5sinks5typesNtB5_13StringOrArray6as_vec
FNDA:28,_RNvNtNtCs48GgPJaqr2Q_9wp_config5sinks5types18crate_default_true
FNDA:28,_RNvXNtNtCs48GgPJaqr2Q_9wp_config5sinks5typesNtB2_9RouteFileINtNtNtCsfv6z1NgKsoT_13orion_variate4vars5types12EnvEvaluableBG_E8env_eval
FNDA:28,_RNvXs0_NtNtCs48GgPJaqr2Q_9wp_config5sinks5typesNtB5_9RouteSinkINtNtNtCsfv6z1NgKsoT_13orion_variate4vars5types12EnvEvaluableBJ_E8env_eval
FNDA:28,_RNvXs_NtNtCs48GgPJaqr2Q_9wp_config5sinks5typesNtB4_10RouteGroupINtNtNtCsfv6z1NgKsoT_13orion_variate4vars5types12EnvEvaluableBI_E8env_eval
FNDA:0,_RNvMs1_NtNtCsiL6gS0SCXXG_9wp_config5sinks5typesNtB5_9RouteSink10inner_name
FNDA:0,_RNvMs1_NtNtCsiL6gS0SCXXG_9wp_config5sinks5typesNtB5_9RouteSink11filter_path
FNDA:0,_RNvMs1_NtNtCsiL6gS0SCXXG_9wp_config5sinks5typesNtB5_9RouteSink13filter_expect
FNDA:0,_RNvMs1_NtNtCsiL6gS0SCXXG_9wp_config5sinks5typesNtB5_9RouteSink4tags
FNDA:0,_RNvMs1_NtNtCsiL6gS0SCXXG_9wp_config5sinks5typesNtB5_9RouteSink6expect
FNDA:0,_RNvMs1_NtNtCsiL6gS0SCXXG_9wp_config5sinks5typesNtB5_9RouteSink6params
FNDA:0,_RNvMs1_NtNtCsiL6gS0SCXXG_9wp_config5sinks5typesNtB5_9RouteSink6use_id
FNDA:0,_RNvMs2_NtNtCsiL6gS0SCXXG_9wp_config5sinks5typesNtB5_13StringOrArray6as_vec
FNDA:0,_RNvNtNtCsiL6gS0SCXXG_9wp_config5sinks5types18crate_default_true
FNDA:0,_RNvXNtNtCsiL6gS0SCXXG_9wp_config5sinks5typesNtB2_9RouteFileINtNtNtCsfv6z1NgKsoT_13orion_variate4vars5types12EnvEvaluableBG_E8env_eval
FNDA:0,_RNvXs0_NtNtCsiL6gS0SCXXG_9wp_config5sinks5typesNtB5_9RouteSinkINtNtNtCsfv6z1NgKsoT_13orion_variate4vars5types12EnvEvaluableBJ_E8env_eval
FNDA:0,_RNvXs_NtNtCsiL6gS0SCXXG_9wp_config5sinks5typesNtB4_10RouteGroupINtNtNtCsfv6z1NgKsoT_13orion_variate4vars5types12EnvEvaluableBI_E8env_eval
FNF:12
FNH:11
DA:25,28
DA:26,28
DA:27,28
DA:28,28
DA:56,28
DA:57,28
DA:58,28
DA:59,9
DA:60,19
DA:61,28
DA:62,28
DA:63,28
DA:88,28
DA:89,28
DA:90,28
DA:91,28
DA:92,28
DA:93,4
DA:94,24
DA:95,28
DA:96,28
DA:97,28
DA:101,28
DA:102,28
DA:103,28
DA:104,56
DA:105,56
DA:106,56
DA:107,28
DA:108,28
DA:109,28
DA:110,28
DA:111,28
DA:112,28
DA:113,28
DA:114,28
DA:115,28
DA:116,28
DA:117,28
DA:118,28
DA:119,28
DA:120,28
DA:121,28
DA:124,28
DA:125,28
DA:126,28
DA:136,0
DA:137,0
DA:138,0
DA:139,0
DA:141,0
BRF:0
BRH:0
LF:51
LH:46
end_of_record
SF:/Users/zwk/src_code/wp-labs/wp-motor/crates/wp-config/src/sources/build.rs
FN:170,_RNvXNtNtCs48GgPJaqr2Q_9wp_config7sources5buildINtNtCsiTraAjBDcu4_5alloc3vec3VecNtNtNtNtB6_9structure6source8instance18SourceInstanceConfENtNtNtB6_6loader6traits12ConfigLoader13load_from_str
FN:166,_RNvXNtNtCs48GgPJaqr2Q_9wp_config7sources5buildINtNtCsiTraAjBDcu4_5alloc3vec3VecNtNtNtNtB6_9structure6source8instance18SourceInstanceConfENtNtNtB6_6loader6traits12ConfigLoader16config_type_name
FN:184,_RNvXNtNtCs48GgPJaqr2Q_9wp_config7sources5buildINtNtCsiTraAjBDcu4_5alloc3vec3VecNtNtNtNtB6_9structure6source8instance18SourceInstanceConfENtNtNtB6_6loader6traits12ConfigLoader8validate
FN:43,_RNvNtNtCs48GgPJaqr2Q_9wp_config7sources5build19merge_source_params
FN:106,_RNvNtNtCs48GgPJaqr2Q_9wp_config7sources5build22build_source_instances
FN:16,_RNvNtNtCs48GgPJaqr2Q_9wp_config7sources5build23parse_and_validate_only
FN:39,_RNvNtNtCs48GgPJaqr2Q_9wp_config7sources5build27is_nested_field_blacklisted
FN:137,_RNvNtNtCs48GgPJaqr2Q_9wp_config7sources5build27validate_specs_with_factory
FN:73,_RNvNtNtCs48GgPJaqr2Q_9wp_config7sources5build30load_source_instances_from_str
FN:87,_RNvNtNtCs48GgPJaqr2Q_9wp_config7sources5build31load_source_instances_from_file
FN:197,_RNvNtNtCs48GgPJaqr2Q_9wp_config7sources5build32load_sources_from_str_deprecated
FN:61,_RNCNvNtNtCs48GgPJaqr2Q_9wp_config7sources5build19merge_source_params0B7_
FN:115,_RNCNvNtNtCs48GgPJaqr2Q_9wp_config7sources5build22build_source_instances0B7_
FN:148,_RNCNvNtNtCs48GgPJaqr2Q_9wp_config7sources5build27validate_specs_with_factory0B7_
FN:99,_RNCNvNtNtCs48GgPJaqr2Q_9wp_config7sources5build31load_source_instances_from_file0B7_
FN:100,_RNCNvNtNtCs48GgPJaqr2Q_9wp_config7sources5build31load_source_instances_from_files_0B7_
FN:61,_RNCNvNtNtCsiL6gS0SCXXG_9wp_config7sources5build19merge_source_params0B7_
FN:115,_RNCNvNtNtCsiL6gS0SCXXG_9wp_config7sources5build22build_source_instances0B7_
FN:148,_RNCNvNtNtCsiL6gS0SCXXG_9wp_config7sources5build27validate_specs_with_factory0B7_
FN:249,_RNCNvNtNtNtCsiL6gS0SCXXG_9wp_config7sources5build5testss_33merge_params_whitelist_ok_and_err0B9_
FN:99,_RNCNvNtNtCsiL6gS0SCXXG_9wp_config7sources5build31load_source_instances_from_file0B7_
FN:100,_RNCNvNtNtCsiL6gS0SCXXG_9wp_config7sources5build31load_source_instances_from_files_0B7_
FN:73,_RNvNtNtCsiL6gS0SCXXG_9wp_config7sources5build30load_source_instances_from_str
FN:87,_RNvNtNtCsiL6gS0SCXXG_9wp_config7sources5build31load_source_instances_from_file
FN:197,_RNvNtNtCsiL6gS0SCXXG_9wp_config7sources5build32load_sources_from_str_deprecated
FN:43,_RNvNtNtCsiL6gS0SCXXG_9wp_config7sources5build19merge_source_params
FN:106,_RNvNtNtCsiL6gS0SCXXG_9wp_config7sources5build22build_source_instances
FN:16,_RNvNtNtCsiL6gS0SCXXG_9wp_config7sources5build23parse_and_validate_only
FN:39,_RNvNtNtCsiL6gS0SCXXG_9wp_config7sources5build27is_nested_field_blacklisted
FN:137,_RNvNtNtCsiL6gS0SCXXG_9wp_config7sources5build27validate_specs_with_factory
FN:170,_RNvXNtNtCsiL6gS0SCXXG_9wp_config7sources5buildINtNtCsiTraAjBDcu4_5alloc3vec3VecNtNtNtNtB6_9structure6source8instance18SourceInstanceConfENtNtNtB6_6loader6traits12ConfigLoader13load_from_str
FN:166,_RNvXNtNtCsiL6gS0SCXXG_9wp_config7sources5buildINtNtCsiTraAjBDcu4_5alloc3vec3VecNtNtNtNtB6_9structure6source8instance18SourceInstanceConfENtNtNtB6_6loader6traits12ConfigLoader16config_type_name
FN:184,_RNvXNtNtCsiL6gS0SCXXG_9wp_config7sources5buildINtNtCsiTraAjBDcu4_5alloc3vec3VecNtNtNtNtB6_9structure6source8instance18SourceInstanceConfENtNtNtB6_6loader6traits12ConfigLoader8validate
FN:217,_RNvNtNtNtCsiL6gS0SCXXG_9wp_config7sources5build5tests7tmp_dir
FN:229,_RNvNtNtNtCsiL6gS0SCXXG_9wp_config7sources5build5testss_16parse_minimal_ok
FN:309,_RNvNtNtNtCsiL6gS0SCXXG_9wp_config7sources5build5testss_25connectors_dedup_detected
FN:490,_RNvNtNtNtCsiL6gS0SCXXG_9wp_config7sources5build5testss_31config_loader_validation_called
FN:410,_RNvNtNtNtCsiL6gS0SCXXG_9wp_config7sources5build5testss_33config_loader_load_from_str_works
FN:240,_RNvNtNtNtCsiL6gS0SCXXG_9wp_config7sources5build5testss_33merge_params_whitelist_ok_and_err
FN:449,_RNvNtNtNtCsiL6gS0SCXXG_9wp_config7sources5build5testss_34config_loader_load_from_path_works
FN:393,_RNvNtNtNtCsiL6gS0SCXXG_9wp_config7sources5build5testss_35plugin_validate_fails_without_param
FN:269,_RNvNtNtNtCsiL6gS0SCXXG_9wp_config7sources5build5testss_35specs_from_wrapper_filters_disabled
FN:366,_RNvXNtNtNtCsiL6gS0SCXXG_9wp_config7sources5build5testsNtB2_12DummyFactoryNtNtNtCsdtHoAw36XFU_16wp_connector_api7runtime3cnn17SourceDefProvider10source_def
FN:349,_RNvXs0_NtNtNtCsiL6gS0SCXXG_9wp_config7sources5build5testsNtB5_12DummyFactoryNtNtNtNtCsdtHoAw36XFU_16wp_connector_api7runtime6source7factory13SourceFactory13validate_spec
FN:346,_RNvXs0_NtNtNtCsiL6gS0SCXXG_9wp_config7sources5build5testsNtB5_12DummyFactoryNtNtNtNtCsdtHoAw36XFU_16wp_connector_api7runtime6source7factory13SourceFactory4kind
FN:360,_RNvXs0_NtNtNtCsiL6gS0SCXXG_9wp_config7sources5build5testsNtB5_12DummyFactoryNtNtNtNtCsdtHoAw36XFU_16wp_connector_api7runtime6source7factory13SourceFactory5build
FN:380,_RNvXs_NtNtNtCsiL6gS0SCXXG_9wp_config7sources5build5testsNtB4_8DummyRegNtB6_21SourceFactoryRegistry11get_factory
FNDA:0,_RNvXNtNtCs48GgPJaqr2Q_9wp_config7sources5buildINtNtCsiTraAjBDcu4_5alloc3vec3VecNtNtNtNtB6_9structure6source8instance18SourceInstanceConfENtNtNtB6_6loader6traits12ConfigLoader13load_from_str
FNDA:0,_RNvXNtNtCs48GgPJaqr2Q_9wp_config7sources5buildINtNtCsiTraAjBDcu4_5alloc3vec3VecNtNtNtNtB6_9structure6source8instance18SourceInstanceConfENtNtNtB6_6loader6traits12ConfigLoader16config_type_name
FNDA:0,_RNvXNtNtCs48GgPJaqr2Q_9wp_config7sources5buildINtNtCsiTraAjBDcu4_5alloc3vec3VecNtNtNtNtB6_9structure6source8instance18SourceInstanceConfENtNtNtB6_6loader6traits12ConfigLoader8validate
FNDA:18,_RNvNtNtCs48GgPJaqr2Q_9wp_config7sources5build19merge_source_params
FNDA:22,_RNvNtNtCs48GgPJaqr2Q_9wp_config7sources5build22build_source_instances
FNDA:20,_RNvNtNtCs48GgPJaqr2Q_9wp_config7sources5build23parse_and_validate_only
FNDA:38,_RNvNtNtCs48GgPJaqr2Q_9wp_config7sources5build27is_nested_field_blacklisted
FNDA:4,_RNvNtNtCs48GgPJaqr2Q_9wp_config7sources5build27validate_specs_with_factory
FNDA:22,_RNvNtNtCs48GgPJaqr2Q_9wp_config7sources5build30load_source_instances_from_str
FNDA:13,_RNvNtNtCs48GgPJaqr2Q_9wp_config7sources5build31load_source_instances_from_file
FNDA:0,_RNvNtNtCs48GgPJaqr2Q_9wp_config7sources5build32load_sources_from_str_deprecated
FNDA:76,_RNCNvNtNtCs48GgPJaqr2Q_9wp_config7sources5build19merge_source_params0B7_
FNDA:4,_RNCNvNtNtCs48GgPJaqr2Q_9wp_config7sources5build22build_source_instances0B7_
FNDA:0,_RNCNvNtNtCs48GgPJaqr2Q_9wp_config7sources5build27validate_specs_with_factory0B7_
FNDA:13,_RNCNvNtNtCs48GgPJaqr2Q_9wp_config7sources5build31load_source_instances_from_file0B7_
FNDA:0,_RNCNvNtNtCs48GgPJaqr2Q_9wp_config7sources5build31load_source_instances_from_files_0B7_
FNDA:4,_RNCNvNtNtCsiL6gS0SCXXG_9wp_config7sources5build19merge_source_params0B7_
FNDA:0,_RNCNvNtNtCsiL6gS0SCXXG_9wp_config7sources5build22build_source_instances0B7_
FNDA:1,_RNCNvNtNtCsiL6gS0SCXXG_9wp_config7sources5build27validate_specs_with_factory0B7_
FNDA:1,_RNCNvNtNtNtCsiL6gS0SCXXG_9wp_config7sources5build5testss_33merge_params_whitelist_ok_and_err0B9_
FNDA:0,_RNCNvNtNtCsiL6gS0SCXXG_9wp_config7sources5build31load_source_instances_from_file0B7_
FNDA:0,_RNCNvNtNtCsiL6gS0SCXXG_9wp_config7sources5build31load_source_instances_from_files_0B7_
FNDA:0,_RNvNtNtCsiL6gS0SCXXG_9wp_config7sources5build30load_source_instances_from_str
FNDA:0,_RNvNtNtCsiL6gS0SCXXG_9wp_config7sources5build31load_source_instances_from_file
FNDA:0,_RNvNtNtCsiL6gS0SCXXG_9wp_config7sources5build32load_sources_from_str_deprecated
FNDA:7,_RNvNtNtCsiL6gS0SCXXG_9wp_config7sources5build19merge_source_params
FNDA:4,_RNvNtNtCsiL6gS0SCXXG_9wp_config7sources5build22build_source_instances
FNDA:1,_RNvNtNtCsiL6gS0SCXXG_9wp_config7sources5build23parse_and_validate_only
FNDA:4,_RNvNtNtCsiL6gS0SCXXG_9wp_config7sources5build27is_nested_field_blacklisted
FNDA:1,_RNvNtNtCsiL6gS0SCXXG_9wp_config7sources5build27validate_specs_with_factory
FNDA:3,_RNvXNtNtCsiL6gS0SCXXG_9wp_config7sources5buildINtNtCsiTraAjBDcu4_5alloc3vec3VecNtNtNtNtB6_9structure6source8instance18SourceInstanceConfENtNtNtB6_6loader6traits12ConfigLoader13load_from_str
FNDA:0,_RNvXNtNtCsiL6gS0SCXXG_9wp_config7sources5buildINtNtCsiTraAjBDcu4_5alloc3vec3VecNtNtNtNtB6_9structure6source8instance18SourceInstanceConfENtNtNtB6_6loader6traits12ConfigLoader16config_type_name
FNDA:2,_RNvXNtNtCsiL6gS0SCXXG_9wp_config7sources5buildINtNtCsiTraAjBDcu4_5alloc3vec3VecNtNtNtNtB6_9structure6source8instance18SourceInstanceConfENtNtNtB6_6loader6traits12ConfigLoader8validate
FNDA:4,_RNvNtNtNtCsiL6gS0SCXXG_9wp_config7sources5build5tests7tmp_dir
FNDA:1,_RNvNtNtNtCsiL6gS0SCXXG_9wp_config7sources5build5testss_16parse_minimal_ok
FNDA:1,_RNvNtNtNtCsiL6gS0SCXXG_9wp_config7sources5build5testss_25connectors_dedup_detected
FNDA:1,_RNvNtNtNtCsiL6gS0SCXXG_9wp_config7sources5build5testss_31config_loader_validation_called
FNDA:1,_RNvNtNtNtCsiL6gS0SCXXG_9wp_config7sources5build5testss_33config_loader_load_from_str_works
FNDA:1,_RNvNtNtNtCsiL6gS0SCXXG_9wp_config7sources5build5testss_33merge_params_whitelist_ok_and_err
FNDA:1,_RNvNtNtNtCsiL6gS0SCXXG_9wp_config7sources5build5testss_34config_loader_load_from_path_works
FNDA:1,_RNvNtNtNtCsiL6gS0SCXXG_9wp_config7sources5build5testss_35plugin_validate_fails_without_param
FNDA:1,_RNvNtNtNtCsiL6gS0SCXXG_9wp_config7sources5build5testss_35specs_from_wrapper_filters_disabled
FNDA:0,_RNvXNtNtNtCsiL6gS0SCXXG_9wp_config7sources5build5testsNtB2_12DummyFactoryNtNtNtCsdtHoAw36XFU_16wp_connector_api7runtime3cnn17SourceDefProvider10source_def
FNDA:1,_RNvXs0_NtNtNtCsiL6gS0SCXXG_9wp_config7sources5build5testsNtB5_12DummyFactoryNtNtNtNtCsdtHoAw36XFU_16wp_connector_api7runtime6source7factory13SourceFactory13validate_spec
FNDA:0,_RNvXs0_NtNtNtCsiL6gS0SCXXG_9wp_config7sources5build5testsNtB5_12DummyFactoryNtNtNtNtCsdtHoAw36XFU_16wp_connector_api7runtime6source7factory13SourceFactory4kind
FNDA:0,_RNvXs0_NtNtNtCsiL6gS0SCXXG_9wp_config7sources5build5testsNtB5_12DummyFactoryNtNtNtNtCsdtHoAw36XFU_16wp_connector_api7runtime6source7factory13SourceFactory5build
FNDA:1,_RNvXs_NtNtNtCsiL6gS0SCXXG_9wp_config7sources5build5testsNtB4_8DummyRegNtB6_21SourceFactoryRegistry11get_factory
FNF:31
FNH:25
DA:16,21
DA:17,21
DA:18,21
DA:19,21
DA:20,21
DA:21,21
DA:22,21
DA:23,21
DA:24,21
DA:25,20
DA:26,1
DA:27,19
DA:28,19
DA:29,19
DA:30,19
DA:31,19
DA:32,19
DA:33,19
DA:35,21
DA:36,21
DA:39,42
DA:40,42
DA:41,42
DA:43,25
DA:44,25
DA:45,25
DA:46,25
DA:47,25
DA:48,25
DA:49,42
DA:50,42
DA:51,1
DA:52,1
DA:53,1
DA:54,1
DA:55,1
DA:56,1
DA:57,1
DA:58,1
DA:59,1
DA:60,41
DA:61,80
DA:62,3
DA:63,3
DA:64,3
DA:65,3
DA:66,38
DA:67,38
DA:69,21
DA:70,25
DA:73,22
DA:74,22
DA:75,22
DA:76,22
DA:77,22
DA:78,22
DA:79,22
DA:80,22
DA:81,22
DA:82,22
DA:83,22
DA:84,22
DA:87,13
DA:88,13
DA:89,13
DA:90,13
DA:91,13
DA:92,13
DA:93,13
DA:94,13
DA:95,13
DA:96,0
DA:98,13
DA:99,13
DA:100,13
DA:102,13
DA:103,13
DA:106,26
DA:107,26
DA:108,26
DA:109,26
DA:110,26
DA:111,27
DA:112,27
DA:113,1
DA:114,26
DA:115,26
DA:116,4
DA:117,4
DA:118,4
DA:119,4
DA:122,4
DA:123,22
DA:124,20
DA:125,20
DA:126,20
DA:128,20
DA:129,26
DA:137,5
DA:138,5
DA:139,5
DA:140,5
DA:141,5
DA:142,5
DA:143,5
DA:144,5
DA:145,5
DA:146,5
DA:148,5
DA:149,1
DA:150,1
DA:151,1
DA:152,1
DA:155,1
DA:156,0
DA:158,4
DA:159,5
DA:166,0
DA:167,0
DA:168,0
DA:170,3
DA:172,3
DA:173,3
DA:174,3
DA:175,3
DA:178,3
DA:181,3
DA:182,3
DA:184,2
DA:185,2
DA:186,2
DA:188,1
DA:189,2
DA:197,0
DA:198,0
DA:199,0
DA:200,0
DA:201,0
DA:202,0
DA:203,0
DA:217,4
DA:218,4
DA:219,4
DA:220,4
DA:221,4
DA:222,4
DA:223,4
DA:224,4
DA:225,4
DA:226,4
DA:229,1
DA:230,1
DA:231,1
DA:232,1
DA:233,1
DA:234,1
DA:236,1
DA:237,1
DA:240,1
DA:241,1
DA:242,1
DA:243,1
DA:246,1
DA:247,1
DA:248,1
DA:249,1
DA:252,1
DA:253,1
DA:254,1
DA:255,1
DA:256,1
DA:257,1
DA:260,1
DA:261,1
DA:262,1
DA:263,1
DA:264,1
DA:265,1
DA:266,1
DA:269,1
DA:270,1
DA:271,1
DA:272,1
DA:273,1
DA:274,1
DA:275,1
DA:276,1
DA:277,1
DA:278,1
DA:279,1
DA:280,1
DA:281,1
DA:283,1
DA:285,1
DA:286,1
DA:287,1
DA:288,1
DA:289,1
DA:290,1
DA:291,1
DA:292,1
DA:293,1
DA:294,1
DA:295,1
DA:296,1
DA:297,1
DA:298,1
DA:299,1
DA:300,1
DA:301,1
DA:302,1
DA:303,1
DA:304,1
DA:305,1
DA:306,1
DA:309,1
DA:310,1
DA:311,1
DA:312,1
DA:314,1
DA:315,1
DA:322,1
DA:323,1
DA:324,1
DA:331,1
DA:332,1
DA:333,1
DA:334,1
DA:335,1
DA:336,1
DA:346,0
DA:347,0
DA:348,0
DA:349,1
DA:351,1
DA:352,1
DA:353,0
DA:354,0
DA:355,1
DA:360,0
DA:362,0
DA:366,0
DA:367,0
DA:368,0
DA:369,0
DA:370,0
DA:371,0
DA:372,0
DA:373,0
DA:374,0
DA:375,0
DA:380,1
DA:381,1
DA:382,1
DA:383,1
DA:384,1
DA:385,1
DA:387,0
DA:389,1
DA:393,1
DA:395,1
DA:396,1
DA:397,1
DA:398,1
DA:399,1
DA:400,1
DA:401,1
DA:402,1
DA:403,1
DA:410,1
DA:413,1
DA:414,1
DA:415,1
DA:418,1
DA:419,1
DA:428,1
DA:431,1
DA:432,1
DA:433,1
DA:434,1
DA:435,1
DA:436,1
DA:437,1
DA:439,1
DA:440,1
DA:442,1
DA:443,1
DA:444,1
DA:445,1
DA:446,1
DA:449,1
DA:452,1
DA:453,1
DA:454,1
DA:457,1
DA:458,1
DA:465,1
DA:468,1
DA:469,1
DA:470,1
DA:477,1
DA:480,1
DA:481,1
DA:483,1
DA:484,1
DA:485,1
DA:486,1
DA:487,1
DA:490,1
DA:493,1
DA:494,1
DA:495,1
DA:497,1
DA:498,1
DA:505,1
DA:508,1
DA:509,1
DA:510,1
DA:517,1
DA:520,1
DA:521,1
DA:524,1
DA:525,1
BRF:0
BRH:0
LF:331
LH:298
end_of_record
SF:/Users/zwk/src_code/wp-labs/wp-motor/crates/wp-config/src/sources/io.rs
FN:12,_RNvNtNtCs48GgPJaqr2Q_9wp_config7sources2io19find_connectors_dir
FN:22,_RNvNtNtCs48GgPJaqr2Q_9wp_config7sources2io19load_connectors_for
FN:17,_RNvNtNtCs48GgPJaqr2Q_9wp_config7sources2io27resolve_connectors_base_dir
FN:17,_RNvNtNtCsiL6gS0SCXXG_9wp_config7sources2io27resolve_connectors_base_dir
FN:12,_RNvNtNtCsiL6gS0SCXXG_9wp_config7sources2io19find_connectors_dir
FN:22,_RNvNtNtCsiL6gS0SCXXG_9wp_config7sources2io19load_connectors_for
FNDA:43,_RNvNtNtCs48GgPJaqr2Q_9wp_config7sources2io19find_connectors_dir
FNDA:34,_RNvNtNtCs48GgPJaqr2Q_9wp_config7sources2io19load_connectors_for
FNDA:4,_RNvNtNtCs48GgPJaqr2Q_9wp_config7sources2io27resolve_connectors_base_dir
FNDA:0,_RNvNtNtCsiL6gS0SCXXG_9wp_config7sources2io27resolve_connectors_base_dir
FNDA:4,_RNvNtNtCsiL6gS0SCXXG_9wp_config7sources2io19find_connectors_dir
FNDA:4,_RNvNtNtCsiL6gS0SCXXG_9wp_config7sources2io19load_connectors_for
FNF:3
FNH:3
DA:12,47
DA:13,47
DA:14,47
DA:17,4
DA:18,4
DA:19,4
DA:22,38
DA:23,38
DA:24,38
DA:25,38
DA:26,38
DA:27,38
DA:28,43
DA:29,43
DA:30,43
DA:31,1
DA:32,37
DA:33,38
BRF:0
BRH:0
LF:18
LH:18
end_of_record
SF:/Users/zwk/src_code/wp-labs/wp-motor/crates/wp-config/src/sources/resolved.rs
FN:15,_RINvNtNtCs48GgPJaqr2Q_9wp_config7sources8resolved21core_to_resolved_withNtNtCsiTraAjBDcu4_5alloc6string6StringEB6_
FN:4,_RNvNtNtCsiL6gS0SCXXG_9wp_config7sources8resolved16core_to_resolved
FN:15,_RINvNtNtCsiL6gS0SCXXG_9wp_config7sources8resolved21core_to_resolved_withNtNtCsiTraAjBDcu4_5alloc6string6StringEB6_
FNDA:8,_RINvNtNtCs48GgPJaqr2Q_9wp_config7sources8resolved21core_to_resolved_withNtNtCsiTraAjBDcu4_5alloc6string6StringEB6_
FNDA:0,_RNvNtNtCsiL6gS0SCXXG_9wp_config7sources8resolved16core_to_resolved
FNDA:1,_RINvNtNtCsiL6gS0SCXXG_9wp_config7sources8resolved21core_to_resolved_withNtNtCsiTraAjBDcu4_5alloc6string6StringEB6_
FNF:2
FNH:1
DA:4,0
DA:5,0
DA:6,0
DA:7,0
DA:8,0
DA:9,0
DA:10,0
DA:11,0
DA:12,0
DA:15,9
DA:16,9
DA:17,9
DA:18,9
DA:19,9
DA:20,9
DA:21,9
DA:22,9
DA:23,9
DA:24,9
DA:25,9
DA:26,9
BRF:0
BRH:0
LF:21
LH:12
end_of_record
SF:/Users/zwk/src_code/wp-labs/wp-motor/crates/wp-config/src/sources/types.rs
FN:27,_RNvXNtNtCs48GgPJaqr2Q_9wp_config7sources5typesNtB2_8WpSourceINtNtNtCsfv6z1NgKsoT_13orion_variate4vars5types12EnvEvaluableBI_E8env_eval
FN:46,_RNvXs_NtNtCs48GgPJaqr2Q_9wp_config7sources5typesNtB4_15WpSourcesConfigINtNtNtCsfv6z1NgKsoT_13orion_variate4vars5types12EnvEvaluableBK_E8env_eval
FN:85,_RNCNvNtNtNtCsiL6gS0SCXXG_9wp_config7sources5types5testss_31env_eval_rewrites_source_fields0B9_
FN:89,_RNCNvNtNtNtCsiL6gS0SCXXG_9wp_config7sources5types5testss_31env_eval_rewrites_source_fieldss_0B9_
FN:119,_RNCNvNtNtNtCsiL6gS0SCXXG_9wp_config7sources5types5testss_46env_eval_on_sources_config_propagates_to_items0B9_
FN:123,_RNCNvNtNtNtCsiL6gS0SCXXG_9wp_config7sources5types5testss_46env_eval_on_sources_config_propagates_to_itemss_0B9_
FN:62,_RNvNtNtNtCsiL6gS0SCXXG_9wp_config7sources5types5testss_31env_eval_rewrites_source_fields
FN:95,_RNvNtNtNtCsiL6gS0SCXXG_9wp_config7sources5types5testss_46env_eval_on_sources_config_propagates_to_items
FN:27,_RNvXNtNtCsiL6gS0SCXXG_9wp_config7sources5typesNtB2_8WpSourceINtNtNtCsfv6z1NgKsoT_13orion_variate4vars5types12EnvEvaluableBI_E8env_eval
FN:46,_RNvXs_NtNtCsiL6gS0SCXXG_9wp_config7sources5typesNtB4_15WpSourcesConfigINtNtNtCsfv6z1NgKsoT_13orion_variate4vars5types12EnvEvaluableBK_E8env_eval
FNDA:25,_RNvXNtNtCs48GgPJaqr2Q_9wp_config7sources5typesNtB2_8WpSourceINtNtNtCsfv6z1NgKsoT_13orion_variate4vars5types12EnvEvaluableBI_E8env_eval
FNDA:25,_RNvXs_NtNtCs48GgPJaqr2Q_9wp_config7sources5typesNtB4_15WpSourcesConfigINtNtNtCsfv6z1NgKsoT_13orion_variate4vars5types12EnvEvaluableBK_E8env_eval
FNDA:1,_RNCNvNtNtNtCsiL6gS0SCXXG_9wp_config7sources5types5testss_31env_eval_rewrites_source_fields0B9_
FNDA:1,_RNCNvNtNtNtCsiL6gS0SCXXG_9wp_config7sources5types5testss_31env_eval_rewrites_source_fieldss_0B9_
FNDA:1,_RNCNvNtNtNtCsiL6gS0SCXXG_9wp_config7sources5types5testss_46env_eval_on_sources_config_propagates_to_items0B9_
FNDA:1,_RNCNvNtNtNtCsiL6gS0SCXXG_9wp_config7sources5types5testss_46env_eval_on_sources_config_propagates_to_itemss_0B9_
FNDA:1,_RNvNtNtNtCsiL6gS0SCXXG_9wp_config7sources5types5testss_31env_eval_rewrites_source_fields
FNDA:1,_RNvNtNtNtCsiL6gS0SCXXG_9wp_config7sources5types5testss_46env_eval_on_sources_config_propagates_to_items
FNDA:5,_RNvXNtNtCsiL6gS0SCXXG_9wp_config7sources5typesNtB2_8WpSourceINtNtNtCsfv6z1NgKsoT_13orion_variate4vars5types12EnvEvaluableBI_E8env_eval
FNDA:4,_RNvXs_NtNtCsiL6gS0SCXXG_9wp_config7sources5typesNtB4_15WpSourcesConfigINtNtNtCsfv6z1NgKsoT_13orion_variate4vars5types12EnvEvaluableBK_E8env_eval
FNF:8
FNH:8
DA:27,30
DA:28,30
DA:29,30
DA:30,30
DA:31,30
DA:32,30
DA:33,30
DA:46,29
DA:47,29
DA:48,29
DA:49,29
DA:62,1
DA:63,1
DA:64,1
DA:65,1
DA:66,1
DA:67,1
DA:68,1
DA:69,1
DA:70,1
DA:71,1
DA:72,1
DA:73,1
DA:74,1
DA:75,1
DA:76,1
DA:77,1
DA:78,1
DA:80,1
DA:81,1
DA:82,1
DA:83,1
DA:84,1
DA:85,1
DA:88,1
DA:89,1
DA:92,1
DA:95,1
DA:96,1
DA:97,1
DA:98,1
DA:99,1
DA:100,1
DA:101,1
DA:102,1
DA:103,1
DA:104,1
DA:105,1
DA:106,1
DA:107,1
DA:108,1
DA:109,1
DA:110,1
DA:111,1
DA:112,1
DA:114,1
DA:115,1
DA:116,1
DA:117,1
DA:118,1
DA:119,1
DA:122,1
DA:123,1
DA:126,1
BRF:0
BRH:0
LF:68
LH:68
end_of_record
SF:/Users/zwk/src_code/wp-labs/wp-motor/crates/wp-config/src/stat/mod.rs
FN:104,_RINvMs0_NtCs48GgPJaqr2Q_9wp_config4statNtB6_15StatItemBuilder3keypEB8_
FN:114,_RINvMs0_NtCs48GgPJaqr2Q_9wp_config4statNtB6_15StatItemBuilder6fieldspEB8_
FN:109,_RINvMs0_NtCs48GgPJaqr2Q_9wp_config4statNtB6_15StatItemBuilder6targetpEB8_
FN:115,_RNCINvMs0_NtCs48GgPJaqr2Q_9wp_config4statNtB8_15StatItemBuilder6fieldspE0Ba_
FN:124,_RNvMs0_NtCs48GgPJaqr2Q_9wp_config4statNtB5_15StatItemBuilder5build
FN:119,_RNvMs0_NtCs48GgPJaqr2Q_9wp_config4statNtB5_15StatItemBuilder5top_n
FN:135,_RNvMs1_NtCs48GgPJaqr2Q_9wp_config4statNtB5_8StatConf11gen_default
FN:39,_RNvXNtCs48GgPJaqr2Q_9wp_config4statNtB2_8StatConfNtNtCsaNl6UpbT7bw_4core7default7Default7default
FN:93,_RNvXs_NtCs48GgPJaqr2Q_9wp_config4statNtB4_15StatItemBuilderNtNtCsaNl6UpbT7bw_4core7default7Default7default
FN:39,_RNvXNtCsiL6gS0SCXXG_9wp_config4statNtB2_8StatConfNtNtCsaNl6UpbT7bw_4core7default7Default7default
FN:104,_RINvMs0_NtCsiL6gS0SCXXG_9wp_config4statNtB6_15StatItemBuilder3keypEB8_
FN:114,_RINvMs0_NtCsiL6gS0SCXXG_9wp_config4statNtB6_15StatItemBuilder6fieldspEB8_
FN:109,_RINvMs0_NtCsiL6gS0SCXXG_9wp_config4statNtB6_15StatItemBuilder6targetpEB8_
FN:115,_RNCINvMs0_NtCsiL6gS0SCXXG_9wp_config4statNtB8_15StatItemBuilder6fieldspE0Ba_
FN:124,_RNvMs0_NtCsiL6gS0SCXXG_9wp_config4statNtB5_15StatItemBuilder5build
FN:119,_RNvMs0_NtCsiL6gS0SCXXG_9wp_config4statNtB5_15StatItemBuilder5top_n
FN:135,_RNvMs1_NtCsiL6gS0SCXXG_9wp_config4statNtB5_8StatConf11gen_default
FN:93,_RNvXs_NtCsiL6gS0SCXXG_9wp_config4statNtB4_15StatItemBuilderNtNtCsaNl6UpbT7bw_4core7default7Default7default
FNDA:0,_RINvMs0_NtCs48GgPJaqr2Q_9wp_config4statNtB6_15StatItemBuilder3keypEB8_
FNDA:0,_RINvMs0_NtCs48GgPJaqr2Q_9wp_config4statNtB6_15StatItemBuilder6fieldspEB8_
FNDA:0,_RINvMs0_NtCs48GgPJaqr2Q_9wp_config4statNtB6_15StatItemBuilder6targetpEB8_
FNDA:0,_RNCINvMs0_NtCs48GgPJaqr2Q_9wp_config4statNtB8_15StatItemBuilder6fieldspE0Ba_
FNDA:0,_RNvMs0_NtCs48GgPJaqr2Q_9wp_config4statNtB5_15StatItemBuilder5build
FNDA:0,_RNvMs0_NtCs48GgPJaqr2Q_9wp_config4statNtB5_15StatItemBuilder5top_n
FNDA:0,_RNvMs1_NtCs48GgPJaqr2Q_9wp_config4statNtB5_8StatConf11gen_default
FNDA:63,_RNvXNtCs48GgPJaqr2Q_9wp_config4statNtB2_8StatConfNtNtCsaNl6UpbT7bw_4core7default7Default7default
FNDA:0,_RNvXs_NtCs48GgPJaqr2Q_9wp_config4statNtB4_15StatItemBuilderNtNtCsaNl6UpbT7bw_4core7default7Default7default
FNDA:9,_RNvXNtCsiL6gS0SCXXG_9wp_config4statNtB2_8StatConfNtNtCsaNl6UpbT7bw_4core7default7Default7default
FNDA:0,_RINvMs0_NtCsiL6gS0SCXXG_9wp_config4statNtB6_15StatItemBuilder3keypEB8_
FNDA:0,_RINvMs0_NtCsiL6gS0SCXXG_9wp_config4statNtB6_15StatItemBuilder6fieldspEB8_
FNDA:0,_RINvMs0_NtCsiL6gS0SCXXG_9wp_config4statNtB6_15StatItemBuilder6targetpEB8_
FNDA:0,_RNCINvMs0_NtCsiL6gS0SCXXG_9wp_config4statNtB8_15StatItemBuilder6fieldspE0Ba_
FNDA:0,_RNvMs0_NtCsiL6gS0SCXXG_9wp_config4statNtB5_15StatItemBuilder5build
FNDA:0,_RNvMs0_NtCsiL6gS0SCXXG_9wp_config4statNtB5_15StatItemBuilder5top_n
FNDA:0,_RNvMs1_NtCsiL6gS0SCXXG_9wp_config4statNtB5_8StatConf11gen_default
FNDA:0,_RNvXs_NtCsiL6gS0SCXXG_9wp_config4statNtB4_15StatItemBuilderNtNtCsaNl6UpbT7bw_4core7default7Default7default
FNF:9
FNH:1
DA:39,72
DA:40,72
DA:41,72
DA:42,72
DA:43,72
DA:44,72
DA:45,72
DA:46,72
DA:47,72
DA:48,72
DA:49,72
DA:50,72
DA:51,72
DA:52,72
DA:53,72
DA:54,72
DA:55,72
DA:56,72
DA:57,72
DA:58,72
DA:59,72
DA:60,72
DA:61,72
DA:62,72
DA:63,72
DA:64,72
DA:93,0
DA:94,0
DA:95,0
DA:96,0
DA:97,0
DA:98,0
DA:99,0
DA:100,0
DA:104,0
DA:105,0
DA:106,0
DA:107,0
DA:109,0
DA:110,0
DA:111,0
DA:112,0
DA:114,0
DA:115,0
DA:116,0
DA:117,0
DA:119,0
DA:120,0
DA:121,0
DA:122,0
DA:124,0
DA:125,0
DA:126,0
DA:127,0
DA:128,0
DA:129,0
DA:130,0
DA:131,0
DA:135,0
DA:137,0
DA:138,0
DA:139,0
DA:140,0
DA:141,0
DA:142,0
DA:143,0
DA:144,0
DA:145,0
DA:146,0
DA:147,0
DA:148,0
BRF:0
BRH:0
LF:72
LH:26
end_of_record
SF:/Users/zwk/src_code/wp-labs/wp-motor/crates/wp-config/src/structure/framework.rs
FN:9,_RNvMNtNtCs48GgPJaqr2Q_9wp_config9structure9frameworkNtNtB4_5group10FixedGroup11default_ins
FN:41,_RNvMNtNtCs48GgPJaqr2Q_9wp_config9structure9frameworkNtNtB4_5group10FixedGroup11residue_ins
FN:25,_RNvMNtNtCs48GgPJaqr2Q_9wp_config9structure9frameworkNtNtB4_5group10FixedGroup8miss_ins
FN:58,_RNvMNtNtCs48GgPJaqr2Q_9wp_config9structure9frameworkNtNtB4_5group10FixedGroup9error_ins
FN:75,_RNvMs_NtNtCs48GgPJaqr2Q_9wp_config9structure9frameworkNtNtB6_5group9FlexGroup11monitor_ins
FN:9,_RNvMNtNtCsiL6gS0SCXXG_9wp_config9structure9frameworkNtNtB4_5group10FixedGroup11default_ins
FN:41,_RNvMNtNtCsiL6gS0SCXXG_9wp_config9structure9frameworkNtNtB4_5group10FixedGroup11residue_ins
FN:25,_RNvMNtNtCsiL6gS0SCXXG_9wp_config9structure9frameworkNtNtB4_5group10FixedGroup8miss_ins
FN:58,_RNvMNtNtCsiL6gS0SCXXG_9wp_config9structure9frameworkNtNtB4_5group10FixedGroup9error_ins
FN:75,_RNvMs_NtNtCsiL6gS0SCXXG_9wp_config9structure9frameworkNtNtB6_5group9FlexGroup11monitor_ins
FNDA:13,_RNvMNtNtCs48GgPJaqr2Q_9wp_config9structure9frameworkNtNtB4_5group10FixedGroup11default_ins
FNDA:2,_RNvMNtNtCs48GgPJaqr2Q_9wp_config9structure9frameworkNtNtB4_5group10FixedGroup11residue_ins
FNDA:2,_RNvMNtNtCs48GgPJaqr2Q_9wp_config9structure9frameworkNtNtB4_5group10FixedGroup8miss_ins
FNDA:2,_RNvMNtNtCs48GgPJaqr2Q_9wp_config9structure9frameworkNtNtB4_5group10FixedGroup9error_ins
FNDA:2,_RNvMs_NtNtCs48GgPJaqr2Q_9wp_config9structure9frameworkNtNtB6_5group9FlexGroup11monitor_ins
FNDA:0,_RNvMNtNtCsiL6gS0SCXXG_9wp_config9structure9frameworkNtNtB4_5group10FixedGroup11default_ins
FNDA:0,_RNvMNtNtCsiL6gS0SCXXG_9wp_config9structure9frameworkNtNtB4_5group10FixedGroup11residue_ins
FNDA:0,_RNvMNtNtCsiL6gS0SCXXG_9wp_config9structure9frameworkNtNtB4_5group10FixedGroup8miss_ins
FNDA:0,_RNvMNtNtCsiL6gS0SCXXG_9wp_config9structure9frameworkNtNtB4_5group10FixedGroup9error_ins
FNDA:0,_RNvMs_NtNtCsiL6gS0SCXXG_9wp_config9structure9frameworkNtNtB6_5group9FlexGroup11monitor_ins
FNF:5
FNH:5
DA:9,13
DA:10,13
DA:11,13
DA:12,13
DA:13,13
DA:14,13
DA:15,13
DA:16,13
DA:17,13
DA:18,13
DA:19,13
DA:20,13
DA:21,13
DA:22,13
DA:23,13
DA:25,2
DA:26,2
DA:27,2
DA:28,2
DA:29,2
DA:30,2
DA:31,2
DA:32,2
DA:33,2
DA:34,2
DA:35,2
DA:36,2
DA:37,2
DA:38,2
DA:39,2
DA:41,2
DA:42,2
DA:43,2
DA:44,2
DA:45,2
DA:46,2
DA:47,2
DA:48,2
DA:49,2
DA:50,2
DA:51,2
DA:52,2
DA:53,2
DA:54,2
DA:55,2
DA:58,2
DA:59,2
DA:60,2
DA:61,2
DA:62,2
DA:63,2
DA:64,2
DA:65,2
DA:66,2
DA:67,2
DA:68,2
DA:69,2
DA:70,2
DA:71,2
DA:72,2
DA:75,2
DA:76,2
DA:77,2
DA:78,2
DA:79,2
DA:80,2
DA:81,2
DA:82,2
DA:83,2
DA:84,2
DA:85,2
DA:86,2
DA:87,2
DA:88,2
DA:89,2
DA:90,2
DA:91,2
DA:92,2
DA:93,2
DA:94,2
DA:95,2
DA:96,2
DA:97,2
DA:98,2
DA:99,2
DA:100,2
DA:101,2
BRF:0
BRH:0
LF:87
LH:87
end_of_record
SF:/Users/zwk/src_code/wp-labs/wp-motor/crates/wp-config/src/structure/group.rs
FN:390,_RINvMs8_NtNtCs48GgPJaqr2Q_9wp_config9structure5groupNtB6_9FlexGroup3newReEBa_
FN:417,_RINvNtNtCs48GgPJaqr2Q_9wp_config9structure5group14extend_matchesNtNtCsiTraAjBDcu4_5alloc6string6StringEB6_
FN:417,_RINvNtNtCs48GgPJaqr2Q_9wp_config9structure5group14extend_matchesReEB6_
FN:136,_RINvXNvXs0_NtNtCs48GgPJaqr2Q_9wp_config9structure5groupNtB9_5BasisNtNtCsaJLahGZ21O0_10serde_core2de11Deserialize11deserializeNtB3_1VNtB14_7Visitor9visit_strNtNtNtCs7daIUM0aEA4_4toml2de5error5ErrorEBd_
FN:126,_RINvXs0_NtNtCs48GgPJaqr2Q_9wp_config9structure5groupNtB6_5BasisNtNtCsaJLahGZ21O0_10serde_core2de11Deserialize11deserializeINtNtB11_5value17UsizeDeserializerNtNtNtCs7daIUM0aEA4_4toml2de5error5ErrorEEBa_
FN:126,_RINvXs0_NtNtCs48GgPJaqr2Q_9wp_config9structure5groupNtB6_5BasisNtNtCsaJLahGZ21O0_10serde_core2de11Deserialize11deserializeINtNtB11_5value18StringDeserializerNtNtNtCs7daIUM0aEA4_4toml2de5error5ErrorEEBa_
FN:126,_RINvXs0_NtNtCs48GgPJaqr2Q_9wp_config9structure5groupNtB6_5BasisNtNtCsaJLahGZ21O0_10serde_core2de11Deserialize11deserializeNtNtNtNtCs7daIUM0aEA4_4toml2de12deserializer5value17ValueDeserializerEBa_
FN:404,_RNCINvMs8_NtNtCs48GgPJaqr2Q_9wp_config9structure5groupNtB8_9FlexGroup3newReE0Bc_
FN:381,_RNCNvMs8_NtNtCs48GgPJaqr2Q_9wp_config9structure5groupNtB7_9FlexGroup4new20Bb_
FN:196,_RNvMs1_NtNtCs48GgPJaqr2Q_9wp_config9structure5groupNtB5_13SinkGroupConf10batch_size
FN:190,_RNvMs1_NtNtCs48GgPJaqr2Q_9wp_config9structure5groupNtB5_13SinkGroupConf16batch_timeout_ms
FN:178,_RNvMs1_NtNtCs48GgPJaqr2Q_9wp_config9structure5groupNtB5_13SinkGroupConf4name
FN:172,_RNvMs1_NtNtCs48GgPJaqr2Q_9wp_config9structure5groupNtB5_13SinkGroupConf5sinks
FN:184,_RNvMs1_NtNtCs48GgPJaqr2Q_9wp_config9structure5groupNtB5_13SinkGroupConf6append
FN:233,_RNvMs3_NtNtCs48GgPJaqr2Q_9wp_config9structure5groupNtB5_10FixedGroup12parallel_cnt
FN:230,_RNvMs3_NtNtCs48GgPJaqr2Q_9wp_config9structure5groupNtB5_10FixedGroup6append
FN:267,_RNvMs4_NtNtCs48GgPJaqr2Q_9wp_config9structure5groupNtB5_9FlexGroup10build_conf
FN:282,_RNvMs4_NtNtCs48GgPJaqr2Q_9wp_config9structure5groupNtB5_9FlexGroup12parallel_cnt
FN:245,_RNvMs4_NtNtCs48GgPJaqr2Q_9wp_config9structure5groupNtB5_9FlexGroup12set_parallel
FN:248,_RNvMs4_NtNtCs48GgPJaqr2Q_9wp_config9structure5groupNtB5_9FlexGroup8test_new
FN:373,_RNvMs8_NtNtCs48GgPJaqr2Q_9wp_config9structure5groupNtB5_9FlexGroup4new2
FN:412,_RNvMs8_NtNtCs48GgPJaqr2Q_9wp_config9structure5groupNtB5_9FlexGroup6append
FN:86,_RNvMs_NtNtCs48GgPJaqr2Q_9wp_config9structure5groupNtB4_15GroupExpectSpec8validate
FN:47,_RNvNtNtCs48GgPJaqr2Q_9wp_config9structure5group18default_batch_size
FN:43,_RNvNtNtCs48GgPJaqr2Q_9wp_config9structure5group24default_batch_timeout_ms
FN:52,_RNvXNtNtCs48GgPJaqr2Q_9wp_config9structure5groupNtB2_9FlexGroupINtNtNtCsfv6z1NgKsoT_13orion_variate4vars5types12EnvEvaluableBK_E8env_eval
FN:133,_RNvXNvXs0_NtNtCs48GgPJaqr2Q_9wp_config9structure5groupNtB8_5BasisNtNtCsaJLahGZ21O0_10serde_core2de11Deserialize11deserializeNtB2_1VNtB13_7Visitor9expecting
FN:221,_RNvXs2_NtNtCs48GgPJaqr2Q_9wp_config9structure5groupNtB5_10FixedGroupINtNtNtCsfv6z1NgKsoT_13orion_variate4vars5types12EnvEvaluableBN_E8env_eval
FN:292,_RNvXs5_NtNtCs48GgPJaqr2Q_9wp_config9structure5groupNtB5_9FlexGroupNtNtCsg0PsmjmNqSl_12wp_conf_base9structure8Validate8validate
FN:323,_RNvXs6_NtNtCs48GgPJaqr2Q_9wp_config9structure5groupNtB5_10FixedGroupNtNtCsg0PsmjmNqSl_12wp_conf_base9structure8Validate8validate
FN:351,_RNvXs7_NtNtCs48GgPJaqr2Q_9wp_config9structure5groupNtB5_13SinkGroupConfNtNtCsg0PsmjmNqSl_12wp_conf_base9structure8Validate8validate
FN:478,_RNCNvNtNtNtCsiL6gS0SCXXG_9wp_config9structure5group5testss_45flex_group_env_eval_updates_members_and_sinks0B9_
FN:482,_RNCNvNtNtNtCsiL6gS0SCXXG_9wp_config9structure5group5testss_45flex_group_env_eval_updates_members_and_sinkss_0B9_
FN:390,_RINvMs8_NtNtCsiL6gS0SCXXG_9wp_config9structure5groupNtB6_9FlexGroup3newpEBa_
FN:417,_RINvNtNtCsiL6gS0SCXXG_9wp_config9structure5group14extend_matchespEB6_
FN:136,_RINvXNvXs0_NtNtCsiL6gS0SCXXG_9wp_config9structure5groupNtB9_5BasisNtNtCsaJLahGZ21O0_10serde_core2de11Deserialize11deserializeNtB3_1VNtB14_7Visitor9visit_strpEBd_
FN:126,_RINvXs0_NtNtCsiL6gS0SCXXG_9wp_config9structure5groupNtB6_5BasisNtNtCsaJLahGZ21O0_10serde_core2de11Deserialize11deserializepEBa_
FN:404,_RNCINvMs8_NtNtCsiL6gS0SCXXG_9wp_config9structure5groupNtB8_9FlexGroup3newpE0Bc_
FN:381,_RNCNvMs8_NtNtCsiL6gS0SCXXG_9wp_config9structure5groupNtB7_9FlexGroup4new20Bb_
FN:196,_RNvMs1_NtNtCsiL6gS0SCXXG_9wp_config9structure5groupNtB5_13SinkGroupConf10batch_size
FN:190,_RNvMs1_NtNtCsiL6gS0SCXXG_9wp_config9structure5groupNtB5_13SinkGroupConf16batch_timeout_ms
FN:178,_RNvMs1_NtNtCsiL6gS0SCXXG_9wp_config9structure5groupNtB5_13SinkGroupConf4name
FN:172,_RNvMs1_NtNtCsiL6gS0SCXXG_9wp_config9structure5groupNtB5_13SinkGroupConf5sinks
FN:184,_RNvMs1_NtNtCsiL6gS0SCXXG_9wp_config9structure5groupNtB5_13SinkGroupConf6append
FN:233,_RNvMs3_NtNtCsiL6gS0SCXXG_9wp_config9structure5groupNtB5_10FixedGroup12parallel_cnt
FN:230,_RNvMs3_NtNtCsiL6gS0SCXXG_9wp_config9structure5groupNtB5_10FixedGroup6append
FN:267,_RNvMs4_NtNtCsiL6gS0SCXXG_9wp_config9structure5groupNtB5_9FlexGroup10build_conf
FN:282,_RNvMs4_NtNtCsiL6gS0SCXXG_9wp_config9structure5groupNtB5_9FlexGroup12parallel_cnt
FN:245,_RNvMs4_NtNtCsiL6gS0SCXXG_9wp_config9structure5groupNtB5_9FlexGroup12set_parallel
FN:248,_RNvMs4_NtNtCsiL6gS0SCXXG_9wp_config9structure5groupNtB5_9FlexGroup8test_new
FN:373,_RNvMs8_NtNtCsiL6gS0SCXXG_9wp_config9structure5groupNtB5_9FlexGroup4new2
FN:412,_RNvMs8_NtNtCsiL6gS0SCXXG_9wp_config9structure5groupNtB5_9FlexGroup6append
FN:86,_RNvMs_NtNtCsiL6gS0SCXXG_9wp_config9structure5groupNtB4_15GroupExpectSpec8validate
FN:133,_RNvXNvXs0_NtNtCsiL6gS0SCXXG_9wp_config9structure5groupNtB8_5BasisNtNtCsaJLahGZ21O0_10serde_core2de11Deserialize11deserializeNtB2_1VNtB13_7Visitor9expecting
FN:221,_RNvXs2_NtNtCsiL6gS0SCXXG_9wp_config9structure5groupNtB5_10FixedGroupINtNtNtCsfv6z1NgKsoT_13orion_variate4vars5types12EnvEvaluableBN_E8env_eval
FN:292,_RNvXs5_NtNtCsiL6gS0SCXXG_9wp_config9structure5groupNtB5_9FlexGroupNtNtCsg0PsmjmNqSl_12wp_conf_base9structure8Validate8validate
FN:323,_RNvXs6_NtNtCsiL6gS0SCXXG_9wp_config9structure5groupNtB5_10FixedGroupNtNtCsg0PsmjmNqSl_12wp_conf_base9structure8Validate8validate
FN:351,_RNvXs7_NtNtCsiL6gS0SCXXG_9wp_config9structure5groupNtB5_13SinkGroupConfNtNtCsg0PsmjmNqSl_12wp_conf_base9structure8Validate8validate
FN:434,_RNvNtNtNtCsiL6gS0SCXXG_9wp_config9structure5group5testss_45flex_group_env_eval_updates_members_and_sinks
FN:47,_RNvNtNtCsiL6gS0SCXXG_9wp_config9structure5group18default_batch_size
FN:43,_RNvNtNtCsiL6gS0SCXXG_9wp_config9structure5group24default_batch_timeout_ms
FN:52,_RNvXNtNtCsiL6gS0SCXXG_9wp_config9structure5groupNtB2_9FlexGroupINtNtNtCsfv6z1NgKsoT_13orion_variate4vars5types12EnvEvaluableBK_E8env_eval
FNDA:0,_RINvMs8_NtNtCs48GgPJaqr2Q_9wp_config9structure5groupNtB6_9FlexGroup3newReEBa_
FNDA:56,_RINvNtNtCs48GgPJaqr2Q_9wp_config9structure5group14extend_matchesNtNtCsiTraAjBDcu4_5alloc6string6StringEB6_
FNDA:0,_RINvNtNtCs48GgPJaqr2Q_9wp_config9structure5group14extend_matchesReEB6_
FNDA:4,_RINvXNvXs0_NtNtCs48GgPJaqr2Q_9wp_config9structure5groupNtB9_5BasisNtNtCsaJLahGZ21O0_10serde_core2de11Deserialize11deserializeNtB3_1VNtB14_7Visitor9visit_strNtNtNtCs7daIUM0aEA4_4toml2de5error5ErrorEBd_
FNDA:0,_RINvXs0_NtNtCs48GgPJaqr2Q_9wp_config9structure5groupNtB6_5BasisNtNtCsaJLahGZ21O0_10serde_core2de11Deserialize11deserializeINtNtB11_5value17UsizeDeserializerNtNtNtCs7daIUM0aEA4_4toml2de5error5ErrorEEBa_
FNDA:0,_RINvXs0_NtNtCs48GgPJaqr2Q_9wp_config9structure5groupNtB6_5BasisNtNtCsaJLahGZ21O0_10serde_core2de11Deserialize11deserializeINtNtB11_5value18StringDeserializerNtNtNtCs7daIUM0aEA4_4toml2de5error5ErrorEEBa_
FNDA:4,_RINvXs0_NtNtCs48GgPJaqr2Q_9wp_config9structure5groupNtB6_5BasisNtNtCsaJLahGZ21O0_10serde_core2de11Deserialize11deserializeNtNtNtNtCs7daIUM0aEA4_4toml2de12deserializer5value17ValueDeserializerEBa_
FNDA:0,_RNCINvMs8_NtNtCs48GgPJaqr2Q_9wp_config9structure5groupNtB8_9FlexGroup3newReE0Bc_
FNDA:0,_RNCNvMs8_NtNtCs48GgPJaqr2Q_9wp_config9structure5groupNtB7_9FlexGroup4new20Bb_
FNDA:10,_RNvMs1_NtNtCs48GgPJaqr2Q_9wp_config9structure5groupNtB5_13SinkGroupConf10batch_size
FNDA:0,_RNvMs1_NtNtCs48GgPJaqr2Q_9wp_config9structure5groupNtB5_13SinkGroupConf16batch_timeout_ms
FNDA:37,_RNvMs1_NtNtCs48GgPJaqr2Q_9wp_config9structure5groupNtB5_13SinkGroupConf4name
FNDA:0,_RNvMs1_NtNtCs48GgPJaqr2Q_9wp_config9structure5groupNtB5_13SinkGroupConf5sinks
FNDA:0,_RNvMs1_NtNtCs48GgPJaqr2Q_9wp_config9structure5groupNtB5_13SinkGroupConf6append
FNDA:0,_RNvMs3_NtNtCs48GgPJaqr2Q_9wp_config9structure5groupNtB5_10FixedGroup12parallel_cnt
FNDA:0,_RNvMs3_NtNtCs48GgPJaqr2Q_9wp_config9structure5groupNtB5_10FixedGroup6append
FNDA:28,_RNvMs4_NtNtCs48GgPJaqr2Q_9wp_config9structure5groupNtB5_9FlexGroup10build_conf
FNDA:9,_RNvMs4_NtNtCs48GgPJaqr2Q_9wp_config9structure5groupNtB5_9FlexGroup12parallel_cnt
FNDA:0,_RNvMs4_NtNtCs48GgPJaqr2Q_9wp_config9structure5groupNtB5_9FlexGroup12set_parallel
FNDA:6,_RNvMs4_NtNtCs48GgPJaqr2Q_9wp_config9structure5groupNtB5_9FlexGroup8test_new
FNDA:0,_RNvMs8_NtNtCs48GgPJaqr2Q_9wp_config9structure5groupNtB5_9FlexGroup4new2
FNDA:0,_RNvMs8_NtNtCs48GgPJaqr2Q_9wp_config9structure5groupNtB5_9FlexGroup6append
FNDA:0,_RNvMs_NtNtCs48GgPJaqr2Q_9wp_config9structure5groupNtB4_15GroupExpectSpec8validate
FNDA:51,_RNvNtNtCs48GgPJaqr2Q_9wp_config9structure5group18default_batch_size
FNDA:63,_RNvNtNtCs48GgPJaqr2Q_9wp_config9structure5group24default_batch_timeout_ms
FNDA:2,_RNvXNtNtCs48GgPJaqr2Q_9wp_config9structure5groupNtB2_9FlexGroupINtNtNtCsfv6z1NgKsoT_13orion_variate4vars5types12EnvEvaluableBK_E8env_eval
FNDA:0,_RNvXNvXs0_NtNtCs48GgPJaqr2Q_9wp_config9structure5groupNtB8_5BasisNtNtCsaJLahGZ21O0_10serde_core2de11Deserialize11deserializeNtB2_1VNtB13_7Visitor9expecting
FNDA:8,_RNvXs2_NtNtCs48GgPJaqr2Q_9wp_config9structure5groupNtB5_10FixedGroupINtNtNtCsfv6z1NgKsoT_13orion_variate4vars5types12EnvEvaluableBN_E8env_eval
FNDA:0,_RNvXs5_NtNtCs48GgPJaqr2Q_9wp_config9structure5groupNtB5_9FlexGroupNtNtCsg0PsmjmNqSl_12wp_conf_base9structure8Validate8validate
FNDA:0,_RNvXs6_NtNtCs48GgPJaqr2Q_9wp_config9structure5groupNtB5_10FixedGroupNtNtCsg0PsmjmNqSl_12wp_conf_base9structure8Validate8validate
FNDA:0,_RNvXs7_NtNtCs48GgPJaqr2Q_9wp_config9structure5groupNtB5_13SinkGroupConfNtNtCsg0PsmjmNqSl_12wp_conf_base9structure8Validate8validate
FNDA:1,_RNCNvNtNtNtCsiL6gS0SCXXG_9wp_config9structure5group5testss_45flex_group_env_eval_updates_members_and_sinks0B9_
FNDA:1,_RNCNvNtNtNtCsiL6gS0SCXXG_9wp_config9structure5group5testss_45flex_group_env_eval_updates_members_and_sinkss_0B9_
FNDA:0,_RINvMs8_NtNtCsiL6gS0SCXXG_9wp_config9structure5groupNtB6_9FlexGroup3newpEBa_
FNDA:0,_RINvNtNtCsiL6gS0SCXXG_9wp_config9structure5group14extend_matchespEB6_
FNDA:0,_RINvXNvXs0_NtNtCsiL6gS0SCXXG_9wp_config9structure5groupNtB9_5BasisNtNtCsaJLahGZ21O0_10serde_core2de11Deserialize11deserializeNtB3_1VNtB14_7Visitor9visit_strpEBd_
FNDA:0,_RINvXs0_NtNtCsiL6gS0SCXXG_9wp_config9structure5groupNtB6_5BasisNtNtCsaJLahGZ21O0_10serde_core2de11Deserialize11deserializepEBa_
FNDA:0,_RNCINvMs8_NtNtCsiL6gS0SCXXG_9wp_config9structure5groupNtB8_9FlexGroup3newpE0Bc_
FNDA:0,_RNCNvMs8_NtNtCsiL6gS0SCXXG_9wp_config9structure5groupNtB7_9FlexGroup4new20Bb_
FNDA:0,_RNvMs1_NtNtCsiL6gS0SCXXG_9wp_config9structure5groupNtB5_13SinkGroupConf10batch_size
FNDA:0,_RNvMs1_NtNtCsiL6gS0SCXXG_9wp_config9structure5groupNtB5_13SinkGroupConf16batch_timeout_ms
FNDA:0,_RNvMs1_NtNtCsiL6gS0SCXXG_9wp_config9structure5groupNtB5_13SinkGroupConf4name
FNDA:0,_RNvMs1_NtNtCsiL6gS0SCXXG_9wp_config9structure5groupNtB5_13SinkGroupConf5sinks
FNDA:0,_RNvMs1_NtNtCsiL6gS0SCXXG_9wp_config9structure5groupNtB5_13SinkGroupConf6append
FNDA:0,_RNvMs3_NtNtCsiL6gS0SCXXG_9wp_config9structure5groupNtB5_10FixedGroup12parallel_cnt
FNDA:0,_RNvMs3_NtNtCsiL6gS0SCXXG_9wp_config9structure5groupNtB5_10FixedGroup6append
FNDA:0,_RNvMs4_NtNtCsiL6gS0SCXXG_9wp_config9structure5groupNtB5_9FlexGroup10build_conf
FNDA:0,_RNvMs4_NtNtCsiL6gS0SCXXG_9wp_config9structure5groupNtB5_9FlexGroup12parallel_cnt
FNDA:0,_RNvMs4_NtNtCsiL6gS0SCXXG_9wp_config9structure5groupNtB5_9FlexGroup12set_parallel
FNDA:0,_RNvMs4_NtNtCsiL6gS0SCXXG_9wp_config9structure5groupNtB5_9FlexGroup8test_new
FNDA:0,_RNvMs8_NtNtCsiL6gS0SCXXG_9wp_config9structure5groupNtB5_9FlexGroup4new2
FNDA:0,_RNvMs8_NtNtCsiL6gS0SCXXG_9wp_config9structure5groupNtB5_9FlexGroup6append
FNDA:0,_RNvMs_NtNtCsiL6gS0SCXXG_9wp_config9structure5groupNtB4_15GroupExpectSpec8validate
FNDA:0,_RNvXNvXs0_NtNtCsiL6gS0SCXXG_9wp_config9structure5groupNtB8_5BasisNtNtCsaJLahGZ21O0_10serde_core2de11Deserialize11deserializeNtB2_1VNtB13_7Visitor9expecting
FNDA:0,_RNvXs2_NtNtCsiL6gS0SCXXG_9wp_config9structure5groupNtB5_10FixedGroupINtNtNtCsfv6z1NgKsoT_13orion_variate4vars5types12EnvEvaluableBN_E8env_eval
FNDA:0,_RNvXs5_NtNtCsiL6gS0SCXXG_9wp_config9structure5groupNtB5_9FlexGroupNtNtCsg0PsmjmNqSl_12wp_conf_base9structure8Validate8validate
FNDA:0,_RNvXs6_NtNtCsiL6gS0SCXXG_9wp_config9structure5groupNtB5_10FixedGroupNtNtCsg0PsmjmNqSl_12wp_conf_base9structure8Validate8validate
FNDA:0,_RNvXs7_NtNtCsiL6gS0SCXXG_9wp_config9structure5groupNtB5_13SinkGroupConfNtNtCsg0PsmjmNqSl_12wp_conf_base9structure8Validate8validate
FNDA:1,_RNvNtNtNtCsiL6gS0SCXXG_9wp_config9structure5group5testss_45flex_group_env_eval_updates_members_and_sinks
FNDA:1,_RNvNtNtCsiL6gS0SCXXG_9wp_config9structure5group18default_batch_size
FNDA:1,_RNvNtNtCsiL6gS0SCXXG_9wp_config9structure5group24default_batch_timeout_ms
FNDA:1,_RNvXNtNtCsiL6gS0SCXXG_9wp_config9structure5groupNtB2_9FlexGroupINtNtNtCsfv6z1NgKsoT_13orion_variate4vars5types12EnvEvaluableBK_E8env_eval
FNF:31
FNH:15
DA:43,64
DA:44,64
DA:45,64
DA:47,52
DA:48,52
DA:49,52
DA:52,3
DA:53,3
DA:54,3
DA:55,3
DA:56,3
DA:57,3
DA:58,3
DA:86,0
DA:87,0
DA:88,0
DA:90,0
DA:91,0
DA:92,0
DA:93,0
DA:95,0
DA:96,0
DA:97,0
DA:98,0
DA:126,4
DA:127,4
DA:128,4
DA:133,0
DA:134,0
DA:135,0
DA:136,4
DA:137,4
DA:138,4
DA:140,4
DA:141,4
DA:142,0
DA:143,4
DA:144,4
DA:145,4
DA:146,0
DA:147,0
DA:148,0
DA:149,0
DA:150,0
DA:151,0
DA:152,0
DA:153,0
DA:154,0
DA:155,0
DA:156,0
DA:157,4
DA:159,4
DA:160,4
DA:172,0
DA:173,0
DA:174,0
DA:175,0
DA:177,0
DA:178,37
DA:179,37
DA:180,21
DA:181,16
DA:183,37
DA:184,0
DA:185,0
DA:186,0
DA:187,0
DA:189,0
DA:190,0
DA:191,0
DA:192,0
DA:193,0
DA:195,0
DA:196,10
DA:197,10
DA:198,2
DA:199,8
DA:201,10
DA:221,8
DA:222,8
DA:223,8
DA:225,8
DA:226,8
DA:230,0
DA:231,0
DA:232,0
DA:233,0
DA:234,0
DA:235,0
DA:236,0
DA:237,0
DA:239,0
DA:245,0
DA:246,0
DA:247,0
DA:248,6
DA:249,6
DA:250,6
DA:251,6
DA:252,6
DA:253,6
DA:254,6
DA:255,6
DA:256,6
DA:257,6
DA:258,6
DA:259,6
DA:260,6
DA:261,6
DA:262,6
DA:263,6
DA:264,6
DA:265,6
DA:267,28
DA:268,28
DA:269,28
DA:270,28
DA:271,28
DA:272,28
DA:273,28
DA:274,28
DA:275,28
DA:276,28
DA:277,28
DA:278,28
DA:279,28
DA:280,28
DA:282,9
DA:283,9
DA:284,0
DA:285,9
DA:286,0
DA:288,9
DA:292,0
DA:293,0
DA:294,0
DA:295,0
DA:296,0
DA:297,0
DA:298,0
DA:299,0
DA:300,0
DA:301,0
DA:302,0
DA:303,0
DA:304,0
DA:305,0
DA:306,0
DA:307,0
DA:309,0
DA:310,0
DA:311,0
DA:312,0
DA:313,0
DA:314,0
DA:315,0
DA:316,0
DA:317,0
DA:318,0
DA:319,0
DA:323,0
DA:324,0
DA:325,0
DA:326,0
DA:327,0
DA:328,0
DA:329,0
DA:330,0
DA:331,0
DA:332,0
DA:333,0
DA:334,0
DA:335,0
DA:337,0
DA:338,0
DA:339,0
DA:340,0
DA:341,0
DA:342,0
DA:343,0
DA:344,0
DA:345,0
DA:346,0
DA:347,0
DA:351,0
DA:352,0
DA:353,0
DA:354,0
DA:355,0
DA:356,0
DA:357,0
DA:358,0
DA:360,0
DA:361,0
DA:362,0
DA:363,0
DA:364,0
DA:365,0
DA:368,0
DA:369,0
DA:373,0
DA:375,0
DA:377,0
DA:379,0
DA:380,0
DA:381,0
DA:382,0
DA:383,0
DA:384,0
DA:385,0
DA:386,0
DA:388,0
DA:390,0
DA:391,0
DA:392,0
DA:393,0
DA:394,0
DA:395,0
DA:396,0
DA:397,0
DA:398,0
DA:400,0
DA:402,0
DA:403,0
DA:404,0
DA:405,0
DA:406,0
DA:407,0
DA:408,0
DA:409,0
DA:411,0
DA:412,0
DA:413,0
DA:414,0
DA:417,56
DA:418,56
DA:419,87
DA:420,31
DA:421,31
DA:422,31
DA:423,56
DA:424,56
DA:434,1
DA:435,1
DA:436,1
DA:437,1
DA:438,1
DA:439,1
DA:440,1
DA:441,1
DA:442,1
DA:443,1
DA:445,1
DA:446,1
DA:447,1
DA:448,1
DA:449,1
DA:450,1
DA:451,1
DA:452,1
DA:453,1
DA:454,1
DA:455,1
DA:456,1
DA:458,1
DA:459,1
DA:460,1
DA:461,1
DA:462,1
DA:463,1
DA:464,1
DA:465,1
DA:466,1
DA:468,1
DA:469,1
DA:470,1
DA:471,1
DA:472,1
DA:473,1
DA:474,1
DA:475,1
DA:476,1
DA:477,1
DA:478,1
DA:481,1
DA:482,1
DA:485,1
BRF:0
BRH:0
LF:291
LH:133
end_of_record
SF:/Users/zwk/src_code/wp-labs/wp-motor/crates/wp-config/src/structure/mod.rs
FN:33,_RINvNtNtCs48GgPJaqr2Q_9wp_config9structure7bool_de17de_opt_bool_onoffpEB6_
FN:33,_RINvNtNtCsiL6gS0SCXXG_9wp_config9structure7bool_de17de_opt_bool_onoffpEB6_
FNDA:0,_RINvNtNtCs48GgPJaqr2Q_9wp_config9structure7bool_de17de_opt_bool_onoffpEB6_
FNDA:0,_RINvNtNtCsiL6gS0SCXXG_9wp_config9structure7bool_de17de_opt_bool_onoffpEB6_
FNF:1
FNH:0
DA:33,0
DA:34,0
DA:35,0
DA:45,0
DA:46,0
DA:47,0
DA:48,0
DA:49,0
DA:50,0
DA:51,0
DA:52,0
DA:53,0
DA:54,0
DA:55,0
DA:59,0
BRF:0
BRH:0
LF:15
LH:0
end_of_record
SF:/Users/zwk/src_code/wp-labs/wp-motor/crates/wp-config/src/structure/sink/expect.rs
FN:22,_RNCNvMNtNtNtCs48GgPJaqr2Q_9wp_config9structure4sink6expectNtB4_18SinkExpectOverride8validate0Ba_
FN:20,_RNvMNtNtNtCs48GgPJaqr2Q_9wp_config9structure4sink6expectNtB2_18SinkExpectOverride8validate
FN:22,_RNCNvMNtNtNtCsiL6gS0SCXXG_9wp_config9structure4sink6expectNtB4_18SinkExpectOverride8validate0Ba_
FN:20,_RNvMNtNtNtCsiL6gS0SCXXG_9wp_config9structure4sink6expectNtB2_18SinkExpectOverride8validate
FNDA:6,_RNCNvMNtNtNtCs48GgPJaqr2Q_9wp_config9structure4sink6expectNtB4_18SinkExpectOverride8validate0Ba_
FNDA:5,_RNvMNtNtNtCs48GgPJaqr2Q_9wp_config9structure4sink6expectNtB2_18SinkExpectOverride8validate
FNDA:0,_RNCNvMNtNtNtCsiL6gS0SCXXG_9wp_config9structure4sink6expectNtB4_18SinkExpectOverride8validate0Ba_
FNDA:0,_RNvMNtNtNtCsiL6gS0SCXXG_9wp_config9structure4sink6expectNtB2_18SinkExpectOverride8validate
FNF:2
FNH:2
DA:20,5
DA:22,6
DA:23,5
DA:24,3
DA:26,0
DA:27,5
DA:28,5
DA:29,3
DA:31,0
DA:32,5
DA:33,5
DA:34,1
DA:36,0
DA:37,5
DA:38,5
DA:39,2
DA:41,0
DA:42,5
DA:43,5
DA:44,1
DA:46,0
DA:47,5
DA:49,5
DA:50,5
DA:51,5
DA:52,0
DA:53,5
DA:54,5
DA:55,5
BRF:0
BRH:0
LF:30
LH:24
end_of_record
SF:/Users/zwk/src_code/wp-labs/wp-motor/crates/wp-config/src/structure/sink/instance.rs
FN:142,_RINvMs_NtNtNtCs48GgPJaqr2Q_9wp_config9structure4sink8instanceNtB5_16SinkInstanceConf8file_newNtNtCsiTraAjBDcu4_5alloc6string6StringEBb_
FN:142,_RINvMs_NtNtNtCs48GgPJaqr2Q_9wp_config9structure4sink8instanceNtB5_16SinkInstanceConf8file_newReEBb_
FN:87,_RNCNvMs_NtNtNtCs48GgPJaqr2Q_9wp_config9structure4sink8instanceNtB6_16SinkInstanceConf17resolve_file_path0Bc_
FN:97,_RNCNvMs_NtNtNtCs48GgPJaqr2Q_9wp_config9structure4sink8instanceNtB6_16SinkInstanceConf17resolve_file_paths0_0Bc_
FN:93,_RNCNvMs_NtNtNtCs48GgPJaqr2Q_9wp_config9structure4sink8instanceNtB6_16SinkInstanceConf17resolve_file_paths_0Bc_
FN:234,_RNCNvXs2_NtNtNtCs48GgPJaqr2Q_9wp_config9structure4sink8instanceNtB7_16SinkInstanceConfNtNtCsg0PsmjmNqSl_12wp_conf_base9structure8Validate8validate0Bd_
FN:238,_RNCNvXs2_NtNtNtCs48GgPJaqr2Q_9wp_config9structure4sink8instanceNtB7_16SinkInstanceConfNtNtCsg0PsmjmNqSl_12wp_conf_base9structure8Validate8validates0_0Bd_
FN:239,_RNCNvXs2_NtNtNtCs48GgPJaqr2Q_9wp_config9structure4sink8instanceNtB7_16SinkInstanceConfNtNtCsg0PsmjmNqSl_12wp_conf_base9structure8Validate8validates1_0Bd_
FN:235,_RNCNvXs2_NtNtNtCs48GgPJaqr2Q_9wp_config9structure4sink8instanceNtB7_16SinkInstanceConfNtNtCsg0PsmjmNqSl_12wp_conf_base9structure8Validate8validates_0Bd_
FN:208,_RNvMs1_NtNtNtCs48GgPJaqr2Q_9wp_config9structure4sink8instanceNtB5_16SinkInstanceConf17resolved_kind_str
FN:211,_RNvMs1_NtNtNtCs48GgPJaqr2Q_9wp_config9structure4sink8instanceNtB5_16SinkInstanceConf21resolved_params_table
FN:179,_RNvMs_NtNtNtCs48GgPJaqr2Q_9wp_config9structure4sink8instanceNtB4_16SinkInstanceConf10batch_size
FN:71,_RNvMs_NtNtNtCs48GgPJaqr2Q_9wp_config9structure4sink8instanceNtB4_16SinkInstanceConf10set_filter
FN:68,_RNvMs_NtNtNtCs48GgPJaqr2Q_9wp_config9structure4sink8instanceNtB4_16SinkInstanceConf10set_params
FN:159,_RNvMs_NtNtNtCs48GgPJaqr2Q_9wp_config9structure4sink8instanceNtB4_16SinkInstanceConf15clean_sink_file
FN:80,_RNvMs_NtNtNtCs48GgPJaqr2Q_9wp_config9structure4sink8instanceNtB4_16SinkInstanceConf17resolve_file_path
FN:74,_RNvMs_NtNtNtCs48GgPJaqr2Q_9wp_config9structure4sink8instanceNtB4_16SinkInstanceConf17set_filter_expect
FN:127,_RNvMs_NtNtNtCs48GgPJaqr2Q_9wp_config9structure4sink8instanceNtB4_16SinkInstanceConf19read_filter_content
FN:53,_RNvMs_NtNtNtCs48GgPJaqr2Q_9wp_config9structure4sink8instanceNtB4_16SinkInstanceConf4name
FN:59,_RNvMs_NtNtNtCs48GgPJaqr2Q_9wp_config9structure4sink8instanceNtB4_16SinkInstanceConf4tags
FN:56,_RNvMs_NtNtNtCs48GgPJaqr2Q_9wp_config9structure4sink8instanceNtB4_16SinkInstanceConf6filter
FN:104,_RNvMs_NtNtNtCs48GgPJaqr2Q_9wp_config9structure4sink8instanceNtB4_16SinkInstanceConf8new_type
FN:156,_RNvMs_NtNtNtCs48GgPJaqr2Q_9wp_config9structure4sink8instanceNtB4_16SinkInstanceConf8null_new
FN:65,_RNvMs_NtNtNtCs48GgPJaqr2Q_9wp_config9structure4sink8instanceNtB4_16SinkInstanceConf8set_kind
FN:62,_RNvMs_NtNtNtCs48GgPJaqr2Q_9wp_config9structure4sink8instanceNtB4_16SinkInstanceConf8set_name
FN:77,_RNvMs_NtNtNtCs48GgPJaqr2Q_9wp_config9structure4sink8instanceNtB4_16SinkInstanceConf8set_tags
FN:172,_RNvMs_NtNtNtCs48GgPJaqr2Q_9wp_config9structure4sink8instanceNtB4_16SinkInstanceConf9full_name
FN:190,_RNvNtNtNtCs48GgPJaqr2Q_9wp_config9structure4sink8instance12default_true
FN:39,_RNvXNtNtNtCs48GgPJaqr2Q_9wp_config9structure4sink8instanceNtB2_16SinkInstanceConfINtNtNtCsfv6z1NgKsoT_13orion_variate4vars5types12EnvEvaluableBU_E8env_eval
FN:217,_RNvXs2_NtNtNtCs48GgPJaqr2Q_9wp_config9structure4sink8instanceNtB5_16SinkInstanceConfNtNtCsg0PsmjmNqSl_12wp_conf_base9structure8Validate8validate
FN:196,_RNvXs0_NtNtNtCs48GgPJaqr2Q_9wp_config9structure4sink8instanceNtCs7BHLTF4lxFw_8wp_specs12CoreSinkSpecINtNtCsaNl6UpbT7bw_4core7convert4FromRNtB5_16SinkInstanceConfE4from
FN:208,_RNvMs1_NtNtNtCsiL6gS0SCXXG_9wp_config9structure4sink8instanceNtB5_16SinkInstanceConf17resolved_kind_str
FN:211,_RNvMs1_NtNtNtCsiL6gS0SCXXG_9wp_config9structure4sink8instanceNtB5_16SinkInstanceConf21resolved_params_table
FN:71,_RNvMs_NtNtNtCsiL6gS0SCXXG_9wp_config9structure4sink8instanceNtB4_16SinkInstanceConf10set_filter
FN:68,_RNvMs_NtNtNtCsiL6gS0SCXXG_9wp_config9structure4sink8instanceNtB4_16SinkInstanceConf10set_params
FN:53,_RNvMs_NtNtNtCsiL6gS0SCXXG_9wp_config9structure4sink8instanceNtB4_16SinkInstanceConf4name
FN:59,_RNvMs_NtNtNtCsiL6gS0SCXXG_9wp_config9structure4sink8instanceNtB4_16SinkInstanceConf4tags
FN:56,_RNvMs_NtNtNtCsiL6gS0SCXXG_9wp_config9structure4sink8instanceNtB4_16SinkInstanceConf6filter
FN:104,_RNvMs_NtNtNtCsiL6gS0SCXXG_9wp_config9structure4sink8instanceNtB4_16SinkInstanceConf8new_type
FN:156,_RNvMs_NtNtNtCsiL6gS0SCXXG_9wp_config9structure4sink8instanceNtB4_16SinkInstanceConf8null_new
FN:65,_RNvMs_NtNtNtCsiL6gS0SCXXG_9wp_config9structure4sink8instanceNtB4_16SinkInstanceConf8set_kind
FN:77,_RNvMs_NtNtNtCsiL6gS0SCXXG_9wp_config9structure4sink8instanceNtB4_16SinkInstanceConf8set_tags
FN:190,_RNvNtNtNtCsiL6gS0SCXXG_9wp_config9structure4sink8instance12default_true
FN:39,_RNvXNtNtNtCsiL6gS0SCXXG_9wp_config9structure4sink8instanceNtB2_16SinkInstanceConfINtNtNtCsfv6z1NgKsoT_13orion_variate4vars5types12EnvEvaluableBU_E8env_eval
FN:142,_RINvMs_NtNtNtCsiL6gS0SCXXG_9wp_config9structure4sink8instanceNtB5_16SinkInstanceConf8file_newpEBb_
FN:87,_RNCNvMs_NtNtNtCsiL6gS0SCXXG_9wp_config9structure4sink8instanceNtB6_16SinkInstanceConf17resolve_file_path0Bc_
FN:97,_RNCNvMs_NtNtNtCsiL6gS0SCXXG_9wp_config9structure4sink8instanceNtB6_16SinkInstanceConf17resolve_file_paths0_0Bc_
FN:93,_RNCNvMs_NtNtNtCsiL6gS0SCXXG_9wp_config9structure4sink8instanceNtB6_16SinkInstanceConf17resolve_file_paths_0Bc_
FN:234,_RNCNvXs2_NtNtNtCsiL6gS0SCXXG_9wp_config9structure4sink8instanceNtB7_16SinkInstanceConfNtNtCsg0PsmjmNqSl_12wp_conf_base9structure8Validate8validate0Bd_
FN:238,_RNCNvXs2_NtNtNtCsiL6gS0SCXXG_9wp_config9structure4sink8instanceNtB7_16SinkInstanceConfNtNtCsg0PsmjmNqSl_12wp_conf_base9structure8Validate8validates0_0Bd_
FN:239,_RNCNvXs2_NtNtNtCsiL6gS0SCXXG_9wp_config9structure4sink8instanceNtB7_16SinkInstanceConfNtNtCsg0PsmjmNqSl_12wp_conf_base9structure8Validate8validates1_0Bd_
FN:235,_RNCNvXs2_NtNtNtCsiL6gS0SCXXG_9wp_config9structure4sink8instanceNtB7_16SinkInstanceConfNtNtCsg0PsmjmNqSl_12wp_conf_base9structure8Validate8validates_0Bd_
FN:179,_RNvMs_NtNtNtCsiL6gS0SCXXG_9wp_config9structure4sink8instanceNtB4_16SinkInstanceConf10batch_size
FN:159,_RNvMs_NtNtNtCsiL6gS0SCXXG_9wp_config9structure4sink8instanceNtB4_16SinkInstanceConf15clean_sink_file
FN:80,_RNvMs_NtNtNtCsiL6gS0SCXXG_9wp_config9structure4sink8instanceNtB4_16SinkInstanceConf17resolve_file_path
FN:74,_RNvMs_NtNtNtCsiL6gS0SCXXG_9wp_config9structure4sink8instanceNtB4_16SinkInstanceConf17set_filter_expect
FN:127,_RNvMs_NtNtNtCsiL6gS0SCXXG_9wp_config9structure4sink8instanceNtB4_16SinkInstanceConf19read_filter_content
FN:62,_RNvMs_NtNtNtCsiL6gS0SCXXG_9wp_config9structure4sink8instanceNtB4_16SinkInstanceConf8set_name
FN:172,_RNvMs_NtNtNtCsiL6gS0SCXXG_9wp_config9structure4sink8instanceNtB4_16SinkInstanceConf9full_name
FN:196,_RNvXs0_NtNtNtCsiL6gS0SCXXG_9wp_config9structure4sink8instanceNtCs7BHLTF4lxFw_8wp_specs12CoreSinkSpecINtNtCsaNl6UpbT7bw_4core7convert4FromRNtB5_16SinkInstanceConfE4from
FN:217,_RNvXs2_NtNtNtCsiL6gS0SCXXG_9wp_config9structure4sink8instanceNtB5_16SinkInstanceConfNtNtCsg0PsmjmNqSl_12wp_conf_base9structure8Validate8validate
FN:288,_RNvNtNtNtNtCsiL6gS0SCXXG_9wp_config9structure4sink8instance5tests3tbl
FN:295,_RNvNtNtNtNtCsiL6gS0SCXXG_9wp_config9structure4sink8instance5testss_20construct_syncs_core
FN:312,_RNvNtNtNtNtCsiL6gS0SCXXG_9wp_config9structure4sink8instance5testss_22deserialize_syncs_core
FN:334,_RNvNtNtNtNtCsiL6gS0SCXXG_9wp_config9structure4sink8instance5testss_25setters_keep_core_in_sync
FN:355,_RNvNtNtNtNtCsiL6gS0SCXXG_9wp_config9structure4sink8instance5testss_28env_eval_rewrites_all_fields
FN:383,_RNCNvNtNtNtNtCsiL6gS0SCXXG_9wp_config9structure4sink8instance5testss_28env_eval_rewrites_all_fields0Bb_
FN:387,_RNCNvNtNtNtNtCsiL6gS0SCXXG_9wp_config9structure4sink8instance5testss_28env_eval_rewrites_all_fieldss_0Bb_
FNDA:21,_RINvMs_NtNtNtCs48GgPJaqr2Q_9wp_config9structure4sink8instanceNtB5_16SinkInstanceConf8file_newNtNtCsiTraAjBDcu4_5alloc6string6StringEBb_
FNDA:1,_RINvMs_NtNtNtCs48GgPJaqr2Q_9wp_config9structure4sink8instanceNtB5_16SinkInstanceConf8file_newReEBb_
FNDA:5,_RNCNvMs_NtNtNtCs48GgPJaqr2Q_9wp_config9structure4sink8instanceNtB6_16SinkInstanceConf17resolve_file_path0Bc_
FNDA:0,_RNCNvMs_NtNtNtCs48GgPJaqr2Q_9wp_config9structure4sink8instanceNtB6_16SinkInstanceConf17resolve_file_paths0_0Bc_
FNDA:5,_RNCNvMs_NtNtNtCs48GgPJaqr2Q_9wp_config9structure4sink8instanceNtB6_16SinkInstanceConf17resolve_file_paths_0Bc_
FNDA:12,_RNCNvXs2_NtNtNtCs48GgPJaqr2Q_9wp_config9structure4sink8instanceNtB7_16SinkInstanceConfNtNtCsg0PsmjmNqSl_12wp_conf_base9structure8Validate8validate0Bd_
FNDA:16,_RNCNvXs2_NtNtNtCs48GgPJaqr2Q_9wp_config9structure4sink8instanceNtB7_16SinkInstanceConfNtNtCsg0PsmjmNqSl_12wp_conf_base9structure8Validate8validates0_0Bd_
FNDA:16,_RNCNvXs2_NtNtNtCs48GgPJaqr2Q_9wp_config9structure4sink8instanceNtB7_16SinkInstanceConfNtNtCsg0PsmjmNqSl_12wp_conf_base9structure8Validate8validates1_0Bd_
FNDA:12,_RNCNvXs2_NtNtNtCs48GgPJaqr2Q_9wp_config9structure4sink8instanceNtB7_16SinkInstanceConfNtNtCsg0PsmjmNqSl_12wp_conf_base9structure8Validate8validates_0Bd_
FNDA:87,_RNvMs1_NtNtNtCs48GgPJaqr2Q_9wp_config9structure4sink8instanceNtB5_16SinkInstanceConf17resolved_kind_str
FNDA:18,_RNvMs1_NtNtNtCs48GgPJaqr2Q_9wp_config9structure4sink8instanceNtB5_16SinkInstanceConf21resolved_params_table
FNDA:1,_RNvMs_NtNtNtCs48GgPJaqr2Q_9wp_config9structure4sink8instanceNtB4_16SinkInstanceConf10batch_size
FNDA:0,_RNvMs_NtNtNtCs48GgPJaqr2Q_9wp_config9structure4sink8instanceNtB4_16SinkInstanceConf10set_filter
FNDA:0,_RNvMs_NtNtNtCs48GgPJaqr2Q_9wp_config9structure4sink8instanceNtB4_16SinkInstanceConf10set_params
FNDA:0,_RNvMs_NtNtNtCs48GgPJaqr2Q_9wp_config9structure4sink8instanceNtB4_16SinkInstanceConf15clean_sink_file
FNDA:5,_RNvMs_NtNtNtCs48GgPJaqr2Q_9wp_config9structure4sink8instanceNtB4_16SinkInstanceConf17resolve_file_path
FNDA:32,_RNvMs_NtNtNtCs48GgPJaqr2Q_9wp_config9structure4sink8instanceNtB4_16SinkInstanceConf17set_filter_expect
FNDA:1,_RNvMs_NtNtNtCs48GgPJaqr2Q_9wp_config9structure4sink8instanceNtB4_16SinkInstanceConf19read_filter_content
FNDA:62,_RNvMs_NtNtNtCs48GgPJaqr2Q_9wp_config9structure4sink8instanceNtB4_16SinkInstanceConf4name
FNDA:72,_RNvMs_NtNtNtCs48GgPJaqr2Q_9wp_config9structure4sink8instanceNtB4_16SinkInstanceConf4tags
FNDA:13,_RNvMs_NtNtNtCs48GgPJaqr2Q_9wp_config9structure4sink8instanceNtB4_16SinkInstanceConf6filter
FNDA:76,_RNvMs_NtNtNtCs48GgPJaqr2Q_9wp_config9structure4sink8instanceNtB4_16SinkInstanceConf8new_type
FNDA:19,_RNvMs_NtNtNtCs48GgPJaqr2Q_9wp_config9structure4sink8instanceNtB4_16SinkInstanceConf8null_new
FNDA:0,_RNvMs_NtNtNtCs48GgPJaqr2Q_9wp_config9structure4sink8instanceNtB4_16SinkInstanceConf8set_kind
FNDA:0,_RNvMs_NtNtNtCs48GgPJaqr2Q_9wp_config9structure4sink8instanceNtB4_16SinkInstanceConf8set_name
FNDA:61,_RNvMs_NtNtNtCs48GgPJaqr2Q_9wp_config9structure4sink8instanceNtB4_16SinkInstanceConf8set_tags
FNDA:43,_RNvMs_NtNtNtCs48GgPJaqr2Q_9wp_config9structure4sink8instanceNtB4_16SinkInstanceConf9full_name
FNDA:0,_RNvNtNtNtCs48GgPJaqr2Q_9wp_config9structure4sink8instance12default_true
FNDA:10,_RNvXNtNtNtCs48GgPJaqr2Q_9wp_config9structure4sink8instanceNtB2_16SinkInstanceConfINtNtNtCsfv6z1NgKsoT_13orion_variate4vars5types12EnvEvaluableBU_E8env_eval
FNDA:28,_RNvXs2_NtNtNtCs48GgPJaqr2Q_9wp_config9structure4sink8instanceNtB5_16SinkInstanceConfNtNtCsg0PsmjmNqSl_12wp_conf_base9structure8Validate8validate
FNDA:13,_RNvXs0_NtNtNtCs48GgPJaqr2Q_9wp_config9structure4sink8instanceNtCs7BHLTF4lxFw_8wp_specs12CoreSinkSpecINtNtCsaNl6UpbT7bw_4core7convert4FromRNtB5_16SinkInstanceConfE4from
FNDA:5,_RNvMs1_NtNtNtCsiL6gS0SCXXG_9wp_config9structure4sink8instanceNtB5_16SinkInstanceConf17resolved_kind_str
FNDA:5,_RNvMs1_NtNtNtCsiL6gS0SCXXG_9wp_config9structure4sink8instanceNtB5_16SinkInstanceConf21resolved_params_table
FNDA:1,_RNvMs_NtNtNtCsiL6gS0SCXXG_9wp_config9structure4sink8instanceNtB4_16SinkInstanceConf10set_filter
FNDA:1,_RNvMs_NtNtNtCsiL6gS0SCXXG_9wp_config9structure4sink8instanceNtB4_16SinkInstanceConf10set_params
FNDA:4,_RNvMs_NtNtNtCsiL6gS0SCXXG_9wp_config9structure4sink8instanceNtB4_16SinkInstanceConf4name
FNDA:4,_RNvMs_NtNtNtCsiL6gS0SCXXG_9wp_config9structure4sink8instanceNtB4_16SinkInstanceConf4tags
FNDA:4,_RNvMs_NtNtNtCsiL6gS0SCXXG_9wp_config9structure4sink8instanceNtB4_16SinkInstanceConf6filter
FNDA:4,_RNvMs_NtNtNtCsiL6gS0SCXXG_9wp_config9structure4sink8instanceNtB4_16SinkInstanceConf8new_type
FNDA:1,_RNvMs_NtNtNtCsiL6gS0SCXXG_9wp_config9structure4sink8instanceNtB4_16SinkInstanceConf8null_new
FNDA:1,_RNvMs_NtNtNtCsiL6gS0SCXXG_9wp_config9structure4sink8instanceNtB4_16SinkInstanceConf8set_kind
FNDA:2,_RNvMs_NtNtNtCsiL6gS0SCXXG_9wp_config9structure4sink8instanceNtB4_16SinkInstanceConf8set_tags
FNDA:1,_RNvNtNtNtCsiL6gS0SCXXG_9wp_config9structure4sink8instance12default_true
FNDA:2,_RNvXNtNtNtCsiL6gS0SCXXG_9wp_config9structure4sink8instanceNtB2_16SinkInstanceConfINtNtNtCsfv6z1NgKsoT_13orion_variate4vars5types12EnvEvaluableBU_E8env_eval
FNDA:0,_RINvMs_NtNtNtCsiL6gS0SCXXG_9wp_config9structure4sink8instanceNtB5_16SinkInstanceConf8file_newpEBb_
FNDA:0,_RNCNvMs_NtNtNtCsiL6gS0SCXXG_9wp_config9structure4sink8instanceNtB6_16SinkInstanceConf17resolve_file_path0Bc_
FNDA:0,_RNCNvMs_NtNtNtCsiL6gS0SCXXG_9wp_config9structure4sink8instanceNtB6_16SinkInstanceConf17resolve_file_paths0_0Bc_
FNDA:0,_RNCNvMs_NtNtNtCsiL6gS0SCXXG_9wp_config9structure4sink8instanceNtB6_16SinkInstanceConf17resolve_file_paths_0Bc_
FNDA:0,_RNCNvXs2_NtNtNtCsiL6gS0SCXXG_9wp_config9structure4sink8instanceNtB7_16SinkInstanceConfNtNtCsg0PsmjmNqSl_12wp_conf_base9structure8Validate8validate0Bd_
FNDA:0,_RNCNvXs2_NtNtNtCsiL6gS0SCXXG_9wp_config9structure4sink8instanceNtB7_16SinkInstanceConfNtNtCsg0PsmjmNqSl_12wp_conf_base9structure8Validate8validates0_0Bd_
FNDA:0,_RNCNvXs2_NtNtNtCsiL6gS0SCXXG_9wp_config9structure4sink8instanceNtB7_16SinkInstanceConfNtNtCsg0PsmjmNqSl_12wp_conf_base9structure8Validate8validates1_0Bd_
FNDA:0,_RNCNvXs2_NtNtNtCsiL6gS0SCXXG_9wp_config9structure4sink8instanceNtB7_16SinkInstanceConfNtNtCsg0PsmjmNqSl_12wp_conf_base9structure8Validate8validates_0Bd_
FNDA:0,_RNvMs_NtNtNtCsiL6gS0SCXXG_9wp_config9structure4sink8instanceNtB4_16SinkInstanceConf10batch_size
FNDA:0,_RNvMs_NtNtNtCsiL6gS0SCXXG_9wp_config9structure4sink8instanceNtB4_16SinkInstanceConf15clean_sink_file
FNDA:0,_RNvMs_NtNtNtCsiL6gS0SCXXG_9wp_config9structure4sink8instanceNtB4_16SinkInstanceConf17resolve_file_path
FNDA:0,_RNvMs_NtNtNtCsiL6gS0SCXXG_9wp_config9structure4sink8instanceNtB4_16SinkInstanceConf17set_filter_expect
FNDA:0,_RNvMs_NtNtNtCsiL6gS0SCXXG_9wp_config9structure4sink8instanceNtB4_16SinkInstanceConf19read_filter_content
FNDA:0,_RNvMs_NtNtNtCsiL6gS0SCXXG_9wp_config9structure4sink8instanceNtB4_16SinkInstanceConf8set_name
FNDA:0,_RNvMs_NtNtNtCsiL6gS0SCXXG_9wp_config9structure4sink8instanceNtB4_16SinkInstanceConf9full_name
FNDA:0,_RNvXs0_NtNtNtCsiL6gS0SCXXG_9wp_config9structure4sink8instanceNtCs7BHLTF4lxFw_8wp_specs12CoreSinkSpecINtNtCsaNl6UpbT7bw_4core7convert4FromRNtB5_16SinkInstanceConfE4from
FNDA:0,_RNvXs2_NtNtNtCsiL6gS0SCXXG_9wp_config9structure4sink8instanceNtB5_16SinkInstanceConfNtNtCsg0PsmjmNqSl_12wp_conf_base9structure8Validate8validate
FNDA:1,_RNvNtNtNtNtCsiL6gS0SCXXG_9wp_config9structure4sink8instance5tests3tbl
FNDA:1,_RNvNtNtNtNtCsiL6gS0SCXXG_9wp_config9structure4sink8instance5testss_20construct_syncs_core
FNDA:1,_RNvNtNtNtNtCsiL6gS0SCXXG_9wp_config9structure4sink8instance5testss_22deserialize_syncs_core
FNDA:1,_RNvNtNtNtNtCsiL6gS0SCXXG_9wp_config9structure4sink8instance5testss_25setters_keep_core_in_sync
FNDA:1,_RNvNtNtNtNtCsiL6gS0SCXXG_9wp_config9structure4sink8instance5testss_28env_eval_rewrites_all_fields
FNDA:1,_RNCNvNtNtNtNtCsiL6gS0SCXXG_9wp_config9structure4sink8instance5testss_28env_eval_rewrites_all_fields0Bb_
FNDA:1,_RNCNvNtNtNtNtCsiL6gS0SCXXG_9wp_config9structure4sink8instance5testss_28env_eval_rewrites_all_fieldss_0Bb_
FNF:37
FNH:34
DA:39,12
DA:40,12
DA:41,12
DA:42,12
DA:43,12
DA:44,12
DA:45,12
DA:46,12
DA:47,12
DA:53,66
DA:54,66
DA:55,66
DA:56,17
DA:57,17
DA:58,17
DA:59,76
DA:60,76
DA:61,76
DA:62,0
DA:63,0
DA:64,0
DA:65,1
DA:66,1
DA:67,1
DA:68,1
DA:69,1
DA:70,1
DA:71,1
DA:72,1
DA:73,1
DA:74,32
DA:75,32
DA:76,32
DA:77,63
DA:78,63
DA:79,63
DA:80,5
DA:81,5
DA:82,5
DA:83,5
DA:84,5
DA:85,5
DA:86,5
DA:87,5
DA:88,5
DA:89,5
DA:90,5
DA:91,5
DA:92,5
DA:93,5
DA:94,5
DA:95,5
DA:96,0
DA:97,0
DA:98,0
DA:99,0
DA:100,0
DA:101,0
DA:102,5
DA:104,80
DA:105,80
DA:106,80
DA:107,80
DA:108,80
DA:109,80
DA:110,80
DA:111,80
DA:112,80
DA:113,80
DA:114,80
DA:115,80
DA:116,80
DA:117,80
DA:118,80
DA:119,80
DA:120,80
DA:121,80
DA:122,80
DA:123,80
DA:124,80
DA:125,80
DA:127,1
DA:128,1
DA:129,0
DA:130,0
DA:131,0
DA:132,0
DA:134,0
DA:135,0
DA:136,0
DA:137,0
DA:138,1
DA:139,1
DA:140,1
DA:142,22
DA:143,22
DA:144,22
DA:145,22
DA:146,22
DA:147,22
DA:148,22
DA:149,22
DA:150,22
DA:151,22
DA:153,22
DA:154,22
DA:156,20
DA:157,20
DA:158,20
DA:159,0
DA:160,0
DA:161,0
DA:162,0
DA:163,0
DA:164,0
DA:166,0
DA:168,0
DA:169,0
DA:172,43
DA:173,43
DA:174,43
DA:175,0
DA:177,43
DA:179,1
DA:180,1
DA:181,1
DA:182,0
DA:183,0
DA:184,0
DA:185,1
DA:186,1
DA:187,1
DA:190,1
DA:191,1
DA:192,1
DA:196,13
DA:197,13
DA:198,13
DA:199,13
DA:200,13
DA:201,13
DA:202,13
DA:203,13
DA:204,13
DA:208,92
DA:209,92
DA:210,92
DA:211,23
DA:212,23
DA:213,23
DA:217,28
DA:218,28
DA:219,28
DA:220,28
DA:221,28
DA:222,28
DA:223,28
DA:224,0
DA:225,0
DA:226,0
DA:227,28
DA:228,28
DA:229,28
DA:230,28
DA:231,28
DA:232,28
DA:233,28
DA:234,28
DA:235,28
DA:236,28
DA:237,16
DA:238,16
DA:239,16
DA:240,16
DA:241,28
DA:242,0
DA:243,0
DA:244,0
DA:245,28
DA:247,0
DA:249,28
DA:250,0
DA:251,0
DA:252,0
DA:254,0
DA:255,0
DA:256,0
DA:257,0
DA:258,0
DA:259,0
DA:261,0
DA:262,0
DA:263,0
DA:264,0
DA:266,28
DA:267,28
DA:268,5
DA:269,23
DA:270,28
DA:271,28
DA:272,28
DA:274,28
DA:275,28
DA:276,28
DA:277,28
DA:288,1
DA:289,1
DA:290,1
DA:291,1
DA:292,1
DA:295,1
DA:296,1
DA:297,1
DA:298,1
DA:299,1
DA:300,1
DA:301,1
DA:302,1
DA:304,1
DA:305,1
DA:306,1
DA:307,1
DA:308,1
DA:309,1
DA:312,1
DA:313,1
DA:314,1
DA:315,1
DA:316,1
DA:317,1
DA:318,1
DA:319,1
DA:320,1
DA:321,1
DA:322,1
DA:323,1
DA:324,1
DA:325,1
DA:326,1
DA:327,1
DA:328,1
DA:329,1
DA:330,1
DA:331,1
DA:334,1
DA:335,1
DA:336,1
DA:337,1
DA:338,1
DA:340,1
DA:341,1
DA:342,1
DA:343,1
DA:344,1
DA:345,1
DA:347,1
DA:348,1
DA:350,1
DA:351,1
DA:352,1
DA:355,1
DA:356,1
DA:357,1
DA:358,1
DA:359,1
DA:360,1
DA:361,1
DA:362,1
DA:363,1
DA:364,1
DA:366,1
DA:367,1
DA:369,1
DA:370,1
DA:371,1
DA:372,1
DA:373,1
DA:374,1
DA:375,1
DA:376,1
DA:378,1
DA:379,1
DA:380,1
DA:381,1
DA:382,1
DA:383,1
DA:386,1
DA:387,1
DA:390,1
DA:391,1
DA:392,1
DA:394,1
DA:395,1
BRF:0
BRH:0
LF:302
LH:251
end_of_record
SF:/Users/zwk/src_code/wp-labs/wp-motor/crates/wp-config/src/structure/sink/route.rs
FN:18,_RNvMNtNtNtCsiL6gS0SCXXG_9wp_config9structure4sink5routeNtB2_13SinkRouteConf11append_sink
FN:44,_RNvXs0_NtNtNtCsiL6gS0SCXXG_9wp_config9structure4sink5routeNtB5_13SinkRouteConfNtNtCsg0PsmjmNqSl_12wp_conf_base9structure8Validate8validate
FN:24,_RNvXs_NtNtNtCsiL6gS0SCXXG_9wp_config9structure4sink5routeNtB4_13SinkRouteConfNtNtCsaNl6UpbT7bw_4core7default7Default7default
FNDA:0,_RNvMNtNtNtCsiL6gS0SCXXG_9wp_config9structure4sink5routeNtB2_13SinkRouteConf11append_sink
FNDA:0,_RNvXs0_NtNtNtCsiL6gS0SCXXG_9wp_config9structure4sink5routeNtB5_13SinkRouteConfNtNtCsg0PsmjmNqSl_12wp_conf_base9structure8Validate8validate
FNDA:0,_RNvXs_NtNtNtCsiL6gS0SCXXG_9wp_config9structure4sink5routeNtB4_13SinkRouteConfNtNtCsaNl6UpbT7bw_4core7default7Default7default
FNF:3
FNH:0
DA:18,0
DA:19,0
DA:20,0
DA:24,0
DA:25,0
DA:26,0
DA:27,0
DA:28,0
DA:29,0
DA:30,0
DA:31,0
DA:32,0
DA:33,0
DA:34,0
DA:35,0
DA:36,0
DA:37,0
DA:38,0
DA:39,0
DA:40,0
DA:44,0
DA:45,0
DA:46,0
DA:47,0
DA:48,0
DA:49,0
DA:50,0
DA:51,0
DA:52,0
DA:53,0
DA:54,0
DA:55,0
DA:57,0
DA:58,0
BRF:0
BRH:0
LF:34
LH:0
end_of_record
SF:/Users/zwk/src_code/wp-labs/wp-motor/crates/wp-config/src/structure/source/instance.rs
FN:37,_RNvMNtNtNtCs48GgPJaqr2Q_9wp_config9structure6source8instanceNtB2_18SourceInstanceConf10set_params
FN:43,_RNvMNtNtNtCs48GgPJaqr2Q_9wp_config9structure6source8instanceNtB2_18SourceInstanceConf17resolved_kind_str
FN:46,_RNvMNtNtNtCs48GgPJaqr2Q_9wp_config9structure6source8instanceNtB2_18SourceInstanceConf21resolved_params_table
FN:34,_RNvMNtNtNtCs48GgPJaqr2Q_9wp_config9structure6source8instanceNtB2_18SourceInstanceConf4kind
FN:22,_RNvMNtNtNtCs48GgPJaqr2Q_9wp_config9structure6source8instanceNtB2_18SourceInstanceConf4name
FN:25,_RNvMNtNtNtCs48GgPJaqr2Q_9wp_config9structure6source8instanceNtB2_18SourceInstanceConf4tags
FN:49,_RNvMNtNtNtCs48GgPJaqr2Q_9wp_config9structure6source8instanceNtB2_18SourceInstanceConf8new_type
FN:31,_RNvMNtNtNtCs48GgPJaqr2Q_9wp_config9structure6source8instanceNtB2_18SourceInstanceConf8set_kind
FN:28,_RNvMNtNtNtCs48GgPJaqr2Q_9wp_config9structure6source8instanceNtB2_18SourceInstanceConf8set_name
FN:40,_RNvMNtNtNtCs48GgPJaqr2Q_9wp_config9structure6source8instanceNtB2_18SourceInstanceConf8set_tags
FN:74,_RNvXs0_NtNtNtCs48GgPJaqr2Q_9wp_config9structure6source8instanceNtB5_18SourceInstanceConfNtNtCsg0PsmjmNqSl_12wp_conf_base9structure8Validate8validate
FN:68,_RNvXs_NtNtNtCs48GgPJaqr2Q_9wp_config9structure6source8instanceNtCs7BHLTF4lxFw_8wp_specs14CoreSourceSpecINtNtCsaNl6UpbT7bw_4core7convert4FromRNtB4_18SourceInstanceConfE4from
FN:68,_RNvXs_NtNtNtCsiL6gS0SCXXG_9wp_config9structure6source8instanceNtCs7BHLTF4lxFw_8wp_specs14CoreSourceSpecINtNtCsaNl6UpbT7bw_4core7convert4FromRNtB4_18SourceInstanceConfE4from
FN:43,_RNvMNtNtNtCsiL6gS0SCXXG_9wp_config9structure6source8instanceNtB2_18SourceInstanceConf17resolved_kind_str
FN:46,_RNvMNtNtNtCsiL6gS0SCXXG_9wp_config9structure6source8instanceNtB2_18SourceInstanceConf21resolved_params_table
FN:22,_RNvMNtNtNtCsiL6gS0SCXXG_9wp_config9structure6source8instanceNtB2_18SourceInstanceConf4name
FN:49,_RNvMNtNtNtCsiL6gS0SCXXG_9wp_config9structure6source8instanceNtB2_18SourceInstanceConf8new_type
FN:74,_RNvXs0_NtNtNtCsiL6gS0SCXXG_9wp_config9structure6source8instanceNtB5_18SourceInstanceConfNtNtCsg0PsmjmNqSl_12wp_conf_base9structure8Validate8validate
FN:37,_RNvMNtNtNtCsiL6gS0SCXXG_9wp_config9structure6source8instanceNtB2_18SourceInstanceConf10set_params
FN:34,_RNvMNtNtNtCsiL6gS0SCXXG_9wp_config9structure6source8instanceNtB2_18SourceInstanceConf4kind
FN:25,_RNvMNtNtNtCsiL6gS0SCXXG_9wp_config9structure6source8instanceNtB2_18SourceInstanceConf4tags
FN:31,_RNvMNtNtNtCsiL6gS0SCXXG_9wp_config9structure6source8instanceNtB2_18SourceInstanceConf8set_kind
FN:28,_RNvMNtNtNtCsiL6gS0SCXXG_9wp_config9structure6source8instanceNtB2_18SourceInstanceConf8set_name
FN:40,_RNvMNtNtNtCsiL6gS0SCXXG_9wp_config9structure6source8instanceNtB2_18SourceInstanceConf8set_tags
FN:93,_RNvNtNtNtNtCsiL6gS0SCXXG_9wp_config9structure6source8instance5testss_16construct_min_ok
FNDA:0,_RNvMNtNtNtCs48GgPJaqr2Q_9wp_config9structure6source8instanceNtB2_18SourceInstanceConf10set_params
FNDA:0,_RNvMNtNtNtCs48GgPJaqr2Q_9wp_config9structure6source8instanceNtB2_18SourceInstanceConf17resolved_kind_str
FNDA:0,_RNvMNtNtNtCs48GgPJaqr2Q_9wp_config9structure6source8instanceNtB2_18SourceInstanceConf21resolved_params_table
FNDA:0,_RNvMNtNtNtCs48GgPJaqr2Q_9wp_config9structure6source8instanceNtB2_18SourceInstanceConf4kind
FNDA:0,_RNvMNtNtNtCs48GgPJaqr2Q_9wp_config9structure6source8instanceNtB2_18SourceInstanceConf4name
FNDA:0,_RNvMNtNtNtCs48GgPJaqr2Q_9wp_config9structure6source8instanceNtB2_18SourceInstanceConf4tags
FNDA:16,_RNvMNtNtNtCs48GgPJaqr2Q_9wp_config9structure6source8instanceNtB2_18SourceInstanceConf8new_type
FNDA:0,_RNvMNtNtNtCs48GgPJaqr2Q_9wp_config9structure6source8instanceNtB2_18SourceInstanceConf8set_kind
FNDA:0,_RNvMNtNtNtCs48GgPJaqr2Q_9wp_config9structure6source8instanceNtB2_18SourceInstanceConf8set_name
FNDA:0,_RNvMNtNtNtCs48GgPJaqr2Q_9wp_config9structure6source8instanceNtB2_18SourceInstanceConf8set_tags
FNDA:0,_RNvXs0_NtNtNtCs48GgPJaqr2Q_9wp_config9structure6source8instanceNtB5_18SourceInstanceConfNtNtCsg0PsmjmNqSl_12wp_conf_base9structure8Validate8validate
FNDA:8,_RNvXs_NtNtNtCs48GgPJaqr2Q_9wp_config9structure6source8instanceNtCs7BHLTF4lxFw_8wp_specs14CoreSourceSpecINtNtCsaNl6UpbT7bw_4core7convert4FromRNtB4_18SourceInstanceConfE4from
FNDA:1,_RNvXs_NtNtNtCsiL6gS0SCXXG_9wp_config9structure6source8instanceNtCs7BHLTF4lxFw_8wp_specs14CoreSourceSpecINtNtCsaNl6UpbT7bw_4core7convert4FromRNtB4_18SourceInstanceConfE4from
FNDA:1,_RNvMNtNtNtCsiL6gS0SCXXG_9wp_config9structure6source8instanceNtB2_18SourceInstanceConf17resolved_kind_str
FNDA:1,_RNvMNtNtNtCsiL6gS0SCXXG_9wp_config9structure6source8instanceNtB2_18SourceInstanceConf21resolved_params_table
FNDA:4,_RNvMNtNtNtCsiL6gS0SCXXG_9wp_config9structure6source8instanceNtB2_18SourceInstanceConf4name
FNDA:6,_RNvMNtNtNtCsiL6gS0SCXXG_9wp_config9structure6source8instanceNtB2_18SourceInstanceConf8new_type
FNDA:3,_RNvXs0_NtNtNtCsiL6gS0SCXXG_9wp_config9structure6source8instanceNtB5_18SourceInstanceConfNtNtCsg0PsmjmNqSl_12wp_conf_base9structure8Validate8validate
FNDA:0,_RNvMNtNtNtCsiL6gS0SCXXG_9wp_config9structure6source8instanceNtB2_18SourceInstanceConf10set_params
FNDA:0,_RNvMNtNtNtCsiL6gS0SCXXG_9wp_config9structure6source8instanceNtB2_18SourceInstanceConf4kind
FNDA:0,_RNvMNtNtNtCsiL6gS0SCXXG_9wp_config9structure6source8instanceNtB2_18SourceInstanceConf4tags
FNDA:0,_RNvMNtNtNtCsiL6gS0SCXXG_9wp_config9structure6source8instanceNtB2_18SourceInstanceConf8set_kind
FNDA:0,_RNvMNtNtNtCsiL6gS0SCXXG_9wp_config9structure6source8instanceNtB2_18SourceInstanceConf8set_name
FNDA:0,_RNvMNtNtNtCsiL6gS0SCXXG_9wp_config9structure6source8instanceNtB2_18SourceInstanceConf8set_tags
FNDA:1,_RNvNtNtNtNtCsiL6gS0SCXXG_9wp_config9structure6source8instance5testss_16construct_min_ok
FNF:13
FNH:7
DA:22,4
DA:23,4
DA:24,4
DA:25,0
DA:26,0
DA:27,0
DA:28,0
DA:29,0
DA:30,0
DA:31,0
DA:32,0
DA:33,0
DA:34,0
DA:35,0
DA:36,0
DA:37,0
DA:38,0
DA:39,0
DA:40,0
DA:41,0
DA:42,0
DA:43,1
DA:44,1
DA:45,1
DA:46,1
DA:47,1
DA:48,1
DA:49,22
DA:50,22
DA:51,22
DA:52,22
DA:53,22
DA:54,22
DA:55,22
DA:56,22
DA:57,22
DA:58,22
DA:59,22
DA:60,22
DA:61,22
DA:62,22
DA:63,22
DA:64,22
DA:68,9
DA:69,9
DA:70,9
DA:74,3
DA:75,3
DA:76,1
DA:77,1
DA:78,1
DA:79,2
DA:80,2
DA:81,0
DA:82,2
DA:83,2
DA:84,3
DA:93,1
DA:94,1
DA:95,1
DA:96,1
DA:97,1
DA:98,1
DA:99,1
DA:100,1
DA:101,1
BRF:0
BRH:0
LF:66
LH:47
end_of_record
SF:/Users/zwk/src_code/wp-labs/wp-motor/crates/wp-config/src/test_support.rs
FN:80,_RINvMs_NtCs48GgPJaqr2Q_9wp_config12test_supportNtB5_12TestCasePath4joinpEB7_
FN:86,_RINvMs_NtCs48GgPJaqr2Q_9wp_config12test_supportNtB5_12TestCasePath8join_strpEB7_
FN:92,_RNvXs0_NtCs48GgPJaqr2Q_9wp_config12test_supportNtB5_12TestCasePathNtNtNtCsaNl6UpbT7bw_4core3ops4drop4Drop4drop
FN:68,_RNCNvMs_NtCs48GgPJaqr2Q_9wp_config12test_supportNtB6_12TestCasePath3new0B8_
FN:15,_RNvXNtCs48GgPJaqr2Q_9wp_config12test_supportNtNtNtCsfv6z1NgKsoT_13orion_variate4vars4dict9ValueDictINtB2_7ForTestBG_E12test_default
FN:15,_RNvXNtCsiL6gS0SCXXG_9wp_config12test_supportNtNtNtCsfv6z1NgKsoT_13orion_variate4vars4dict9ValueDictINtB2_7ForTestBG_E12test_default
FN:80,_RINvMs_NtCsiL6gS0SCXXG_9wp_config12test_supportNtB5_12TestCasePath4joinpEB7_
FN:86,_RINvMs_NtCsiL6gS0SCXXG_9wp_config12test_supportNtB5_12TestCasePath8join_strpEB7_
FN:68,_RNCNvMs_NtCsiL6gS0SCXXG_9wp_config12test_supportNtB6_12TestCasePath3new0B8_
FN:77,_RNvMs_NtCsiL6gS0SCXXG_9wp_config12test_supportNtB4_12TestCasePath11path_string
FN:49,_RNvMs_NtCsiL6gS0SCXXG_9wp_config12test_supportNtB4_12TestCasePath3new
FN:74,_RNvMs_NtCsiL6gS0SCXXG_9wp_config12test_supportNtB4_12TestCasePath4path
FN:23,_RNvNtCsiL6gS0SCXXG_9wp_config12test_support10target_dir
FN:92,_RNvXs0_NtCsiL6gS0SCXXG_9wp_config12test_supportNtB5_12TestCasePathNtNtNtCsaNl6UpbT7bw_4core3ops4drop4Drop4drop
FN:77,_RNvMs_NtCs48GgPJaqr2Q_9wp_config12test_supportNtB4_12TestCasePath11path_string
FN:49,_RNvMs_NtCs48GgPJaqr2Q_9wp_config12test_supportNtB4_12TestCasePath3new
FN:74,_RNvMs_NtCs48GgPJaqr2Q_9wp_config12test_supportNtB4_12TestCasePath4path
FN:23,_RNvNtCs48GgPJaqr2Q_9wp_config12test_support10target_dir
FNDA:0,_RINvMs_NtCs48GgPJaqr2Q_9wp_config12test_supportNtB5_12TestCasePath4joinpEB7_
FNDA:0,_RINvMs_NtCs48GgPJaqr2Q_9wp_config12test_supportNtB5_12TestCasePath8join_strpEB7_
FNDA:1,_RNvXs0_NtCs48GgPJaqr2Q_9wp_config12test_supportNtB5_12TestCasePathNtNtNtCsaNl6UpbT7bw_4core3ops4drop4Drop4drop
FNDA:0,_RNCNvMs_NtCs48GgPJaqr2Q_9wp_config12test_supportNtB6_12TestCasePath3new0B8_
FNDA:121,_RNvXNtCs48GgPJaqr2Q_9wp_config12test_supportNtNtNtCsfv6z1NgKsoT_13orion_variate4vars4dict9ValueDictINtB2_7ForTestBG_E12test_default
FNDA:20,_RNvXNtCsiL6gS0SCXXG_9wp_config12test_supportNtNtNtCsfv6z1NgKsoT_13orion_variate4vars4dict9ValueDictINtB2_7ForTestBG_E12test_default
FNDA:0,_RINvMs_NtCsiL6gS0SCXXG_9wp_config12test_supportNtB5_12TestCasePath4joinpEB7_
FNDA:0,_RINvMs_NtCsiL6gS0SCXXG_9wp_config12test_supportNtB5_12TestCasePath8join_strpEB7_
FNDA:0,_RNCNvMs_NtCsiL6gS0SCXXG_9wp_config12test_supportNtB6_12TestCasePath3new0B8_
FNDA:0,_RNvMs_NtCsiL6gS0SCXXG_9wp_config12test_supportNtB4_12TestCasePath11path_string
FNDA:0,_RNvMs_NtCsiL6gS0SCXXG_9wp_config12test_supportNtB4_12TestCasePath3new
FNDA:0,_RNvMs_NtCsiL6gS0SCXXG_9wp_config12test_supportNtB4_12TestCasePath4path
FNDA:0,_RNvNtCsiL6gS0SCXXG_9wp_config12test_support10target_dir
FNDA:0,_RNvXs0_NtCsiL6gS0SCXXG_9wp_config12test_supportNtB5_12TestCasePathNtNtNtCsaNl6UpbT7bw_4core3ops4drop4Drop4drop
FNDA:0,_RNvMs_NtCs48GgPJaqr2Q_9wp_config12test_supportNtB4_12TestCasePath11path_string
FNDA:1,_RNvMs_NtCs48GgPJaqr2Q_9wp_config12test_supportNtB4_12TestCasePath3new
FNDA:5,_RNvMs_NtCs48GgPJaqr2Q_9wp_config12test_supportNtB4_12TestCasePath4path
FNDA:1,_RNvNtCs48GgPJaqr2Q_9wp_config12test_support10target_dir
FNF:9
FNH:5
DA:15,141
DA:16,141
DA:17,141
DA:23,1
DA:24,1
DA:25,0
DA:26,1
DA:27,1
DA:28,0
DA:29,1
DA:30,1
DA:31,0
DA:32,1
DA:33,1
DA:34,1
DA:35,1
DA:36,1
DA:49,1
DA:50,1
DA:51,1
DA:52,1
DA:53,1
DA:55,1
DA:56,1
DA:57,1
DA:60,1
DA:61,1
DA:63,1
DA:67,1
DA:68,1
DA:69,1
DA:70,1
DA:71,1
DA:72,1
DA:74,5
DA:75,5
DA:76,5
DA:77,0
DA:78,0
DA:79,0
DA:80,0
DA:81,0
DA:82,0
DA:86,0
DA:87,0
DA:88,0
DA:92,1
DA:93,1
DA:94,0
DA:95,1
DA:96,1
DA:97,1
BRF:0
BRH:0
LF:53
LH:39
end_of_record
SF:/Users/zwk/src_code/wp-labs/wp-motor/crates/wp-config/src/types.rs
FN:10,_RNvXNtCs48GgPJaqr2Q_9wp_config5typesNtNtNtCsfv6z1NgKsoT_13orion_variate4vars4dict9ValueDictINtB2_11SafeDefaultBy_E12safe_default
FN:10,_RNvXNtCsiL6gS0SCXXG_9wp_config5typesNtNtNtCsfv6z1NgKsoT_13orion_variate4vars4dict9ValueDictINtB2_11SafeDefaultBy_E12safe_default
FNDA:0,_RNvXNtCs48GgPJaqr2Q_9wp_config5typesNtNtNtCsfv6z1NgKsoT_13orion_variate4vars4dict9ValueDictINtB2_11SafeDefaultBy_E12safe_default
FNDA:0,_RNvXNtCsiL6gS0SCXXG_9wp_config5typesNtNtNtCsfv6z1NgKsoT_13orion_variate4vars4dict9ValueDictINtB2_11SafeDefaultBy_E12safe_default
FNF:1
FNH:0
DA:10,0
DA:11,0
DA:12,0
BRF:0
BRH:0
LF:3
LH:0
end_of_record
SF:/Users/zwk/src_code/wp-labs/wp-motor/crates/wp-config/src/utils.rs
FN:85,_RINvNtCs48GgPJaqr2Q_9wp_config5utils12backup_cleanNtNtCsht3nMU9UgFu_3std4path7PathBufECsfPo7uQlnqBI_9wp_engine
FN:85,_RINvNtCs48GgPJaqr2Q_9wp_config5utils12backup_cleanNtNtCsiTraAjBDcu4_5alloc6string6StringECsfPo7uQlnqBI_9wp_engine
FN:165,_RINvNtCs48GgPJaqr2Q_9wp_config5utils15find_conf_filesReECsfPo7uQlnqBI_9wp_engine
FN:171,_RNCINvNtCs48GgPJaqr2Q_9wp_config5utils15find_conf_filesReE0CsfPo7uQlnqBI_9wp_engine
FN:85,_RINvNtCs48GgPJaqr2Q_9wp_config5utils12backup_cleanReEB4_
FN:246,_RINvNtCs48GgPJaqr2Q_9wp_config5utils12env_eval_vecNtNtCsiTraAjBDcu4_5alloc6string6StringEB4_
FN:246,_RINvNtCs48GgPJaqr2Q_9wp_config5utils12env_eval_vecNtNtNtB4_5sinks5types9RouteSinkEB4_
FN:246,_RINvNtCs48GgPJaqr2Q_9wp_config5utils12env_eval_vecNtNtNtB4_7sources5types8WpSourceEB4_
FN:246,_RINvNtCs48GgPJaqr2Q_9wp_config5utils12env_eval_vecNtNtNtNtB4_9structure4sink8instance16SinkInstanceConfEB4_
FN:31,_RINvNtCs48GgPJaqr2Q_9wp_config5utils9save_confNtNtNtB4_9generator5wpgen11WpGenConfigReEB4_
FN:128,_RNCNvNtCs48GgPJaqr2Q_9wp_config5utils13validate_tags0B5_
FN:100,_RINvNtCs48GgPJaqr2Q_9wp_config5utils10file_clearpEB4_
FN:165,_RINvNtCs48GgPJaqr2Q_9wp_config5utils15find_conf_filespEB4_
FN:108,_RINvNtCs48GgPJaqr2Q_9wp_config5utils9conf_initppEB4_
FN:54,_RINvNtCs48GgPJaqr2Q_9wp_config5utils9save_datapEB4_
FN:171,_RNCINvNtCs48GgPJaqr2Q_9wp_config5utils15find_conf_filespE0B6_
FN:232,_RNvMNtCs48GgPJaqr2Q_9wp_config5utilsNtB2_9PathGroup3new
FN:20,_RNvNtCs48GgPJaqr2Q_9wp_config5utils12ignore_check
FN:120,_RNvNtCs48GgPJaqr2Q_9wp_config5utils13validate_tags
FN:237,_RNvNtCs48GgPJaqr2Q_9wp_config5utils15env_eval_params
FN:185,_RNvNtCs48GgPJaqr2Q_9wp_config5utils15find_group_conf
FN:155,_RNvNtCs48GgPJaqr2Q_9wp_config5utils21is_valid_tag_key_char
FN:159,_RNvNtCs48GgPJaqr2Q_9wp_config5utils21is_valid_tag_val_char
FN:116,_RNvNtCs48GgPJaqr2Q_9wp_config5utils8some_str
FN:246,_RINvNtCsiL6gS0SCXXG_9wp_config5utils12env_eval_vecNtNtCsiTraAjBDcu4_5alloc6string6StringEB4_
FN:246,_RINvNtCsiL6gS0SCXXG_9wp_config5utils12env_eval_vecNtNtNtB4_7sources5types8WpSourceEB4_
FN:246,_RINvNtCsiL6gS0SCXXG_9wp_config5utils12env_eval_vecNtNtNtNtB4_9structure4sink8instance16SinkInstanceConfEB4_
FN:165,_RINvNtCsiL6gS0SCXXG_9wp_config5utils15find_conf_filesReEB4_
FN:54,_RINvNtCsiL6gS0SCXXG_9wp_config5utils9save_dataReEB4_
FN:171,_RNCINvNtCsiL6gS0SCXXG_9wp_config5utils15find_conf_filesReE0B6_
FN:128,_RNCNvNtCsiL6gS0SCXXG_9wp_config5utils13validate_tags0B5_
FN:100,_RINvNtCsiL6gS0SCXXG_9wp_config5utils10file_clearpEB4_
FN:85,_RINvNtCsiL6gS0SCXXG_9wp_config5utils12backup_cleanpEB4_
FN:108,_RINvNtCsiL6gS0SCXXG_9wp_config5utils9conf_initppEB4_
FN:31,_RINvNtCsiL6gS0SCXXG_9wp_config5utils9save_confppEB4_
FN:116,_RNvNtCsiL6gS0SCXXG_9wp_config5utils8some_str
FN:261,_RNvNtNtCsiL6gS0SCXXG_9wp_config5utils4tests_20test_find_conf_files
FN:280,_RNvNtNtCsiL6gS0SCXXG_9wp_config5utils4tests_21test_find_group_files
FN:272,_RNCNCNvNtNtCsiL6gS0SCXXG_9wp_config5utils4tests_20test_find_conf_files00B9_
FN:272,_RNCNvNtNtCsiL6gS0SCXXG_9wp_config5utils4tests_20test_find_conf_files0B7_
FN:286,_RNCNvNtNtCsiL6gS0SCXXG_9wp_config5utils4tests_21test_find_group_files0B7_
FN:232,_RNvMNtCsiL6gS0SCXXG_9wp_config5utilsNtB2_9PathGroup3new
FN:20,_RNvNtCsiL6gS0SCXXG_9wp_config5utils12ignore_check
FN:120,_RNvNtCsiL6gS0SCXXG_9wp_config5utils13validate_tags
FN:237,_RNvNtCsiL6gS0SCXXG_9wp_config5utils15env_eval_params
FN:185,_RNvNtCsiL6gS0SCXXG_9wp_config5utils15find_group_conf
FN:155,_RNvNtCsiL6gS0SCXXG_9wp_config5utils21is_valid_tag_key_char
FN:159,_RNvNtCsiL6gS0SCXXG_9wp_config5utils21is_valid_tag_val_char
FN:54,_RINvNtCs48GgPJaqr2Q_9wp_config5utils9save_dataReECs6nUYaLIisfe_9wp_engine
FNDA:0,_RINvNtCs48GgPJaqr2Q_9wp_config5utils12backup_cleanNtNtCsht3nMU9UgFu_3std4path7PathBufECsfPo7uQlnqBI_9wp_engine
FNDA:0,_RINvNtCs48GgPJaqr2Q_9wp_config5utils12backup_cleanNtNtCsiTraAjBDcu4_5alloc6string6StringECsfPo7uQlnqBI_9wp_engine
FNDA:24,_RINvNtCs48GgPJaqr2Q_9wp_config5utils15find_conf_filesReECsfPo7uQlnqBI_9wp_engine
FNDA:0,_RNCINvNtCs48GgPJaqr2Q_9wp_config5utils15find_conf_filesReE0CsfPo7uQlnqBI_9wp_engine
FNDA:1,_RINvNtCs48GgPJaqr2Q_9wp_config5utils12backup_cleanReEB4_
FNDA:50,_RINvNtCs48GgPJaqr2Q_9wp_config5utils12env_eval_vecNtNtCsiTraAjBDcu4_5alloc6string6StringEB4_
FNDA:28,_RINvNtCs48GgPJaqr2Q_9wp_config5utils12env_eval_vecNtNtNtB4_5sinks5types9RouteSinkEB4_
FNDA:25,_RINvNtCs48GgPJaqr2Q_9wp_config5utils12env_eval_vecNtNtNtB4_7sources5types8WpSourceEB4_
FNDA:2,_RINvNtCs48GgPJaqr2Q_9wp_config5utils12env_eval_vecNtNtNtNtB4_9structure4sink8instance16SinkInstanceConfEB4_
FNDA:1,_RINvNtCs48GgPJaqr2Q_9wp_config5utils9save_confNtNtNtB4_9generator5wpgen11WpGenConfigReEB4_
FNDA:5,_RNCNvNtCs48GgPJaqr2Q_9wp_config5utils13validate_tags0B5_
FNDA:0,_RINvNtCs48GgPJaqr2Q_9wp_config5utils10file_clearpEB4_
FNDA:0,_RINvNtCs48GgPJaqr2Q_9wp_config5utils15find_conf_filespEB4_
FNDA:0,_RINvNtCs48GgPJaqr2Q_9wp_config5utils9conf_initppEB4_
FNDA:0,_RINvNtCs48GgPJaqr2Q_9wp_config5utils9save_datapEB4_
FNDA:0,_RNCINvNtCs48GgPJaqr2Q_9wp_config5utils15find_conf_filespE0B6_
FNDA:1,_RNvMNtCs48GgPJaqr2Q_9wp_config5utilsNtB2_9PathGroup3new
FNDA:0,_RNvNtCs48GgPJaqr2Q_9wp_config5utils12ignore_check
FNDA:28,_RNvNtCs48GgPJaqr2Q_9wp_config5utils13validate_tags
FNDA:63,_RNvNtCs48GgPJaqr2Q_9wp_config5utils15env_eval_params
FNDA:2,_RNvNtCs48GgPJaqr2Q_9wp_config5utils15find_group_conf
FNDA:66,_RNvNtCs48GgPJaqr2Q_9wp_config5utils21is_valid_tag_key_char
FNDA:70,_RNvNtCs48GgPJaqr2Q_9wp_config5utils21is_valid_tag_val_char
FNDA:0,_RNvNtCs48GgPJaqr2Q_9wp_config5utils8some_str
FNDA:8,_RINvNtCsiL6gS0SCXXG_9wp_config5utils12env_eval_vecNtNtCsiTraAjBDcu4_5alloc6string6StringEB4_
FNDA:4,_RINvNtCsiL6gS0SCXXG_9wp_config5utils12env_eval_vecNtNtNtB4_7sources5types8WpSourceEB4_
FNDA:1,_RINvNtCsiL6gS0SCXXG_9wp_config5utils12env_eval_vecNtNtNtNtB4_9structure4sink8instance16SinkInstanceConfEB4_
FNDA:1,_RINvNtCsiL6gS0SCXXG_9wp_config5utils15find_conf_filesReEB4_
FNDA:1,_RINvNtCsiL6gS0SCXXG_9wp_config5utils9save_dataReEB4_
FNDA:0,_RNCINvNtCsiL6gS0SCXXG_9wp_config5utils15find_conf_filesReE0B6_
FNDA:0,_RNCNvNtCsiL6gS0SCXXG_9wp_config5utils13validate_tags0B5_
FNDA:0,_RINvNtCsiL6gS0SCXXG_9wp_config5utils10file_clearpEB4_
FNDA:0,_RINvNtCsiL6gS0SCXXG_9wp_config5utils12backup_cleanpEB4_
FNDA:0,_RINvNtCsiL6gS0SCXXG_9wp_config5utils9conf_initppEB4_
FNDA:0,_RINvNtCsiL6gS0SCXXG_9wp_config5utils9save_confppEB4_
FNDA:0,_RNvNtCsiL6gS0SCXXG_9wp_config5utils8some_str
FNDA:1,_RNvNtNtCsiL6gS0SCXXG_9wp_config5utils4tests_20test_find_conf_files
FNDA:1,_RNvNtNtCsiL6gS0SCXXG_9wp_config5utils4tests_21test_find_group_files
FNDA:10,_RNCNCNvNtNtCsiL6gS0SCXXG_9wp_config5utils4tests_20test_find_conf_files00B9_
FNDA:10,_RNCNvNtNtCsiL6gS0SCXXG_9wp_config5utils4tests_20test_find_conf_files0B7_
FNDA:1,_RNCNvNtNtCsiL6gS0SCXXG_9wp_config5utils4tests_21test_find_group_files0B7_
FNDA:3,_RNvMNtCsiL6gS0SCXXG_9wp_config5utilsNtB2_9PathGroup3new
FNDA:0,_RNvNtCsiL6gS0SCXXG_9wp_config5utils12ignore_check
FNDA:2,_RNvNtCsiL6gS0SCXXG_9wp_config5utils13validate_tags
FNDA:7,_RNvNtCsiL6gS0SCXXG_9wp_config5utils15env_eval_params
FNDA:3,_RNvNtCsiL6gS0SCXXG_9wp_config5utils15find_group_conf
FNDA:0,_RNvNtCsiL6gS0SCXXG_9wp_config5utils21is_valid_tag_key_char
FNDA:0,_RNvNtCsiL6gS0SCXXG_9wp_config5utils21is_valid_tag_val_char
FNDA:1,_RINvNtCs48GgPJaqr2Q_9wp_config5utils9save_dataReECs6nUYaLIisfe_9wp_engine
FNF:22
FNH:17
DA:20,0
DA:21,0
DA:22,0
DA:24,0
DA:25,0
DA:26,0
DA:28,0
DA:29,0
DA:31,1
DA:32,1
DA:33,1
DA:35,1
DA:36,1
DA:37,1
DA:38,0
DA:41,1
DA:42,1
DA:43,1
DA:44,1
DA:45,1
DA:46,0
DA:48,1
DA:49,1
DA:51,0
DA:52,1
DA:53,1
DA:54,2
DA:55,2
DA:56,2
DA:57,2
DA:58,2
DA:59,2
DA:60,2
DA:61,2
DA:62,0
DA:64,2
DA:65,2
DA:66,2
DA:67,2
DA:68,2
DA:69,2
DA:70,0
DA:71,2
DA:72,2
DA:73,2
DA:74,2
DA:75,2
DA:76,2
DA:77,2
DA:78,2
DA:79,2
DA:81,0
DA:82,2
DA:83,2
DA:85,1
DA:86,1
DA:87,1
DA:88,1
DA:89,1
DA:90,1
DA:91,1
DA:92,1
DA:93,1
DA:94,1
DA:95,1
DA:96,0
DA:97,1
DA:98,1
DA:100,0
DA:101,0
DA:102,0
DA:103,0
DA:105,0
DA:106,0
DA:107,0
DA:108,0
DA:109,0
DA:110,0
DA:112,0
DA:113,0
DA:114,0
DA:116,0
DA:117,0
DA:118,0
DA:120,30
DA:121,30
DA:122,0
DA:123,0
DA:124,0
DA:125,0
DA:126,30
DA:127,30
DA:128,19
DA:129,14
DA:131,5
DA:133,19
DA:134,0
DA:135,0
DA:136,0
DA:137,0
DA:140,0
DA:141,19
DA:142,19
DA:143,0
DA:144,0
DA:145,0
DA:146,0
DA:149,0
DA:150,19
DA:152,30
DA:153,30
DA:155,66
DA:156,66
DA:157,66
DA:159,70
DA:160,70
DA:161,70
DA:165,25
DA:166,25
DA:167,25
DA:168,25
DA:169,25
DA:170,25
DA:171,25
DA:173,22
DA:174,22
DA:175,22
DA:176,22
DA:177,0
DA:178,0
DA:182,25
DA:183,25
DA:185,5
DA:186,5
DA:187,5
DA:188,5
DA:189,5
DA:190,5
DA:191,5
DA:192,5
DA:193,5
DA:194,5
DA:195,5
DA:196,19
DA:197,14
DA:198,14
DA:199,14
DA:200,14
DA:201,14
DA:202,2
DA:203,2
DA:204,2
DA:205,2
DA:208,0
DA:210,2
DA:211,12
DA:212,12
DA:213,12
DA:214,4
DA:215,8
DA:216,12
DA:217,2
DA:218,10
DA:219,0
DA:221,5
DA:222,4
DA:223,4
DA:224,5
DA:225,5
DA:232,4
DA:233,4
DA:234,4
DA:237,70
DA:238,122
DA:239,122
DA:240,114
DA:241,114
DA:243,70
DA:244,70
DA:246,118
DA:247,118
DA:248,118
DA:249,118
DA:250,118
DA:251,84
DA:252,84
DA:253,118
DA:254,118
DA:261,1
DA:263,1
DA:264,1
DA:265,1
DA:267,1
DA:268,5
DA:269,4
DA:270,4
DA:271,4
DA:272,10
DA:273,0
DA:277,1
DA:278,1
DA:280,1
DA:282,1
DA:283,1
DA:284,1
DA:285,1
DA:286,1
DA:287,1
DA:288,1
BRF:0
BRH:0
LF:214
LH:163
end_of_record
SF:/Users/zwk/src_code/wp-labs/wp-motor/crates/wp-data-utils/src/cache.rs
FN:203,_RNvMs6_NtCsh5iYsvsxpDg_13wp_data_utils5cacheNtB5_15FieldQueryCache10try_up_idx
FN:193,_RNvMs6_NtCsh5iYsvsxpDg_13wp_data_utils5cacheNtB5_15FieldQueryCache7get_idx
FN:27,_RNvMs_NtCsh5iYsvsxpDg_13wp_data_utils5cacheNtB4_15FieldQueryCache13with_capacity
FN:16,_RNvXNtCsh5iYsvsxpDg_13wp_data_utils5cacheNtB2_15FieldQueryCacheNtNtCsaNl6UpbT7bw_4core7default7Default7default
FN:53,_RNvXs0_NtCsh5iYsvsxpDg_13wp_data_utils5cacheNtB5_15FieldQueryCacheINtB5_9CacheAbleINtNtNtNtCseivYNzHQkxG_13wp_model_core5model4data5field5FieldNtNtNtB1p_5types5value5ValueEINtNtCsiTraAjBDcu4_5alloc3vec3VecB1i_EKj1_E4save
FN:59,_RNvXs0_NtCsh5iYsvsxpDg_13wp_data_utils5cacheNtB5_15FieldQueryCacheINtB5_9CacheAbleINtNtNtNtCseivYNzHQkxG_13wp_model_core5model4data5field5FieldNtNtNtB1p_5types5value5ValueEINtNtCsiTraAjBDcu4_5alloc3vec3VecB1i_EKj1_E5fetch
FN:69,_RNvXs1_NtCsh5iYsvsxpDg_13wp_data_utils5cacheNtB5_15FieldQueryCacheINtB5_9CacheAbleINtNtNtNtCseivYNzHQkxG_13wp_model_core5model4data5field5FieldNtNtNtB1p_5types5value5ValueEINtNtCsiTraAjBDcu4_5alloc3vec3VecB1i_EKj2_E4save
FN:75,_RNvXs1_NtCsh5iYsvsxpDg_13wp_data_utils5cacheNtB5_15FieldQueryCacheINtB5_9CacheAbleINtNtNtNtCseivYNzHQkxG_13wp_model_core5model4data5field5FieldNtNtNtB1p_5types5value5ValueEINtNtCsiTraAjBDcu4_5alloc3vec3VecB1i_EKj2_E5fetch
FN:85,_RNvXs2_NtCsh5iYsvsxpDg_13wp_data_utils5cacheNtB5_15FieldQueryCacheINtB5_9CacheAbleINtNtNtNtCseivYNzHQkxG_13wp_model_core5model4data5field5FieldNtNtNtB1p_5types5value5ValueEINtNtCsiTraAjBDcu4_5alloc3vec3VecB1i_EKj3_E4save
FN:95,_RNvXs2_NtCsh5iYsvsxpDg_13wp_data_utils5cacheNtB5_15FieldQueryCacheINtB5_9CacheAbleINtNtNtNtCseivYNzHQkxG_13wp_model_core5model4data5field5FieldNtNtNtB1p_5types5value5ValueEINtNtCsiTraAjBDcu4_5alloc3vec3VecB1i_EKj3_E5fetch
FN:109,_RNvXs3_NtCsh5iYsvsxpDg_13wp_data_utils5cacheNtB5_15FieldQueryCacheINtB5_9CacheAbleINtNtNtNtCseivYNzHQkxG_13wp_model_core5model4data5field5FieldNtNtNtB1p_5types5value5ValueEINtNtCsiTraAjBDcu4_5alloc3vec3VecB1i_EKj4_E4save
FN:120,_RNvXs3_NtCsh5iYsvsxpDg_13wp_data_utils5cacheNtB5_15FieldQueryCacheINtB5_9CacheAbleINtNtNtNtCseivYNzHQkxG_13wp_model_core5model4data5field5FieldNtNtNtB1p_5types5value5ValueEINtNtCsiTraAjBDcu4_5alloc3vec3VecB1i_EKj4_E5fetch
FN:135,_RNvXs4_NtCsh5iYsvsxpDg_13wp_data_utils5cacheNtB5_15FieldQueryCacheINtB5_9CacheAbleINtNtNtNtCseivYNzHQkxG_13wp_model_core5model4data5field5FieldNtNtNtB1p_5types5value5ValueEINtNtCsiTraAjBDcu4_5alloc3vec3VecB1i_EKj5_E4save
FN:147,_RNvXs4_NtCsh5iYsvsxpDg_13wp_data_utils5cacheNtB5_15FieldQueryCacheINtB5_9CacheAbleINtNtNtNtCseivYNzHQkxG_13wp_model_core5model4data5field5FieldNtNtNtB1p_5types5value5ValueEINtNtCsiTraAjBDcu4_5alloc3vec3VecB1i_EKj5_E5fetch
FN:163,_RNvXs5_NtCsh5iYsvsxpDg_13wp_data_utils5cacheNtB5_15FieldQueryCacheINtB5_9CacheAbleINtNtNtNtCseivYNzHQkxG_13wp_model_core5model4data5field5FieldNtNtNtB1p_5types5value5ValueEINtNtCsiTraAjBDcu4_5alloc3vec3VecB1i_EKj6_E4save
FN:176,_RNvXs5_NtCsh5iYsvsxpDg_13wp_data_utils5cacheNtB5_15FieldQueryCacheINtB5_9CacheAbleINtNtNtNtCseivYNzHQkxG_13wp_model_core5model4data5field5FieldNtNtNtB1p_5types5value5ValueEINtNtCsiTraAjBDcu4_5alloc3vec3VecB1i_EKj6_E5fetch
FN:203,_RNvMs6_NtCs92XDwuNlILJ_13wp_data_utils5cacheNtB5_15FieldQueryCache10try_up_idx
FN:193,_RNvMs6_NtCs92XDwuNlILJ_13wp_data_utils5cacheNtB5_15FieldQueryCache7get_idx
FN:27,_RNvMs_NtCs92XDwuNlILJ_13wp_data_utils5cacheNtB4_15FieldQueryCache13with_capacity
FN:53,_RNvXs0_NtCs92XDwuNlILJ_13wp_data_utils5cacheNtB5_15FieldQueryCacheINtB5_9CacheAbleINtNtNtNtCseivYNzHQkxG_13wp_model_core5model4data5field5FieldNtNtNtB1p_5types5value5ValueEINtNtCsiTraAjBDcu4_5alloc3vec3VecB1i_EKj1_E4save
FN:59,_RNvXs0_NtCs92XDwuNlILJ_13wp_data_utils5cacheNtB5_15FieldQueryCacheINtB5_9CacheAbleINtNtNtNtCseivYNzHQkxG_13wp_model_core5model4data5field5FieldNtNtNtB1p_5types5value5ValueEINtNtCsiTraAjBDcu4_5alloc3vec3VecB1i_EKj1_E5fetch
FN:69,_RNvXs1_NtCs92XDwuNlILJ_13wp_data_utils5cacheNtB5_15FieldQueryCacheINtB5_9CacheAbleINtNtNtNtCseivYNzHQkxG_13wp_model_core5model4data5field5FieldNtNtNtB1p_5types5value5ValueEINtNtCsiTraAjBDcu4_5alloc3vec3VecB1i_EKj2_E4save
FN:75,_RNvXs1_NtCs92XDwuNlILJ_13wp_data_utils5cacheNtB5_15FieldQueryCacheINtB5_9CacheAbleINtNtNtNtCseivYNzHQkxG_13wp_model_core5model4data5field5FieldNtNtNtB1p_5types5value5ValueEINtNtCsiTraAjBDcu4_5alloc3vec3VecB1i_EKj2_E5fetch
FN:259,_RNvNtNtCs92XDwuNlILJ_13wp_data_utils5cache4tests_10test_cache
FN:247,_RNvNtNtCs92XDwuNlILJ_13wp_data_utils5cache4tests_8test_idx
FN:16,_RNvXNtCs92XDwuNlILJ_13wp_data_utils5cacheNtB2_15FieldQueryCacheNtNtCsaNl6UpbT7bw_4core7default7Default7default
FN:85,_RNvXs2_NtCs92XDwuNlILJ_13wp_data_utils5cacheNtB5_15FieldQueryCacheINtB5_9CacheAbleINtNtNtNtCseivYNzHQkxG_13wp_model_core5model4data5field5FieldNtNtNtB1p_5types5value5ValueEINtNtCsiTraAjBDcu4_5alloc3vec3VecB1i_EKj3_E4save
FN:95,_RNvXs2_NtCs92XDwuNlILJ_13wp_data_utils5cacheNtB5_15FieldQueryCacheINtB5_9CacheAbleINtNtNtNtCseivYNzHQkxG_13wp_model_core5model4data5field5FieldNtNtNtB1p_5types5value5ValueEINtNtCsiTraAjBDcu4_5alloc3vec3VecB1i_EKj3_E5fetch
FN:109,_RNvXs3_NtCs92XDwuNlILJ_13wp_data_utils5cacheNtB5_15FieldQueryCacheINtB5_9CacheAbleINtNtNtNtCseivYNzHQkxG_13wp_model_core5model4data5field5FieldNtNtNtB1p_5types5value5ValueEINtNtCsiTraAjBDcu4_5alloc3vec3VecB1i_EKj4_E4save
FN:120,_RNvXs3_NtCs92XDwuNlILJ_13wp_data_utils5cacheNtB5_15FieldQueryCacheINtB5_9CacheAbleINtNtNtNtCseivYNzHQkxG_13wp_model_core5model4data5field5FieldNtNtNtB1p_5types5value5ValueEINtNtCsiTraAjBDcu4_5alloc3vec3VecB1i_EKj4_E5fetch
FN:135,_RNvXs4_NtCs92XDwuNlILJ_13wp_data_utils5cacheNtB5_15FieldQueryCacheINtB5_9CacheAbleINtNtNtNtCseivYNzHQkxG_13wp_model_core5model4data5field5FieldNtNtNtB1p_5types5value5ValueEINtNtCsiTraAjBDcu4_5alloc3vec3VecB1i_EKj5_E4save
FN:147,_RNvXs4_NtCs92XDwuNlILJ_13wp_data_utils5cacheNtB5_15FieldQueryCacheINtB5_9CacheAbleINtNtNtNtCseivYNzHQkxG_13wp_model_core5model4data5field5FieldNtNtNtB1p_5types5value5ValueEINtNtCsiTraAjBDcu4_5alloc3vec3VecB1i_EKj5_E5fetch
FN:163,_RNvXs5_NtCs92XDwuNlILJ_13wp_data_utils5cacheNtB5_15FieldQueryCacheINtB5_9CacheAbleINtNtNtNtCseivYNzHQkxG_13wp_model_core5model4data5field5FieldNtNtNtB1p_5types5value5ValueEINtNtCsiTraAjBDcu4_5alloc3vec3VecB1i_EKj6_E4save
FN:176,_RNvXs5_NtCs92XDwuNlILJ_13wp_data_utils5cacheNtB5_15FieldQueryCacheINtB5_9CacheAbleINtNtNtNtCseivYNzHQkxG_13wp_model_core5model4data5field5FieldNtNtNtB1p_5types5value5ValueEINtNtCsiTraAjBDcu4_5alloc3vec3VecB1i_EKj6_E5fetch
FNDA:0,_RNvMs6_NtCsh5iYsvsxpDg_13wp_data_utils5cacheNtB5_15FieldQueryCache10try_up_idx
FNDA:0,_RNvMs6_NtCsh5iYsvsxpDg_13wp_data_utils5cacheNtB5_15FieldQueryCache7get_idx
FNDA:0,_RNvMs_NtCsh5iYsvsxpDg_13wp_data_utils5cacheNtB4_15FieldQueryCache13with_capacity
FNDA:0,_RNvXNtCsh5iYsvsxpDg_13wp_data_utils5cacheNtB2_15FieldQueryCacheNtNtCsaNl6UpbT7bw_4core7default7Default7default
FNDA:0,_RNvXs0_NtCsh5iYsvsxpDg_13wp_data_utils5cacheNtB5_15FieldQueryCacheINtB5_9CacheAbleINtNtNtNtCseivYNzHQkxG_13wp_model_core5model4data5field5FieldNtNtNtB1p_5types5value5ValueEINtNtCsiTraAjBDcu4_5alloc3vec3VecB1i_EKj1_E4save
FNDA:0,_RNvXs0_NtCsh5iYsvsxpDg_13wp_data_utils5cacheNtB5_15FieldQueryCacheINtB5_9CacheAbleINtNtNtNtCseivYNzHQkxG_13wp_model_core5model4data5field5FieldNtNtNtB1p_5types5value5ValueEINtNtCsiTraAjBDcu4_5alloc3vec3VecB1i_EKj1_E5fetch
FNDA:0,_RNvXs1_NtCsh5iYsvsxpDg_13wp_data_utils5cacheNtB5_15FieldQueryCacheINtB5_9CacheAbleINtNtNtNtCseivYNzHQkxG_13wp_model_core5model4data5field5FieldNtNtNtB1p_5types5value5ValueEINtNtCsiTraAjBDcu4_5alloc3vec3VecB1i_EKj2_E4save
FNDA:0,_RNvXs1_NtCsh5iYsvsxpDg_13wp_data_utils5cacheNtB5_15FieldQueryCacheINtB5_9CacheAbleINtNtNtNtCseivYNzHQkxG_13wp_model_core5model4data5field5FieldNtNtNtB1p_5types5value5ValueEINtNtCsiTraAjBDcu4_5alloc3vec3VecB1i_EKj2_E5fetch
FNDA:0,_RNvXs2_NtCsh5iYsvsxpDg_13wp_data_utils5cacheNtB5_15FieldQueryCacheINtB5_9CacheAbleINtNtNtNtCseivYNzHQkxG_13wp_model_core5model4data5field5FieldNtNtNtB1p_5types5value5ValueEINtNtCsiTraAjBDcu4_5alloc3vec3VecB1i_EKj3_E4save
FNDA:0,_RNvXs2_NtCsh5iYsvsxpDg_13wp_data_utils5cacheNtB5_15FieldQueryCacheINtB5_9CacheAbleINtNtNtNtCseivYNzHQkxG_13wp_model_core5model4data5field5FieldNtNtNtB1p_5types5value5ValueEINtNtCsiTraAjBDcu4_5alloc3vec3VecB1i_EKj3_E5fetch
FNDA:0,_RNvXs3_NtCsh5iYsvsxpDg_13wp_data_utils5cacheNtB5_15FieldQueryCacheINtB5_9CacheAbleINtNtNtNtCseivYNzHQkxG_13wp_model_core5model4data5field5FieldNtNtNtB1p_5types5value5ValueEINtNtCsiTraAjBDcu4_5alloc3vec3VecB1i_EKj4_E4save
FNDA:0,_RNvXs3_NtCsh5iYsvsxpDg_13wp_data_utils5cacheNtB5_15FieldQueryCacheINtB5_9CacheAbleINtNtNtNtCseivYNzHQkxG_13wp_model_core5model4data5field5FieldNtNtNtB1p_5types5value5ValueEINtNtCsiTraAjBDcu4_5alloc3vec3VecB1i_EKj4_E5fetch
FNDA:0,_RNvXs4_NtCsh5iYsvsxpDg_13wp_data_utils5cacheNtB5_15FieldQueryCacheINtB5_9CacheAbleINtNtNtNtCseivYNzHQkxG_13wp_model_core5model4data5field5FieldNtNtNtB1p_5types5value5ValueEINtNtCsiTraAjBDcu4_5alloc3vec3VecB1i_EKj5_E4save
FNDA:0,_RNvXs4_NtCsh5iYsvsxpDg_13wp_data_utils5cacheNtB5_15FieldQueryCacheINtB5_9CacheAbleINtNtNtNtCseivYNzHQkxG_13wp_model_core5model4data5field5FieldNtNtNtB1p_5types5value5ValueEINtNtCsiTraAjBDcu4_5alloc3vec3VecB1i_EKj5_E5fetch
FNDA:0,_RNvXs5_NtCsh5iYsvsxpDg_13wp_data_utils5cacheNtB5_15FieldQueryCacheINtB5_9CacheAbleINtNtNtNtCseivYNzHQkxG_13wp_model_core5model4data5field5FieldNtNtNtB1p_5types5value5ValueEINtNtCsiTraAjBDcu4_5alloc3vec3VecB1i_EKj6_E4save
FNDA:0,_RNvXs5_NtCsh5iYsvsxpDg_13wp_data_utils5cacheNtB5_15FieldQueryCacheINtB5_9CacheAbleINtNtNtNtCseivYNzHQkxG_13wp_model_core5model4data5field5FieldNtNtNtB1p_5types5value5ValueEINtNtCsiTraAjBDcu4_5alloc3vec3VecB1i_EKj6_E5fetch
FNDA:4,_RNvMs6_NtCs92XDwuNlILJ_13wp_data_utils5cacheNtB5_15FieldQueryCache10try_up_idx
FNDA:8,_RNvMs6_NtCs92XDwuNlILJ_13wp_data_utils5cacheNtB5_15FieldQueryCache7get_idx
FNDA:1,_RNvMs_NtCs92XDwuNlILJ_13wp_data_utils5cacheNtB4_15FieldQueryCache13with_capacity
FNDA:2,_RNvXs0_NtCs92XDwuNlILJ_13wp_data_utils5cacheNtB5_15FieldQueryCacheINtB5_9CacheAbleINtNtNtNtCseivYNzHQkxG_13wp_model_core5model4data5field5FieldNtNtNtB1p_5types5value5ValueEINtNtCsiTraAjBDcu4_5alloc3vec3VecB1i_EKj1_E4save
FNDA:4,_RNvXs0_NtCs92XDwuNlILJ_13wp_data_utils5cacheNtB5_15FieldQueryCacheINtB5_9CacheAbleINtNtNtNtCseivYNzHQkxG_13wp_model_core5model4data5field5FieldNtNtNtB1p_5types5value5ValueEINtNtCsiTraAjBDcu4_5alloc3vec3VecB1i_EKj1_E5fetch
FNDA:1,_RNvXs1_NtCs92XDwuNlILJ_13wp_data_utils5cacheNtB5_15FieldQueryCacheINtB5_9CacheAbleINtNtNtNtCseivYNzHQkxG_13wp_model_core5model4data5field5FieldNtNtNtB1p_5types5value5ValueEINtNtCsiTraAjBDcu4_5alloc3vec3VecB1i_EKj2_E4save
FNDA:2,_RNvXs1_NtCs92XDwuNlILJ_13wp_data_utils5cacheNtB5_15FieldQueryCacheINtB5_9CacheAbleINtNtNtNtCseivYNzHQkxG_13wp_model_core5model4data5field5FieldNtNtNtB1p_5types5value5ValueEINtNtCsiTraAjBDcu4_5alloc3vec3VecB1i_EKj2_E5fetch
FNDA:1,_RNvNtNtCs92XDwuNlILJ_13wp_data_utils5cache4tests_10test_cache
FNDA:1,_RNvNtNtCs92XDwuNlILJ_13wp_data_utils5cache4tests_8test_idx
FNDA:0,_RNvXNtCs92XDwuNlILJ_13wp_data_utils5cacheNtB2_15FieldQueryCacheNtNtCsaNl6UpbT7bw_4core7default7Default7default
FNDA:0,_RNvXs2_NtCs92XDwuNlILJ_13wp_data_utils5cacheNtB5_15FieldQueryCacheINtB5_9CacheAbleINtNtNtNtCseivYNzHQkxG_13wp_model_core5model4data5field5FieldNtNtNtB1p_5types5value5ValueEINtNtCsiTraAjBDcu4_5alloc3vec3VecB1i_EKj3_E4save
FNDA:0,_RNvXs2_NtCs92XDwuNlILJ_13wp_data_utils5cacheNtB5_15FieldQueryCacheINtB5_9CacheAbleINtNtNtNtCseivYNzHQkxG_13wp_model_core5model4data5field5FieldNtNtNtB1p_5types5value5ValueEINtNtCsiTraAjBDcu4_5alloc3vec3VecB1i_EKj3_E5fetch
FNDA:0,_RNvXs3_NtCs92XDwuNlILJ_13wp_data_utils5cacheNtB5_15FieldQueryCacheINtB5_9CacheAbleINtNtNtNtCseivYNzHQkxG_13wp_model_core5model4data5field5FieldNtNtNtB1p_5types5value5ValueEINtNtCsiTraAjBDcu4_5alloc3vec3VecB1i_EKj4_E4save
FNDA:0,_RNvXs3_NtCs92XDwuNlILJ_13wp_data_utils5cacheNtB5_15FieldQueryCacheINtB5_9CacheAbleINtNtNtNtCseivYNzHQkxG_13wp_model_core5model4data5field5FieldNtNtNtB1p_5types5value5ValueEINtNtCsiTraAjBDcu4_5alloc3vec3VecB1i_EKj4_E5fetch
FNDA:0,_RNvXs4_NtCs92XDwuNlILJ_13wp_data_utils5cacheNtB5_15FieldQueryCacheINtB5_9CacheAbleINtNtNtNtCseivYNzHQkxG_13wp_model_core5model4data5field5FieldNtNtNtB1p_5types5value5ValueEINtNtCsiTraAjBDcu4_5alloc3vec3VecB1i_EKj5_E4save
FNDA:0,_RNvXs4_NtCs92XDwuNlILJ_13wp_data_utils5cacheNtB5_15FieldQueryCacheINtB5_9CacheAbleINtNtNtNtCseivYNzHQkxG_13wp_model_core5model4data5field5FieldNtNtNtB1p_5types5value5ValueEINtNtCsiTraAjBDcu4_5alloc3vec3VecB1i_EKj5_E5fetch
FNDA:0,_RNvXs5_NtCs92XDwuNlILJ_13wp_data_utils5cacheNtB5_15FieldQueryCacheINtB5_9CacheAbleINtNtNtNtCseivYNzHQkxG_13wp_model_core5model4data5field5FieldNtNtNtB1p_5types5value5ValueEINtNtCsiTraAjBDcu4_5alloc3vec3VecB1i_EKj6_E4save
FNDA:0,_RNvXs5_NtCs92XDwuNlILJ_13wp_data_utils5cacheNtB5_15FieldQueryCacheINtB5_9CacheAbleINtNtNtNtCseivYNzHQkxG_13wp_model_core5model4data5field5FieldNtNtNtB1p_5types5value5ValueEINtNtCsiTraAjBDcu4_5alloc3vec3VecB1i_EKj6_E5fetch
FNF:18
FNH:9
DA:16,0
DA:17,0
DA:18,0
DA:19,0
DA:20,0
DA:21,0
DA:22,0
DA:23,0
DA:24,0
DA:27,1
DA:28,1
DA:29,1
DA:30,1
DA:31,1
DA:32,1
DA:33,1
DA:34,1
DA:35,1
DA:36,1
DA:53,2
DA:54,2
DA:55,2
DA:56,2
DA:57,2
DA:58,2
DA:59,4
DA:60,4
DA:61,4
DA:62,4
DA:63,0
DA:64,0
DA:65,4
DA:69,1
DA:70,1
DA:71,1
DA:72,1
DA:73,1
DA:74,1
DA:75,2
DA:76,2
DA:77,1
DA:78,1
DA:79,1
DA:80,1
DA:81,2
DA:85,0
DA:86,0
DA:87,0
DA:88,0
DA:89,0
DA:90,0
DA:91,0
DA:92,0
DA:93,0
DA:94,0
DA:95,0
DA:96,0
DA:97,0
DA:98,0
DA:99,0
DA:101,0
DA:102,0
DA:103,0
DA:104,0
DA:105,0
DA:109,0
DA:110,0
DA:111,0
DA:112,0
DA:113,0
DA:114,0
DA:115,0
DA:116,0
DA:117,0
DA:118,0
DA:119,0
DA:120,0
DA:121,0
DA:122,0
DA:123,0
DA:124,0
DA:125,0
DA:127,0
DA:128,0
DA:129,0
DA:130,0
DA:131,0
DA:135,0
DA:136,0
DA:137,0
DA:138,0
DA:139,0
DA:140,0
DA:141,0
DA:142,0
DA:143,0
DA:144,0
DA:145,0
DA:146,0
DA:147,0
DA:148,0
DA:149,0
DA:150,0
DA:151,0
DA:152,0
DA:153,0
DA:155,0
DA:156,0
DA:157,0
DA:158,0
DA:159,0
DA:163,0
DA:164,0
DA:165,0
DA:166,0
DA:167,0
DA:168,0
DA:169,0
DA:170,0
DA:171,0
DA:172,0
DA:173,0
DA:174,0
DA:175,0
DA:176,0
DA:177,0
DA:178,0
DA:179,0
DA:180,0
DA:181,0
DA:182,0
DA:183,0
DA:185,0
DA:186,0
DA:187,0
DA:188,0
DA:189,0
DA:193,8
DA:194,8
DA:195,8
DA:196,0
DA:197,0
DA:198,0
DA:200,8
DA:203,4
DA:204,4
DA:205,4
DA:206,4
DA:207,2
DA:209,2
DA:210,2
DA:211,2
DA:214,0
DA:215,0
DA:216,0
DA:218,0
DA:219,0
DA:220,0
DA:223,0
DA:224,0
DA:225,0
DA:227,0
DA:228,0
DA:229,0
DA:232,0
DA:234,4
DA:247,1
DA:248,1
DA:249,1
DA:250,1
DA:252,1
DA:253,1
DA:254,1
DA:255,1
DA:256,1
DA:257,1
DA:259,1
DA:260,1
DA:261,1
DA:262,1
DA:263,1
DA:264,1
DA:265,1
DA:266,1
DA:269,1
DA:270,1
DA:271,1
DA:272,1
DA:273,1
DA:274,1
DA:276,1
DA:278,1
DA:279,1
DA:280,1
DA:281,1
DA:282,1
DA:284,1
DA:286,1
DA:287,1
DA:288,1
DA:289,1
DA:290,1
DA:291,1
BRF:0
BRH:0
LF:203
LH:84
end_of_record
SF:/Users/zwk/src_code/wp-labs/wp-motor/crates/wp-data-utils/src/compare.rs
FN:6,_RNvNtCsh5iYsvsxpDg_13wp_data_utils7compare17compare_datafield
FN:6,_RNvNtCs92XDwuNlILJ_13wp_data_utils7compare17compare_datafield
FNDA:239,_RNvNtCsh5iYsvsxpDg_13wp_data_utils7compare17compare_datafield
FNDA:0,_RNvNtCs92XDwuNlILJ_13wp_data_utils7compare17compare_datafield
FNF:1
FNH:1
DA:6,239
DA:8,239
DA:9,1
DA:10,238
DA:12,238
DA:13,0
DA:14,238
DA:15,238
DA:16,131
DA:17,0
DA:18,0
DA:19,3
DA:20,44
DA:21,0
DA:22,0
DA:23,0
DA:24,0
DA:25,0
DA:26,0
DA:28,60
DA:29,0
DA:30,0
DA:31,0
DA:32,0
DA:33,0
DA:34,0
DA:35,0
DA:36,0
DA:38,239
BRF:0
BRH:0
LF:29
LH:12
end_of_record
SF:/Users/zwk/src_code/wp-labs/wp-motor/crates/wp-data-utils/src/conditions.rs
FN:25,_RNCNvNtCsh5iYsvsxpDg_13wp_data_utils10conditions13evaluate_expr0B5_
FN:35,_RNCNvNtCsh5iYsvsxpDg_13wp_data_utils10conditions19evaluate_expression0B5_
FN:14,_RNCNvXNtCsh5iYsvsxpDg_13wp_data_utils10conditionsNtB4_12RecordGetterINtNtCsjit0JYdlpo8_9orion_exp6traits11ValueGetterINtNtNtNtCseivYNzHQkxG_13wp_model_core5model4data5field5FieldNtNtNtB1Y_5types5value5ValueEE9get_value0B6_
FN:19,_RNvNtCsh5iYsvsxpDg_13wp_data_utils10conditions13evaluate_expr
FN:30,_RNvNtCsh5iYsvsxpDg_13wp_data_utils10conditions19evaluate_expression
FN:13,_RNvXNtCsh5iYsvsxpDg_13wp_data_utils10conditionsNtB2_12RecordGetterINtNtCsjit0JYdlpo8_9orion_exp6traits11ValueGetterINtNtNtNtCseivYNzHQkxG_13wp_model_core5model4data5field5FieldNtNtNtB1W_5types5value5ValueEE9get_value
FN:25,_RNCNvNtCs92XDwuNlILJ_13wp_data_utils10conditions13evaluate_expr0B5_
FN:35,_RNCNvNtCs92XDwuNlILJ_13wp_data_utils10conditions19evaluate_expression0B5_
FN:14,_RNCNvXNtCs92XDwuNlILJ_13wp_data_utils10conditionsNtB4_12RecordGetterINtNtCsjit0JYdlpo8_9orion_exp6traits11ValueGetterINtNtNtNtCseivYNzHQkxG_13wp_model_core5model4data5field5FieldNtNtNtB1Y_5types5value5ValueEE9get_value0B6_
FN:19,_RNvNtCs92XDwuNlILJ_13wp_data_utils10conditions13evaluate_expr
FN:30,_RNvNtCs92XDwuNlILJ_13wp_data_utils10conditions19evaluate_expression
FN:13,_RNvXNtCs92XDwuNlILJ_13wp_data_utils10conditionsNtB2_12RecordGetterINtNtCsjit0JYdlpo8_9orion_exp6traits11ValueGetterINtNtNtNtCseivYNzHQkxG_13wp_model_core5model4data5field5FieldNtNtNtB1W_5types5value5ValueEE9get_value
FNDA:0,_RNCNvNtCsh5iYsvsxpDg_13wp_data_utils10conditions13evaluate_expr0B5_
FNDA:27,_RNCNvNtCsh5iYsvsxpDg_13wp_data_utils10conditions19evaluate_expression0B5_
FNDA:27,_RNCNvXNtCsh5iYsvsxpDg_13wp_data_utils10conditionsNtB4_12RecordGetterINtNtCsjit0JYdlpo8_9orion_exp6traits11ValueGetterINtNtNtNtCseivYNzHQkxG_13wp_model_core5model4data5field5FieldNtNtNtB1Y_5types5value5ValueEE9get_value0B6_
FNDA:0,_RNvNtCsh5iYsvsxpDg_13wp_data_utils10conditions13evaluate_expr
FNDA:21,_RNvNtCsh5iYsvsxpDg_13wp_data_utils10conditions19evaluate_expression
FNDA:29,_RNvXNtCsh5iYsvsxpDg_13wp_data_utils10conditionsNtB2_12RecordGetterINtNtCsjit0JYdlpo8_9orion_exp6traits11ValueGetterINtNtNtNtCseivYNzHQkxG_13wp_model_core5model4data5field5FieldNtNtNtB1W_5types5value5ValueEE9get_value
FNDA:0,_RNCNvNtCs92XDwuNlILJ_13wp_data_utils10conditions13evaluate_expr0B5_
FNDA:0,_RNCNvNtCs92XDwuNlILJ_13wp_data_utils10conditions19evaluate_expression0B5_
FNDA:0,_RNCNvXNtCs92XDwuNlILJ_13wp_data_utils10conditionsNtB4_12RecordGetterINtNtCsjit0JYdlpo8_9orion_exp6traits11ValueGetterINtNtNtNtCseivYNzHQkxG_13wp_model_core5model4data5field5FieldNtNtNtB1Y_5types5value5ValueEE9get_value0B6_
FNDA:0,_RNvNtCs92XDwuNlILJ_13wp_data_utils10conditions13evaluate_expr
FNDA:0,_RNvNtCs92XDwuNlILJ_13wp_data_utils10conditions19evaluate_expression
FNDA:0,_RNvXNtCs92XDwuNlILJ_13wp_data_utils10conditionsNtB2_12RecordGetterINtNtCsjit0JYdlpo8_9orion_exp6traits11ValueGetterINtNtNtNtCseivYNzHQkxG_13wp_model_core5model4data5field5FieldNtNtNtB1W_5types5value5ValueEE9get_value
FNF:6
FNH:4
DA:13,29
DA:14,29
DA:15,29
DA:19,0
DA:20,0
DA:21,0
DA:22,0
DA:24,0
DA:25,0
DA:26,0
DA:27,0
DA:30,21
DA:31,21
DA:32,21
DA:33,21
DA:34,21
DA:35,27
DA:36,21
DA:37,21
BRF:0
BRH:0
LF:22
LH:13
end_of_record
SF:/Users/zwk/src_code/wp-labs/wp-motor/crates/wp-oml/src/core/diagnostics.rs
FN:62,_RNvNtNtNtCs4LPn2VmCcs_3oml4core11diagnostics5inner10diag_store
FN:54,_RNvNtNtNtCs4LPn2VmCcs_3oml4core11diagnostics5inner13current_scope
FN:75,_RNvNtNtNtCs4LPn2VmCcs_3oml4core11diagnostics5inner4push
FN:87,_RNvNtNtNtCs4LPn2VmCcs_3oml4core11diagnostics5inner4take
FN:67,_RNvNtNtNtCs4LPn2VmCcs_3oml4core11diagnostics5inner5reset
FN:28,_RNvMNtNtCs4LPn2VmCcs_3oml4core11diagnosticsNtB2_8OmlIssue8to_brief
FN:109,_RNvNtNtCs4LPn2VmCcs_3oml4core11diagnostics12take_summary
FN:64,_RNCNvNtNtNtCs4LPn2VmCcs_3oml4core11diagnostics5inner10diag_store0B9_
FN:80,_RNCNvNtNtNtCs4LPn2VmCcs_3oml4core11diagnostics5inner4push0B9_
FN:91,_RNCNvNtNtNtCs4LPn2VmCcs_3oml4core11diagnostics5inner4take0B9_
FN:71,_RNCNvNtNtNtCs4LPn2VmCcs_3oml4core11diagnostics5inner5reset0B9_
FN:22,_RINvMNtNtCs4LPn2VmCcs_3oml4core11diagnosticsNtB3_8OmlIssue3newNtNtCsiTraAjBDcu4_5alloc6string6StringEB7_
FN:91,_RNCNvNtNtNtCsikXTExXJHPl_3oml4core11diagnostics5inner4take0B9_
FN:28,_RNvMNtNtCsikXTExXJHPl_3oml4core11diagnosticsNtB2_8OmlIssue8to_brief
FN:109,_RNvNtNtCsikXTExXJHPl_3oml4core11diagnostics12take_summary
FN:87,_RNvNtNtNtCsikXTExXJHPl_3oml4core11diagnostics5inner4take
FN:62,_RNvNtNtNtCsikXTExXJHPl_3oml4core11diagnostics5inner10diag_store
FN:54,_RNvNtNtNtCsikXTExXJHPl_3oml4core11diagnostics5inner13current_scope
FN:75,_RNvNtNtNtCsikXTExXJHPl_3oml4core11diagnostics5inner4push
FN:67,_RNvNtNtNtCsikXTExXJHPl_3oml4core11diagnostics5inner5reset
FN:22,_RINvMNtNtCsikXTExXJHPl_3oml4core11diagnosticsNtB3_8OmlIssue3newNtNtCsiTraAjBDcu4_5alloc6string6StringEB7_
FN:64,_RNCNvNtNtNtCsikXTExXJHPl_3oml4core11diagnostics5inner10diag_store0B9_
FN:80,_RNCNvNtNtNtCsikXTExXJHPl_3oml4core11diagnostics5inner4push0B9_
FN:71,_RNCNvNtNtNtCsikXTExXJHPl_3oml4core11diagnostics5inner5reset0B9_
FNDA:88,_RNvNtNtNtCs4LPn2VmCcs_3oml4core11diagnostics5inner10diag_store
FNDA:88,_RNvNtNtNtCs4LPn2VmCcs_3oml4core11diagnostics5inner13current_scope
FNDA:2,_RNvNtNtNtCs4LPn2VmCcs_3oml4core11diagnostics5inner4push
FNDA:0,_RNvNtNtNtCs4LPn2VmCcs_3oml4core11diagnostics5inner4take
FNDA:86,_RNvNtNtNtCs4LPn2VmCcs_3oml4core11diagnostics5inner5reset
FNDA:0,_RNvMNtNtCs4LPn2VmCcs_3oml4core11diagnosticsNtB2_8OmlIssue8to_brief
FNDA:0,_RNvNtNtCs4LPn2VmCcs_3oml4core11diagnostics12take_summary
FNDA:3,_RNCNvNtNtNtCs4LPn2VmCcs_3oml4core11diagnostics5inner10diag_store0B9_
FNDA:0,_RNCNvNtNtNtCs4LPn2VmCcs_3oml4core11diagnostics5inner4push0B9_
FNDA:0,_RNCNvNtNtNtCs4LPn2VmCcs_3oml4core11diagnostics5inner4take0B9_
FNDA:0,_RNCNvNtNtNtCs4LPn2VmCcs_3oml4core11diagnostics5inner5reset0B9_
FNDA:2,_RINvMNtNtCs4LPn2VmCcs_3oml4core11diagnosticsNtB3_8OmlIssue3newNtNtCsiTraAjBDcu4_5alloc6string6StringEB7_
FNDA:0,_RNCNvNtNtNtCsikXTExXJHPl_3oml4core11diagnostics5inner4take0B9_
FNDA:0,_RNvMNtNtCsikXTExXJHPl_3oml4core11diagnosticsNtB2_8OmlIssue8to_brief
FNDA:0,_RNvNtNtCsikXTExXJHPl_3oml4core11diagnostics12take_summary
FNDA:0,_RNvNtNtNtCsikXTExXJHPl_3oml4core11diagnostics5inner4take
FNDA:112,_RNvNtNtNtCsikXTExXJHPl_3oml4core11diagnostics5inner10diag_store
FNDA:112,_RNvNtNtNtCsikXTExXJHPl_3oml4core11diagnostics5inner13current_scope
FNDA:17,_RNvNtNtNtCsikXTExXJHPl_3oml4core11diagnostics5inner4push
FNDA:95,_RNvNtNtNtCsikXTExXJHPl_3oml4core11diagnostics5inner5reset
FNDA:17,_RINvMNtNtCsikXTExXJHPl_3oml4core11diagnosticsNtB3_8OmlIssue3newNtNtCsiTraAjBDcu4_5alloc6string6StringEB7_
FNDA:1,_RNCNvNtNtNtCsikXTExXJHPl_3oml4core11diagnostics5inner10diag_store0B9_
FNDA:0,_RNCNvNtNtNtCsikXTExXJHPl_3oml4core11diagnostics5inner4push0B9_
FNDA:0,_RNCNvNtNtNtCsikXTExXJHPl_3oml4core11diagnostics5inner5reset0B9_
FNF:12
FNH:6
DA:22,19
DA:23,19
DA:24,19
DA:25,19
DA:26,19
DA:27,19
DA:28,0
DA:29,0
DA:30,0
DA:31,0
DA:32,0
DA:33,0
DA:34,0
DA:35,0
DA:37,0
DA:54,200
DA:55,200
DA:56,0
DA:58,200
DA:60,200
DA:62,200
DA:64,200
DA:65,200
DA:67,181
DA:68,181
DA:69,181
DA:70,181
DA:71,181
DA:72,181
DA:73,181
DA:75,19
DA:77,19
DA:78,19
DA:79,19
DA:80,19
DA:81,19
DA:82,19
DA:83,19
DA:84,19
DA:85,19
DA:87,0
DA:88,0
DA:89,0
DA:90,0
DA:91,0
DA:92,0
DA:93,0
DA:109,0
DA:110,0
DA:111,0
DA:112,0
DA:113,0
DA:114,0
DA:115,0
DA:116,0
DA:117,0
DA:118,0
DA:119,0
DA:120,0
DA:122,0
DA:123,0
DA:124,0
DA:126,0
DA:127,0
BRF:0
BRH:0
LF:68
LH:31
end_of_record
SF:/Users/zwk/src_code/wp-labs/wp-motor/crates/wp-oml/src/core/evaluator/extract/basic/batch.rs
FN:25,_RNCNvMNtNtNtNtNtCs4LPn2VmCcs_3oml4core9evaluator7extract5basic5batchNtNtNtNtNtBe_8language6syntax10evaluators7pattern12BatchEvalExp9eval_proc0Be_
FN:68,_RNCNvXs0_NtNtNtNtNtCs4LPn2VmCcs_3oml4core9evaluator7extract5basic5batchNtNtNtNtNtBh_8language6syntax10operations6record15RecordOperationNtNtBd_6traits12BatchFetcher13extract_batch0Bh_
FN:11,_RNvMNtNtNtNtNtCs4LPn2VmCcs_3oml4core9evaluator7extract5basic5batchNtNtNtNtNtBc_8language6syntax10evaluators7pattern12BatchEvalExp9eval_proc
FN:41,_RNvXs1_NtNtNtNtNtCs4LPn2VmCcs_3oml4core9evaluator7extract5basic5batchNtNtNtNtNtBf_8language6syntax10evaluators7pattern12BatchEvalExpNtNtBb_6traits17AsyncExpEvaluator15eval_proc_async
FN:47,_RNvXs_NtNtNtNtNtCs4LPn2VmCcs_3oml4core9evaluator7extract5basic5batchNtNtNtNtNtBe_8language6syntax10evaluators7pattern15BatchEvaluationNtNtBa_6traits12BatchFetcher13extract_batch
FN:59,_RNvXs0_NtNtNtNtNtCs4LPn2VmCcs_3oml4core9evaluator7extract5basic5batchNtNtNtNtNtBf_8language6syntax10operations6record15RecordOperationNtNtBb_6traits12BatchFetcher13extract_batch
FN:11,_RNvMNtNtNtNtNtCsikXTExXJHPl_3oml4core9evaluator7extract5basic5batchNtNtNtNtNtBc_8language6syntax10evaluators7pattern12BatchEvalExp9eval_proc
FN:41,_RNvXs1_NtNtNtNtNtCsikXTExXJHPl_3oml4core9evaluator7extract5basic5batchNtNtNtNtNtBf_8language6syntax10evaluators7pattern12BatchEvalExpNtNtBb_6traits17AsyncExpEvaluator15eval_proc_async
FN:47,_RNvXs_NtNtNtNtNtCsikXTExXJHPl_3oml4core9evaluator7extract5basic5batchNtNtNtNtNtBe_8language6syntax10evaluators7pattern15BatchEvaluationNtNtBa_6traits12BatchFetcher13extract_batch
FN:25,_RNCNvMNtNtNtNtNtCsikXTExXJHPl_3oml4core9evaluator7extract5basic5batchNtNtNtNtNtBe_8language6syntax10evaluators7pattern12BatchEvalExp9eval_proc0Be_
FN:68,_RNCNvXs0_NtNtNtNtNtCsikXTExXJHPl_3oml4core9evaluator7extract5basic5batchNtNtNtNtNtBh_8language6syntax10operations6record15RecordOperationNtNtBd_6traits12BatchFetcher13extract_batch0Bh_
FN:89,_RNvNtNtNtNtNtNtCsikXTExXJHPl_3oml4core9evaluator7extract5basic5batch5testss_15test_value_arr1
FN:116,_RNvNtNtNtNtNtNtCsikXTExXJHPl_3oml4core9evaluator7extract5basic5batch5testss_15test_value_arr2
FN:59,_RNvXs0_NtNtNtNtNtCsikXTExXJHPl_3oml4core9evaluator7extract5basic5batchNtNtNtNtNtBf_8language6syntax10operations6record15RecordOperationNtNtBb_6traits12BatchFetcher13extract_batch
FNDA:0,_RNCNvMNtNtNtNtNtCs4LPn2VmCcs_3oml4core9evaluator7extract5basic5batchNtNtNtNtNtBe_8language6syntax10evaluators7pattern12BatchEvalExp9eval_proc0Be_
FNDA:0,_RNCNvXs0_NtNtNtNtNtCs4LPn2VmCcs_3oml4core9evaluator7extract5basic5batchNtNtNtNtNtBh_8language6syntax10operations6record15RecordOperationNtNtBd_6traits12BatchFetcher13extract_batch0Bh_
FNDA:4,_RNvMNtNtNtNtNtCs4LPn2VmCcs_3oml4core9evaluator7extract5basic5batchNtNtNtNtNtBc_8language6syntax10evaluators7pattern12BatchEvalExp9eval_proc
FNDA:4,_RNvXs1_NtNtNtNtNtCs4LPn2VmCcs_3oml4core9evaluator7extract5basic5batchNtNtNtNtNtBf_8language6syntax10evaluators7pattern12BatchEvalExpNtNtBb_6traits17AsyncExpEvaluator15eval_proc_async
FNDA:4,_RNvXs_NtNtNtNtNtCs4LPn2VmCcs_3oml4core9evaluator7extract5basic5batchNtNtNtNtNtBe_8language6syntax10evaluators7pattern15BatchEvaluationNtNtBa_6traits12BatchFetcher13extract_batch
FNDA:4,_RNvXs0_NtNtNtNtNtCs4LPn2VmCcs_3oml4core9evaluator7extract5basic5batchNtNtNtNtNtBf_8language6syntax10operations6record15RecordOperationNtNtBb_6traits12BatchFetcher13extract_batch
FNDA:3,_RNvMNtNtNtNtNtCsikXTExXJHPl_3oml4core9evaluator7extract5basic5batchNtNtNtNtNtBc_8language6syntax10evaluators7pattern12BatchEvalExp9eval_proc
FNDA:0,_RNvXs1_NtNtNtNtNtCsikXTExXJHPl_3oml4core9evaluator7extract5basic5batchNtNtNtNtNtBf_8language6syntax10evaluators7pattern12BatchEvalExpNtNtBb_6traits17AsyncExpEvaluator15eval_proc_async
FNDA:3,_RNvXs_NtNtNtNtNtCsikXTExXJHPl_3oml4core9evaluator7extract5basic5batchNtNtNtNtNtBe_8language6syntax10evaluators7pattern15BatchEvaluationNtNtBa_6traits12BatchFetcher13extract_batch
FNDA:0,_RNCNvMNtNtNtNtNtCsikXTExXJHPl_3oml4core9evaluator7extract5basic5batchNtNtNtNtNtBe_8language6syntax10evaluators7pattern12BatchEvalExp9eval_proc0Be_
FNDA:0,_RNCNvXs0_NtNtNtNtNtCsikXTExXJHPl_3oml4core9evaluator7extract5basic5batchNtNtNtNtNtBh_8language6syntax10operations6record15RecordOperationNtNtBd_6traits12BatchFetcher13extract_batch0Bh_
FNDA:1,_RNvNtNtNtNtNtNtCsikXTExXJHPl_3oml4core9evaluator7extract5basic5batch5testss_15test_value_arr1
FNDA:1,_RNvNtNtNtNtNtNtCsikXTExXJHPl_3oml4core9evaluator7extract5basic5batch5testss_15test_value_arr2
FNDA:3,_RNvXs0_NtNtNtNtNtCsikXTExXJHPl_3oml4core9evaluator7extract5basic5batchNtNtNtNtNtBf_8language6syntax10operations6record15RecordOperationNtNtBb_6traits12BatchFetcher13extract_batch
FNF:8
FNH:6
DA:11,7
DA:12,7
DA:13,7
DA:14,7
DA:15,7
DA:16,7
DA:17,7
DA:18,7
DA:20,0
DA:21,0
DA:22,0
DA:23,0
DA:24,0
DA:25,0
DA:26,0
DA:27,7
DA:28,7
DA:29,7
DA:30,7
DA:31,7
DA:41,4
DA:43,4
DA:47,7
DA:48,7
DA:49,7
DA:50,7
DA:51,7
DA:52,7
DA:53,7
DA:54,7
DA:56,7
DA:59,7
DA:60,7
DA:61,7
DA:62,7
DA:63,7
DA:64,7
DA:65,7
DA:66,7
DA:67,33
DA:68,33
DA:69,21
DA:70,21
DA:71,21
DA:73,7
DA:74,28
DA:75,21
DA:76,21
DA:77,7
DA:78,7
DA:89,1
DA:90,1
DA:92,1
DA:93,1
DA:94,1
DA:95,1
DA:96,1
DA:98,1
DA:100,1
DA:101,1
DA:102,1
DA:103,1
DA:104,1
DA:105,1
DA:107,1
DA:108,1
DA:109,1
DA:110,1
DA:111,1
DA:112,1
DA:113,1
DA:116,1
DA:117,1
DA:119,1
DA:120,1
DA:121,1
DA:122,1
DA:123,1
DA:124,1
DA:126,1
DA:127,1
DA:128,1
DA:129,1
DA:131,1
DA:133,1
DA:134,1
DA:135,1
DA:136,1
DA:137,1
DA:138,1
DA:139,1
BRF:0
BRH:0
LF:93
LH:84
end_of_record
SF:/Users/zwk/src_code/wp-labs/wp-motor/crates/wp-oml/src/core/evaluator/extract/basic/mod.rs
FN:26,_RNvMs_NtNtNtNtCs4LPn2VmCcs_3oml4core9evaluator7extract5basicNtNtNtNtBc_8language6syntax9accessors14DirectAccessor11extract_one
FN:38,_RNvMs_NtNtNtNtCs4LPn2VmCcs_3oml4core9evaluator7extract5basicNtNtNtNtBc_8language6syntax9accessors14DirectAccessor15extract_storage
FN:11,_RNvXNtNtNtNtCs4LPn2VmCcs_3oml4core9evaluator7extract5basicNtNtNtNtBa_8language6syntax9accessors14DirectAccessorNtNtB6_6traits14FieldCollector12collect_item
FN:75,_RNvXs0_NtNtNtNtCs4LPn2VmCcs_3oml4core9evaluator7extract5basicNtNtNtNtBd_8language6syntax9accessors14DirectAccessorNtBb_19AsyncFieldExtractor17extract_one_async
FN:99,_RNvXs0_NtNtNtNtCs4LPn2VmCcs_3oml4core9evaluator7extract5basicNtNtNtNtBd_8language6syntax9accessors14DirectAccessorNtBb_19AsyncFieldExtractor18extract_more_async
FN:106,_RNvXs0_NtNtNtNtCs4LPn2VmCcs_3oml4core9evaluator7extract5basicNtNtNtNtBd_8language6syntax9accessors14DirectAccessorNtBb_19AsyncFieldExtractor19support_batch_async
FN:87,_RNvXs0_NtNtNtNtCs4LPn2VmCcs_3oml4core9evaluator7extract5basicNtNtNtNtBd_8language6syntax9accessors14DirectAccessorNtBb_19AsyncFieldExtractor21extract_storage_async
FN:48,_RNvMs_NtNtNtNtCs4LPn2VmCcs_3oml4core9evaluator7extract5basicNtNtNtNtBc_8language6syntax9accessors14DirectAccessor12extract_more
FN:60,_RNvMs_NtNtNtNtCs4LPn2VmCcs_3oml4core9evaluator7extract5basicNtNtNtNtBc_8language6syntax9accessors14DirectAccessor13support_batch
FN:48,_RNvMs_NtNtNtNtCsikXTExXJHPl_3oml4core9evaluator7extract5basicNtNtNtNtBc_8language6syntax9accessors14DirectAccessor12extract_more
FN:60,_RNvMs_NtNtNtNtCsikXTExXJHPl_3oml4core9evaluator7extract5basicNtNtNtNtBc_8language6syntax9accessors14DirectAccessor13support_batch
FN:99,_RNvXs0_NtNtNtNtCsikXTExXJHPl_3oml4core9evaluator7extract5basicNtNtNtNtBd_8language6syntax9accessors14DirectAccessorNtBb_19AsyncFieldExtractor18extract_more_async
FN:106,_RNvXs0_NtNtNtNtCsikXTExXJHPl_3oml4core9evaluator7extract5basicNtNtNtNtBd_8language6syntax9accessors14DirectAccessorNtBb_19AsyncFieldExtractor19support_batch_async
FN:26,_RNvMs_NtNtNtNtCsikXTExXJHPl_3oml4core9evaluator7extract5basicNtNtNtNtBc_8language6syntax9accessors14DirectAccessor11extract_one
FN:38,_RNvMs_NtNtNtNtCsikXTExXJHPl_3oml4core9evaluator7extract5basicNtNtNtNtBc_8language6syntax9accessors14DirectAccessor15extract_storage
FN:11,_RNvXNtNtNtNtCsikXTExXJHPl_3oml4core9evaluator7extract5basicNtNtNtNtBa_8language6syntax9accessors14DirectAccessorNtNtB6_6traits14FieldCollector12collect_item
FN:75,_RNvXs0_NtNtNtNtCsikXTExXJHPl_3oml4core9evaluator7extract5basicNtNtNtNtBd_8language6syntax9accessors14DirectAccessorNtBb_19AsyncFieldExtractor17extract_one_async
FN:87,_RNvXs0_NtNtNtNtCsikXTExXJHPl_3oml4core9evaluator7extract5basicNtNtNtNtBd_8language6syntax9accessors14DirectAccessorNtBb_19AsyncFieldExtractor21extract_storage_async
FNDA:3,_RNvMs_NtNtNtNtCs4LPn2VmCcs_3oml4core9evaluator7extract5basicNtNtNtNtBc_8language6syntax9accessors14DirectAccessor11extract_one
FNDA:0,_RNvMs_NtNtNtNtCs4LPn2VmCcs_3oml4core9evaluator7extract5basicNtNtNtNtBc_8language6syntax9accessors14DirectAccessor15extract_storage
FNDA:2,_RNvXNtNtNtNtCs4LPn2VmCcs_3oml4core9evaluator7extract5basicNtNtNtNtBa_8language6syntax9accessors14DirectAccessorNtNtB6_6traits14FieldCollector12collect_item
FNDA:94,_RNvXs0_NtNtNtNtCs4LPn2VmCcs_3oml4core9evaluator7extract5basicNtNtNtNtBd_8language6syntax9accessors14DirectAccessorNtBb_19AsyncFieldExtractor17extract_one_async
FNDA:0,_RNvXs0_NtNtNtNtCs4LPn2VmCcs_3oml4core9evaluator7extract5basicNtNtNtNtBd_8language6syntax9accessors14DirectAccessorNtBb_19AsyncFieldExtractor18extract_more_async
FNDA:0,_RNvXs0_NtNtNtNtCs4LPn2VmCcs_3oml4core9evaluator7extract5basicNtNtNtNtBd_8language6syntax9accessors14DirectAccessorNtBb_19AsyncFieldExtractor19support_batch_async
FNDA:41,_RNvXs0_NtNtNtNtCs4LPn2VmCcs_3oml4core9evaluator7extract5basicNtNtNtNtBd_8language6syntax9accessors14DirectAccessorNtBb_19AsyncFieldExtractor21extract_storage_async
FNDA:0,_RNvMs_NtNtNtNtCs4LPn2VmCcs_3oml4core9evaluator7extract5basicNtNtNtNtBc_8language6syntax9accessors14DirectAccessor12extract_more
FNDA:0,_RNvMs_NtNtNtNtCs4LPn2VmCcs_3oml4core9evaluator7extract5basicNtNtNtNtBc_8language6syntax9accessors14DirectAccessor13support_batch
FNDA:0,_RNvMs_NtNtNtNtCsikXTExXJHPl_3oml4core9evaluator7extract5basicNtNtNtNtBc_8language6syntax9accessors14DirectAccessor12extract_more
FNDA:0,_RNvMs_NtNtNtNtCsikXTExXJHPl_3oml4core9evaluator7extract5basicNtNtNtNtBc_8language6syntax9accessors14DirectAccessor13support_batch
FNDA:0,_RNvXs0_NtNtNtNtCsikXTExXJHPl_3oml4core9evaluator7extract5basicNtNtNtNtBd_8language6syntax9accessors14DirectAccessorNtBb_19AsyncFieldExtractor18extract_more_async
FNDA:0,_RNvXs0_NtNtNtNtCsikXTExXJHPl_3oml4core9evaluator7extract5basicNtNtNtNtBd_8language6syntax9accessors14DirectAccessorNtBb_19AsyncFieldExtractor19support_batch_async
FNDA:36,_RNvMs_NtNtNtNtCsikXTExXJHPl_3oml4core9evaluator7extract5basicNtNtNtNtBc_8language6syntax9accessors14DirectAccessor11extract_one
FNDA:8,_RNvMs_NtNtNtNtCsikXTExXJHPl_3oml4core9evaluator7extract5basicNtNtNtNtBc_8language6syntax9accessors14DirectAccessor15extract_storage
FNDA:3,_RNvXNtNtNtNtCsikXTExXJHPl_3oml4core9evaluator7extract5basicNtNtNtNtBa_8language6syntax9accessors14DirectAccessorNtNtB6_6traits14FieldCollector12collect_item
FNDA:51,_RNvXs0_NtNtNtNtCsikXTExXJHPl_3oml4core9evaluator7extract5basicNtNtNtNtBd_8language6syntax9accessors14DirectAccessorNtBb_19AsyncFieldExtractor17extract_one_async
FNDA:90,_RNvXs0_NtNtNtNtCsikXTExXJHPl_3oml4core9evaluator7extract5basicNtNtNtNtBd_8language6syntax9accessors14DirectAccessorNtBb_19AsyncFieldExtractor21extract_storage_async
FNF:9
FNH:5
DA:11,5
DA:12,5
DA:13,5
DA:14,5
DA:15,5
DA:16,5
DA:17,5
DA:18,4
DA:19,1
DA:21,5
DA:26,39
DA:27,39
DA:28,39
DA:29,39
DA:30,39
DA:31,39
DA:32,39
DA:33,0
DA:34,39
DA:36,39
DA:38,8
DA:39,8
DA:40,8
DA:41,8
DA:42,8
DA:43,8
DA:44,8
DA:45,8
DA:46,8
DA:48,0
DA:49,0
DA:50,0
DA:51,0
DA:52,0
DA:53,0
DA:54,0
DA:55,0
DA:56,0
DA:58,0
DA:60,0
DA:61,0
DA:62,0
DA:63,0
DA:65,0
DA:75,145
DA:80,145
DA:87,131
DA:92,131
DA:99,0
DA:104,0
DA:106,0
DA:107,0
DA:108,0
DA:109,0
DA:111,0
BRF:0
BRH:0
LF:55
LH:32
end_of_record
SF:/Users/zwk/src_code/wp-labs/wp-motor/crates/wp-oml/src/core/evaluator/extract/basic/read.rs
FN:115,_RNvNtNtNtNtNtCs4LPn2VmCcs_3oml4core9evaluator7extract5basic4read15find_tdc_target
FN:143,_RNvNtNtNtNtNtCs4LPn2VmCcs_3oml4core9evaluator7extract5basic4read15find_tdr_target
FN:130,_RNvNtNtNtNtNtCs4LPn2VmCcs_3oml4core9evaluator7extract5basic4read23find_tdc_target_storage
FN:159,_RNvNtNtNtNtNtCs4LPn2VmCcs_3oml4core9evaluator7extract5basic4read23find_tdr_target_storage
FN:71,_RNvMNtNtNtNtNtCs4LPn2VmCcs_3oml4core9evaluator7extract5basic4readNtNtNtNtNtNtBc_8language6syntax9accessors6direct4read9FieldRead12extract_more
FN:80,_RNvMNtNtNtNtNtCs4LPn2VmCcs_3oml4core9evaluator7extract5basic4readNtNtNtNtNtNtBc_8language6syntax9accessors6direct4read9FieldRead13support_batch
FN:7,_RNvMNtNtNtNtNtCs4LPn2VmCcs_3oml4core9evaluator7extract5basic4readNtNtNtNtNtNtBc_8language6syntax9accessors6direct4read9FieldRead11extract_one
FN:37,_RNvMNtNtNtNtNtCs4LPn2VmCcs_3oml4core9evaluator7extract5basic4readNtNtNtNtNtNtBc_8language6syntax9accessors6direct4read9FieldRead15extract_storage
FN:92,_RNvXs0_NtNtNtNtNtCs4LPn2VmCcs_3oml4core9evaluator7extract5basic4readNtNtNtNtNtNtBf_8language6syntax9accessors6direct4read9FieldReadNtBd_19AsyncFieldExtractor17extract_one_async
FN:110,_RNvXs0_NtNtNtNtNtCs4LPn2VmCcs_3oml4core9evaluator7extract5basic4readNtNtNtNtNtNtBf_8language6syntax9accessors6direct4read9FieldReadNtBd_19AsyncFieldExtractor18extract_more_async
FN:101,_RNvXs0_NtNtNtNtNtCs4LPn2VmCcs_3oml4core9evaluator7extract5basic4readNtNtNtNtNtNtBf_8language6syntax9accessors6direct4read9FieldReadNtBd_19AsyncFieldExtractor21extract_storage_async
FN:172,_RNvXs_NtNtNtNtNtCs4LPn2VmCcs_3oml4core9evaluator7extract5basic4readNtNtNtNtNtNtBe_8language6syntax9accessors6direct4read9FieldReadNtNtBa_6traits14FieldCollector12collect_item
FN:71,_RNvMNtNtNtNtNtCsikXTExXJHPl_3oml4core9evaluator7extract5basic4readNtNtNtNtNtNtBc_8language6syntax9accessors6direct4read9FieldRead12extract_more
FN:80,_RNvMNtNtNtNtNtCsikXTExXJHPl_3oml4core9evaluator7extract5basic4readNtNtNtNtNtNtBc_8language6syntax9accessors6direct4read9FieldRead13support_batch
FN:110,_RNvXs0_NtNtNtNtNtCsikXTExXJHPl_3oml4core9evaluator7extract5basic4readNtNtNtNtNtNtBf_8language6syntax9accessors6direct4read9FieldReadNtBd_19AsyncFieldExtractor18extract_more_async
FN:115,_RNvNtNtNtNtNtCsikXTExXJHPl_3oml4core9evaluator7extract5basic4read15find_tdc_target
FN:143,_RNvNtNtNtNtNtCsikXTExXJHPl_3oml4core9evaluator7extract5basic4read15find_tdr_target
FN:130,_RNvNtNtNtNtNtCsikXTExXJHPl_3oml4core9evaluator7extract5basic4read23find_tdc_target_storage
FN:159,_RNvNtNtNtNtNtCsikXTExXJHPl_3oml4core9evaluator7extract5basic4read23find_tdr_target_storage
FN:7,_RNvMNtNtNtNtNtCsikXTExXJHPl_3oml4core9evaluator7extract5basic4readNtNtNtNtNtNtBc_8language6syntax9accessors6direct4read9FieldRead11extract_one
FN:37,_RNvMNtNtNtNtNtCsikXTExXJHPl_3oml4core9evaluator7extract5basic4readNtNtNtNtNtNtBc_8language6syntax9accessors6direct4read9FieldRead15extract_storage
FN:92,_RNvXs0_NtNtNtNtNtCsikXTExXJHPl_3oml4core9evaluator7extract5basic4readNtNtNtNtNtNtBf_8language6syntax9accessors6direct4read9FieldReadNtBd_19AsyncFieldExtractor17extract_one_async
FN:101,_RNvXs0_NtNtNtNtNtCsikXTExXJHPl_3oml4core9evaluator7extract5basic4readNtNtNtNtNtNtBf_8language6syntax9accessors6direct4read9FieldReadNtBd_19AsyncFieldExtractor21extract_storage_async
FN:172,_RNvXs_NtNtNtNtNtCsikXTExXJHPl_3oml4core9evaluator7extract5basic4readNtNtNtNtNtNtBe_8language6syntax9accessors6direct4read9FieldReadNtNtBa_6traits14FieldCollector12collect_item
FNDA:40,_RNvNtNtNtNtNtCs4LPn2VmCcs_3oml4core9evaluator7extract5basic4read15find_tdc_target
FNDA:38,_RNvNtNtNtNtNtCs4LPn2VmCcs_3oml4core9evaluator7extract5basic4read15find_tdr_target
FNDA:26,_RNvNtNtNtNtNtCs4LPn2VmCcs_3oml4core9evaluator7extract5basic4read23find_tdc_target_storage
FNDA:9,_RNvNtNtNtNtNtCs4LPn2VmCcs_3oml4core9evaluator7extract5basic4read23find_tdr_target_storage
FNDA:0,_RNvMNtNtNtNtNtCs4LPn2VmCcs_3oml4core9evaluator7extract5basic4readNtNtNtNtNtNtBc_8language6syntax9accessors6direct4read9FieldRead12extract_more
FNDA:0,_RNvMNtNtNtNtNtCs4LPn2VmCcs_3oml4core9evaluator7extract5basic4readNtNtNtNtNtNtBc_8language6syntax9accessors6direct4read9FieldRead13support_batch
FNDA:40,_RNvMNtNtNtNtNtCs4LPn2VmCcs_3oml4core9evaluator7extract5basic4readNtNtNtNtNtNtBc_8language6syntax9accessors6direct4read9FieldRead11extract_one
FNDA:26,_RNvMNtNtNtNtNtCs4LPn2VmCcs_3oml4core9evaluator7extract5basic4readNtNtNtNtNtNtBc_8language6syntax9accessors6direct4read9FieldRead15extract_storage
FNDA:37,_RNvXs0_NtNtNtNtNtCs4LPn2VmCcs_3oml4core9evaluator7extract5basic4readNtNtNtNtNtNtBf_8language6syntax9accessors6direct4read9FieldReadNtBd_19AsyncFieldExtractor17extract_one_async
FNDA:0,_RNvXs0_NtNtNtNtNtCs4LPn2VmCcs_3oml4core9evaluator7extract5basic4readNtNtNtNtNtNtBf_8language6syntax9accessors6direct4read9FieldReadNtBd_19AsyncFieldExtractor18extract_more_async
FNDA:26,_RNvXs0_NtNtNtNtNtCs4LPn2VmCcs_3oml4core9evaluator7extract5basic4readNtNtNtNtNtNtBf_8language6syntax9accessors6direct4read9FieldReadNtBd_19AsyncFieldExtractor21extract_storage_async
FNDA:0,_RNvXs_NtNtNtNtNtCs4LPn2VmCcs_3oml4core9evaluator7extract5basic4readNtNtNtNtNtNtBe_8language6syntax9accessors6direct4read9FieldReadNtNtBa_6traits14FieldCollector12collect_item
FNDA:0,_RNvMNtNtNtNtNtCsikXTExXJHPl_3oml4core9evaluator7extract5basic4readNtNtNtNtNtNtBc_8language6syntax9accessors6direct4read9FieldRead12extract_more
FNDA:0,_RNvMNtNtNtNtNtCsikXTExXJHPl_3oml4core9evaluator7extract5basic4readNtNtNtNtNtNtBc_8language6syntax9accessors6direct4read9FieldRead13support_batch
FNDA:0,_RNvXs0_NtNtNtNtNtCsikXTExXJHPl_3oml4core9evaluator7extract5basic4readNtNtNtNtNtNtBf_8language6syntax9accessors6direct4read9FieldReadNtBd_19AsyncFieldExtractor18extract_more_async
FNDA:87,_RNvNtNtNtNtNtCsikXTExXJHPl_3oml4core9evaluator7extract5basic4read15find_tdc_target
FNDA:84,_RNvNtNtNtNtNtCsikXTExXJHPl_3oml4core9evaluator7extract5basic4read15find_tdr_target
FNDA:69,_RNvNtNtNtNtNtCsikXTExXJHPl_3oml4core9evaluator7extract5basic4read23find_tdc_target_storage
FNDA:63,_RNvNtNtNtNtNtCsikXTExXJHPl_3oml4core9evaluator7extract5basic4read23find_tdr_target_storage
FNDA:87,_RNvMNtNtNtNtNtCsikXTExXJHPl_3oml4core9evaluator7extract5basic4readNtNtNtNtNtNtBc_8language6syntax9accessors6direct4read9FieldRead11extract_one
FNDA:69,_RNvMNtNtNtNtNtCsikXTExXJHPl_3oml4core9evaluator7extract5basic4readNtNtNtNtNtNtBc_8language6syntax9accessors6direct4read9FieldRead15extract_storage
FNDA:51,_RNvXs0_NtNtNtNtNtCsikXTExXJHPl_3oml4core9evaluator7extract5basic4readNtNtNtNtNtNtBf_8language6syntax9accessors6direct4read9FieldReadNtBd_19AsyncFieldExtractor17extract_one_async
FNDA:69,_RNvXs0_NtNtNtNtNtCsikXTExXJHPl_3oml4core9evaluator7extract5basic4readNtNtNtNtNtNtBf_8language6syntax9accessors6direct4read9FieldReadNtBd_19AsyncFieldExtractor21extract_storage_async
FNDA:1,_RNvXs_NtNtNtNtNtCsikXTExXJHPl_3oml4core9evaluator7extract5basic4readNtNtNtNtNtNtBe_8language6syntax9accessors6direct4read9FieldReadNtNtBa_6traits14FieldCollector12collect_item
FNF:12
FNH:9
DA:7,127
DA:8,127
DA:9,127
DA:10,127
DA:11,127
DA:12,127
DA:13,127
DA:14,127
DA:15,127
DA:16,127
DA:17,127
DA:18,127
DA:19,127
DA:20,5
DA:21,122
DA:22,122
DA:23,120
DA:24,2
DA:26,2
DA:27,0
DA:28,0
DA:29,0
DA:30,0
DA:31,0
DA:32,0
DA:34,2
DA:35,127
DA:37,95
DA:38,95
DA:39,95
DA:40,95
DA:41,95
DA:42,95
DA:43,95
DA:44,95
DA:45,95
DA:46,95
DA:47,95
DA:48,95
DA:51,95
DA:52,23
DA:53,72
DA:55,72
DA:56,68
DA:57,4
DA:60,4
DA:61,0
DA:62,0
DA:63,0
DA:64,0
DA:65,0
DA:66,0
DA:68,4
DA:69,95
DA:71,0
DA:72,0
DA:73,0
DA:74,0
DA:75,0
DA:76,0
DA:77,0
DA:78,0
DA:80,0
DA:81,0
DA:82,0
DA:92,88
DA:94,88
DA:101,95
DA:103,95
DA:110,0
DA:112,0
DA:115,127
DA:116,127
DA:117,127
DA:118,127
DA:119,127
DA:120,127
DA:121,127
DA:122,5
DA:124,5
DA:125,122
DA:126,122
DA:127,127
DA:130,95
DA:132,278
DA:133,206
DA:134,23
DA:135,0
DA:136,23
DA:137,23
DA:138,183
DA:140,72
DA:141,95
DA:143,122
DA:144,122
DA:145,122
DA:146,122
DA:147,122
DA:148,122
DA:149,122
DA:150,120
DA:152,120
DA:153,120
DA:154,2
DA:155,2
DA:156,122
DA:159,72
DA:161,233
DA:162,233
DA:163,68
DA:164,0
DA:165,68
DA:166,68
DA:167,165
DA:169,4
DA:170,72
DA:172,1
DA:173,1
DA:174,1
DA:175,1
DA:176,1
DA:177,1
DA:178,1
DA:180,2
DA:181,3
DA:182,3
DA:183,2
DA:184,2
DA:185,1
DA:188,0
DA:189,0
DA:190,0
DA:191,0
DA:192,0
DA:195,1
DA:196,1
BRF:0
BRH:0
LF:136
LH:104
end_of_record
SF:/Users/zwk/src_code/wp-labs/wp-motor/crates/wp-oml/src/core/evaluator/extract/basic/take.rs
FN:108,_RNvNtNtNtNtNtCs4LPn2VmCcs_3oml4core9evaluator7extract5basic4take13find_move_tdc
FN:92,_RNvNtNtNtNtNtCs4LPn2VmCcs_3oml4core9evaluator7extract5basic4take13find_move_tdo
FN:112,_RNCNvNtNtNtNtNtCs4LPn2VmCcs_3oml4core9evaluator7extract5basic4take13find_move_tdc0Bd_
FN:11,_RNvMNtNtNtNtNtCs4LPn2VmCcs_3oml4core9evaluator7extract5basic4takeNtNtNtNtNtNtBc_8language6syntax9accessors6direct4take9FieldTake11extract_one
FN:38,_RNvMNtNtNtNtNtCs4LPn2VmCcs_3oml4core9evaluator7extract5basic4takeNtNtNtNtNtNtBc_8language6syntax9accessors6direct4take9FieldTake15extract_storage
FN:69,_RNvXs0_NtNtNtNtNtCs4LPn2VmCcs_3oml4core9evaluator7extract5basic4takeNtNtNtNtNtNtBf_8language6syntax9accessors6direct4take9FieldTakeNtBd_19AsyncFieldExtractor17extract_one_async
FN:87,_RNvXs0_NtNtNtNtNtCs4LPn2VmCcs_3oml4core9evaluator7extract5basic4takeNtNtNtNtNtNtBf_8language6syntax9accessors6direct4take9FieldTakeNtBd_19AsyncFieldExtractor18extract_more_async
FN:78,_RNvXs0_NtNtNtNtNtCs4LPn2VmCcs_3oml4core9evaluator7extract5basic4takeNtNtNtNtNtNtBf_8language6syntax9accessors6direct4take9FieldTakeNtBd_19AsyncFieldExtractor21extract_storage_async
FN:117,_RNvXs_NtNtNtNtNtCs4LPn2VmCcs_3oml4core9evaluator7extract5basic4takeNtNtNtNtNtNtBe_8language6syntax9accessors6direct4take9FieldTakeNtNtBa_6traits14FieldCollector12collect_item
FN:48,_RNvMNtNtNtNtNtCs4LPn2VmCcs_3oml4core9evaluator7extract5basic4takeNtNtNtNtNtNtBc_8language6syntax9accessors6direct4take9FieldTake12extract_more
FN:57,_RNvMNtNtNtNtNtCs4LPn2VmCcs_3oml4core9evaluator7extract5basic4takeNtNtNtNtNtNtBc_8language6syntax9accessors6direct4take9FieldTake13support_batch
FN:48,_RNvMNtNtNtNtNtCsikXTExXJHPl_3oml4core9evaluator7extract5basic4takeNtNtNtNtNtNtBc_8language6syntax9accessors6direct4take9FieldTake12extract_more
FN:57,_RNvMNtNtNtNtNtCsikXTExXJHPl_3oml4core9evaluator7extract5basic4takeNtNtNtNtNtNtBc_8language6syntax9accessors6direct4take9FieldTake13support_batch
FN:87,_RNvXs0_NtNtNtNtNtCsikXTExXJHPl_3oml4core9evaluator7extract5basic4takeNtNtNtNtNtNtBf_8language6syntax9accessors6direct4take9FieldTakeNtBd_19AsyncFieldExtractor18extract_more_async
FN:108,_RNvNtNtNtNtNtCsikXTExXJHPl_3oml4core9evaluator7extract5basic4take13find_move_tdc
FN:92,_RNvNtNtNtNtNtCsikXTExXJHPl_3oml4core9evaluator7extract5basic4take13find_move_tdo
FN:11,_RNvMNtNtNtNtNtCsikXTExXJHPl_3oml4core9evaluator7extract5basic4takeNtNtNtNtNtNtBc_8language6syntax9accessors6direct4take9FieldTake11extract_one
FN:38,_RNvMNtNtNtNtNtCsikXTExXJHPl_3oml4core9evaluator7extract5basic4takeNtNtNtNtNtNtBc_8language6syntax9accessors6direct4take9FieldTake15extract_storage
FN:69,_RNvXs0_NtNtNtNtNtCsikXTExXJHPl_3oml4core9evaluator7extract5basic4takeNtNtNtNtNtNtBf_8language6syntax9accessors6direct4take9FieldTakeNtBd_19AsyncFieldExtractor17extract_one_async
FN:78,_RNvXs0_NtNtNtNtNtCsikXTExXJHPl_3oml4core9evaluator7extract5basic4takeNtNtNtNtNtNtBf_8language6syntax9accessors6direct4take9FieldTakeNtBd_19AsyncFieldExtractor21extract_storage_async
FN:117,_RNvXs_NtNtNtNtNtCsikXTExXJHPl_3oml4core9evaluator7extract5basic4takeNtNtNtNtNtNtBe_8language6syntax9accessors6direct4take9FieldTakeNtNtBa_6traits14FieldCollector12collect_item
FN:112,_RNCNvNtNtNtNtNtCsikXTExXJHPl_3oml4core9evaluator7extract5basic4take13find_move_tdc0Bd_
FNDA:74,_RNvNtNtNtNtNtCs4LPn2VmCcs_3oml4core9evaluator7extract5basic4take13find_move_tdc
FNDA:72,_RNvNtNtNtNtNtCs4LPn2VmCcs_3oml4core9evaluator7extract5basic4take13find_move_tdo
FNDA:4,_RNCNvNtNtNtNtNtCs4LPn2VmCcs_3oml4core9evaluator7extract5basic4take13find_move_tdc0Bd_
FNDA:72,_RNvMNtNtNtNtNtCs4LPn2VmCcs_3oml4core9evaluator7extract5basic4takeNtNtNtNtNtNtBc_8language6syntax9accessors6direct4take9FieldTake11extract_one
FNDA:15,_RNvMNtNtNtNtNtCs4LPn2VmCcs_3oml4core9evaluator7extract5basic4takeNtNtNtNtNtNtBc_8language6syntax9accessors6direct4take9FieldTake15extract_storage
FNDA:57,_RNvXs0_NtNtNtNtNtCs4LPn2VmCcs_3oml4core9evaluator7extract5basic4takeNtNtNtNtNtNtBf_8language6syntax9accessors6direct4take9FieldTakeNtBd_19AsyncFieldExtractor17extract_one_async
FNDA:0,_RNvXs0_NtNtNtNtNtCs4LPn2VmCcs_3oml4core9evaluator7extract5basic4takeNtNtNtNtNtNtBf_8language6syntax9accessors6direct4take9FieldTakeNtBd_19AsyncFieldExtractor18extract_more_async
FNDA:15,_RNvXs0_NtNtNtNtNtCs4LPn2VmCcs_3oml4core9evaluator7extract5basic4takeNtNtNtNtNtNtBf_8language6syntax9accessors6direct4take9FieldTakeNtBd_19AsyncFieldExtractor21extract_storage_async
FNDA:2,_RNvXs_NtNtNtNtNtCs4LPn2VmCcs_3oml4core9evaluator7extract5basic4takeNtNtNtNtNtNtBe_8language6syntax9accessors6direct4take9FieldTakeNtNtBa_6traits14FieldCollector12collect_item
FNDA:0,_RNvMNtNtNtNtNtCs4LPn2VmCcs_3oml4core9evaluator7extract5basic4takeNtNtNtNtNtNtBc_8language6syntax9accessors6direct4take9FieldTake12extract_more
FNDA:0,_RNvMNtNtNtNtNtCs4LPn2VmCcs_3oml4core9evaluator7extract5basic4takeNtNtNtNtNtNtBc_8language6syntax9accessors6direct4take9FieldTake13support_batch
FNDA:0,_RNvMNtNtNtNtNtCsikXTExXJHPl_3oml4core9evaluator7extract5basic4takeNtNtNtNtNtNtBc_8language6syntax9accessors6direct4take9FieldTake12extract_more
FNDA:0,_RNvMNtNtNtNtNtCsikXTExXJHPl_3oml4core9evaluator7extract5basic4takeNtNtNtNtNtNtBc_8language6syntax9accessors6direct4take9FieldTake13support_batch
FNDA:0,_RNvXs0_NtNtNtNtNtCsikXTExXJHPl_3oml4core9evaluator7extract5basic4takeNtNtNtNtNtNtBf_8language6syntax9accessors6direct4take9FieldTakeNtBd_19AsyncFieldExtractor18extract_more_async
FNDA:21,_RNvNtNtNtNtNtCsikXTExXJHPl_3oml4core9evaluator7extract5basic4take13find_move_tdc
FNDA:21,_RNvNtNtNtNtNtCsikXTExXJHPl_3oml4core9evaluator7extract5basic4take13find_move_tdo
FNDA:21,_RNvMNtNtNtNtNtCsikXTExXJHPl_3oml4core9evaluator7extract5basic4takeNtNtNtNtNtNtBc_8language6syntax9accessors6direct4take9FieldTake11extract_one
FNDA:21,_RNvMNtNtNtNtNtCsikXTExXJHPl_3oml4core9evaluator7extract5basic4takeNtNtNtNtNtNtBc_8language6syntax9accessors6direct4take9FieldTake15extract_storage
FNDA:0,_RNvXs0_NtNtNtNtNtCsikXTExXJHPl_3oml4core9evaluator7extract5basic4takeNtNtNtNtNtNtBf_8language6syntax9accessors6direct4take9FieldTakeNtBd_19AsyncFieldExtractor17extract_one_async
FNDA:21,_RNvXs0_NtNtNtNtNtCsikXTExXJHPl_3oml4core9evaluator7extract5basic4takeNtNtNtNtNtNtBf_8language6syntax9accessors6direct4take9FieldTakeNtBd_19AsyncFieldExtractor21extract_storage_async
FNDA:2,_RNvXs_NtNtNtNtNtCsikXTExXJHPl_3oml4core9evaluator7extract5basic4takeNtNtNtNtNtNtBe_8language6syntax9accessors6direct4take9FieldTakeNtNtBa_6traits14FieldCollector12collect_item
FNDA:6,_RNCNvNtNtNtNtNtCsikXTExXJHPl_3oml4core9evaluator7extract5basic4take13find_move_tdc0Bd_
FNF:11
FNH:8
DA:11,93
DA:12,93
DA:13,93
DA:14,93
DA:15,93
DA:16,93
DA:17,93
DA:18,93
DA:19,93
DA:20,93
DA:21,2
DA:22,91
DA:23,91
DA:24,89
DA:25,2
DA:27,2
DA:28,2
DA:29,0
DA:30,2
DA:31,2
DA:32,1
DA:33,1
DA:35,1
DA:36,93
DA:38,36
DA:39,36
DA:40,36
DA:41,36
DA:42,36
DA:43,36
DA:44,36
DA:45,36
DA:46,36
DA:48,0
DA:49,0
DA:50,0
DA:51,0
DA:52,0
DA:53,0
DA:54,0
DA:55,0
DA:57,0
DA:58,0
DA:59,0
DA:69,57
DA:71,57
DA:78,36
DA:80,36
DA:87,0
DA:89,0
DA:92,93
DA:93,93
DA:94,93
DA:95,93
DA:96,93
DA:97,93
DA:98,93
DA:99,90
DA:101,90
DA:102,90
DA:103,90
DA:104,3
DA:105,3
DA:106,93
DA:108,95
DA:109,95
DA:110,95
DA:111,95
DA:112,95
DA:113,2
DA:114,95
DA:117,4
DA:118,4
DA:119,4
DA:120,4
DA:121,4
DA:122,4
DA:123,4
DA:124,12
DA:125,36
DA:126,24
DA:127,12
DA:128,12
DA:131,4
DA:132,0
DA:133,0
DA:134,0
DA:135,0
DA:138,4
DA:139,4
BRF:0
BRH:0
LF:91
LH:73
end_of_record
SF:/Users/zwk/src_code/wp-labs/wp-motor/crates/wp-oml/src/core/evaluator/extract/operations/array.rs
FN:10,_RNvMNtNtNtNtNtCs4LPn2VmCcs_3oml4core9evaluator7extract10operations5arrayNtNtNtNtNtNtBc_8language6syntax9accessors6nested3arr12ArrOperation11extract_one
FN:25,_RNvMNtNtNtNtNtCs4LPn2VmCcs_3oml4core9evaluator7extract10operations5arrayNtNtNtNtNtNtBc_8language6syntax9accessors6nested3arr12ArrOperation15extract_storage
FN:56,_RNvXs_NtNtNtNtNtCs4LPn2VmCcs_3oml4core9evaluator7extract10operations5arrayNtNtNtNtNtNtBe_8language6syntax9accessors6nested3arr12ArrOperationNtBc_19AsyncFieldExtractor17extract_one_async
FN:74,_RNvXs_NtNtNtNtNtCs4LPn2VmCcs_3oml4core9evaluator7extract10operations5arrayNtNtNtNtNtNtBe_8language6syntax9accessors6nested3arr12ArrOperationNtBc_19AsyncFieldExtractor18extract_more_async
FN:65,_RNvXs_NtNtNtNtNtCs4LPn2VmCcs_3oml4core9evaluator7extract10operations5arrayNtNtNtNtNtNtBe_8language6syntax9accessors6nested3arr12ArrOperationNtBc_19AsyncFieldExtractor21extract_storage_async
FN:35,_RNvMNtNtNtNtNtCs4LPn2VmCcs_3oml4core9evaluator7extract10operations5arrayNtNtNtNtNtNtBc_8language6syntax9accessors6nested3arr12ArrOperation12extract_more
FN:44,_RNvMNtNtNtNtNtCs4LPn2VmCcs_3oml4core9evaluator7extract10operations5arrayNtNtNtNtNtNtBc_8language6syntax9accessors6nested3arr12ArrOperation13support_batch
FN:35,_RNvMNtNtNtNtNtCsikXTExXJHPl_3oml4core9evaluator7extract10operations5arrayNtNtNtNtNtNtBc_8language6syntax9accessors6nested3arr12ArrOperation12extract_more
FN:44,_RNvMNtNtNtNtNtCsikXTExXJHPl_3oml4core9evaluator7extract10operations5arrayNtNtNtNtNtNtBc_8language6syntax9accessors6nested3arr12ArrOperation13support_batch
FN:10,_RNvMNtNtNtNtNtCsikXTExXJHPl_3oml4core9evaluator7extract10operations5arrayNtNtNtNtNtNtBc_8language6syntax9accessors6nested3arr12ArrOperation11extract_one
FN:25,_RNvMNtNtNtNtNtCsikXTExXJHPl_3oml4core9evaluator7extract10operations5arrayNtNtNtNtNtNtBc_8language6syntax9accessors6nested3arr12ArrOperation15extract_storage
FN:56,_RNvXs_NtNtNtNtNtCsikXTExXJHPl_3oml4core9evaluator7extract10operations5arrayNtNtNtNtNtNtBe_8language6syntax9accessors6nested3arr12ArrOperationNtBc_19AsyncFieldExtractor17extract_one_async
FN:74,_RNvXs_NtNtNtNtNtCsikXTExXJHPl_3oml4core9evaluator7extract10operations5arrayNtNtNtNtNtNtBe_8language6syntax9accessors6nested3arr12ArrOperationNtBc_19AsyncFieldExtractor18extract_more_async
FN:65,_RNvXs_NtNtNtNtNtCsikXTExXJHPl_3oml4core9evaluator7extract10operations5arrayNtNtNtNtNtNtBe_8language6syntax9accessors6nested3arr12ArrOperationNtBc_19AsyncFieldExtractor21extract_storage_async
FNDA:2,_RNvMNtNtNtNtNtCs4LPn2VmCcs_3oml4core9evaluator7extract10operations5arrayNtNtNtNtNtNtBc_8language6syntax9accessors6nested3arr12ArrOperation11extract_one
FNDA:2,_RNvMNtNtNtNtNtCs4LPn2VmCcs_3oml4core9evaluator7extract10operations5arrayNtNtNtNtNtNtBc_8language6syntax9accessors6nested3arr12ArrOperation15extract_storage
FNDA:0,_RNvXs_NtNtNtNtNtCs4LPn2VmCcs_3oml4core9evaluator7extract10operations5arrayNtNtNtNtNtNtBe_8language6syntax9accessors6nested3arr12ArrOperationNtBc_19AsyncFieldExtractor17extract_one_async
FNDA:0,_RNvXs_NtNtNtNtNtCs4LPn2VmCcs_3oml4core9evaluator7extract10operations5arrayNtNtNtNtNtNtBe_8language6syntax9accessors6nested3arr12ArrOperationNtBc_19AsyncFieldExtractor18extract_more_async
FNDA:2,_RNvXs_NtNtNtNtNtCs4LPn2VmCcs_3oml4core9evaluator7extract10operations5arrayNtNtNtNtNtNtBe_8language6syntax9accessors6nested3arr12ArrOperationNtBc_19AsyncFieldExtractor21extract_storage_async
FNDA:0,_RNvMNtNtNtNtNtCs4LPn2VmCcs_3oml4core9evaluator7extract10operations5arrayNtNtNtNtNtNtBc_8language6syntax9accessors6nested3arr12ArrOperation12extract_more
FNDA:0,_RNvMNtNtNtNtNtCs4LPn2VmCcs_3oml4core9evaluator7extract10operations5arrayNtNtNtNtNtNtBc_8language6syntax9accessors6nested3arr12ArrOperation13support_batch
FNDA:0,_RNvMNtNtNtNtNtCsikXTExXJHPl_3oml4core9evaluator7extract10operations5arrayNtNtNtNtNtNtBc_8language6syntax9accessors6nested3arr12ArrOperation12extract_more
FNDA:0,_RNvMNtNtNtNtNtCsikXTExXJHPl_3oml4core9evaluator7extract10operations5arrayNtNtNtNtNtNtBc_8language6syntax9accessors6nested3arr12ArrOperation13support_batch
FNDA:3,_RNvMNtNtNtNtNtCsikXTExXJHPl_3oml4core9evaluator7extract10operations5arrayNtNtNtNtNtNtBc_8language6syntax9accessors6nested3arr12ArrOperation11extract_one
FNDA:3,_RNvMNtNtNtNtNtCsikXTExXJHPl_3oml4core9evaluator7extract10operations5arrayNtNtNtNtNtNtBc_8language6syntax9accessors6nested3arr12ArrOperation15extract_storage
FNDA:0,_RNvXs_NtNtNtNtNtCsikXTExXJHPl_3oml4core9evaluator7extract10operations5arrayNtNtNtNtNtNtBe_8language6syntax9accessors6nested3arr12ArrOperationNtBc_19AsyncFieldExtractor17extract_one_async
FNDA:0,_RNvXs_NtNtNtNtNtCsikXTExXJHPl_3oml4core9evaluator7extract10operations5arrayNtNtNtNtNtNtBe_8language6syntax9accessors6nested3arr12ArrOperationNtBc_19AsyncFieldExtractor18extract_more_async
FNDA:3,_RNvXs_NtNtNtNtNtCsikXTExXJHPl_3oml4core9evaluator7extract10operations5arrayNtNtNtNtNtNtBe_8language6syntax9accessors6nested3arr12ArrOperationNtBc_19AsyncFieldExtractor21extract_storage_async
FNF:7
FNH:3
DA:10,5
DA:11,5
DA:12,5
DA:13,5
DA:14,5
DA:15,5
DA:16,5
DA:17,5
DA:18,5
DA:19,5
DA:21,0
DA:23,5
DA:25,5
DA:26,5
DA:27,5
DA:28,5
DA:29,5
DA:30,5
DA:31,5
DA:32,5
DA:33,5
DA:35,0
DA:36,0
DA:37,0
DA:38,0
DA:39,0
DA:40,0
DA:41,0
DA:42,0
DA:44,0
DA:45,0
DA:46,0
DA:56,0
DA:58,0
DA:65,5
DA:67,5
DA:74,0
DA:76,0
BRF:0
BRH:0
LF:38
LH:22
end_of_record
SF:/Users/zwk/src_code/wp-labs/wp-motor/crates/wp-oml/src/core/evaluator/extract/operations/calc.rs
FN:72,_RNCNvNtNtNtNtNtCs4LPn2VmCcs_3oml4core9evaluator7extract10operations4calc14operand_target0Bd_
FN:207,_RNCNvNtNtNtNtNtCs4LPn2VmCcs_3oml4core9evaluator7extract10operations4calc9eval_expr0Bd_
FN:224,_RNvMs0_NtNtNtNtNtCs4LPn2VmCcs_3oml4core9evaluator7extract10operations4calcNtNtNtNtNtBf_8language6syntax10operations4calc13CalcOperation11extract_one
FN:250,_RNvMs0_NtNtNtNtNtCs4LPn2VmCcs_3oml4core9evaluator7extract10operations4calcNtNtNtNtNtBf_8language6syntax10operations4calc13CalcOperation12extract_more
FN:259,_RNvMs0_NtNtNtNtNtCs4LPn2VmCcs_3oml4core9evaluator7extract10operations4calcNtNtNtNtNtBf_8language6syntax10operations4calc13CalcOperation13support_batch
FN:240,_RNvMs0_NtNtNtNtNtCs4LPn2VmCcs_3oml4core9evaluator7extract10operations4calcNtNtNtNtNtBf_8language6syntax10operations4calc13CalcOperation15extract_storage
FN:38,_RNvMs_NtNtNtNtNtCs4LPn2VmCcs_3oml4core9evaluator7extract10operations4calcNtNtNtNtNtBe_8language6syntax10operations4calc10CalcNumber13ensure_finite
FN:46,_RNvMs_NtNtNtNtNtCs4LPn2VmCcs_3oml4core9evaluator7extract10operations4calcNtNtNtNtNtBe_8language6syntax10operations4calc10CalcNumber6negate
FN:271,_RNvXs3_NtNtNtNtNtCs4LPn2VmCcs_3oml4core9evaluator7extract10operations4calcNtNtNtNtNtBf_8language6syntax10operations4calc13CalcOperationNtBd_19AsyncFieldExtractor17extract_one_async
FN:280,_RNvXs3_NtNtNtNtNtCs4LPn2VmCcs_3oml4core9evaluator7extract10operations4calcNtNtNtNtNtBf_8language6syntax10operations4calc13CalcOperationNtBd_19AsyncFieldExtractor21extract_storage_async
FN:56,_RINvMs_NtNtNtNtNtCs4LPn2VmCcs_3oml4core9evaluator7extract10operations4calcNtNtNtNtNtBf_8language6syntax10operations4calc10CalcNumber10into_fieldNtNtCsiTraAjBDcu4_5alloc6string6StringEBf_
FN:21,_RNvMNtNtNtNtNtCs4LPn2VmCcs_3oml4core9evaluator7extract10operations4calcNtB2_13CalcEvalError6detail
FN:99,_RNvNtNtNtNtNtCs4LPn2VmCcs_3oml4core9evaluator7extract10operations4calc11eval_binary
FN:65,_RNvNtNtNtNtNtCs4LPn2VmCcs_3oml4core9evaluator7extract10operations4calc14operand_target
FN:89,_RNvNtNtNtNtNtCs4LPn2VmCcs_3oml4core9evaluator7extract10operations4calc14to_i64_checked
FN:76,_RNvNtNtNtNtNtCs4LPn2VmCcs_3oml4core9evaluator7extract10operations4calc15field_to_number
FN:171,_RNvNtNtNtNtNtCs4LPn2VmCcs_3oml4core9evaluator7extract10operations4calc8eval_fun
FN:195,_RNvNtNtNtNtNtCs4LPn2VmCcs_3oml4core9evaluator7extract10operations4calc9eval_expr
FN:271,_RNvXs3_NtNtNtNtNtCsikXTExXJHPl_3oml4core9evaluator7extract10operations4calcNtNtNtNtNtBf_8language6syntax10operations4calc13CalcOperationNtBd_19AsyncFieldExtractor17extract_one_async
FN:280,_RNvXs3_NtNtNtNtNtCsikXTExXJHPl_3oml4core9evaluator7extract10operations4calcNtNtNtNtNtBf_8language6syntax10operations4calc13CalcOperationNtBd_19AsyncFieldExtractor21extract_storage_async
FN:332,_RNvNtNtNtNtNtNtCsikXTExXJHPl_3oml4core9evaluator7extract10operations4calc5testss_19test_calc_functions
FN:317,_RNvNtNtNtNtNtNtCsikXTExXJHPl_3oml4core9evaluator7extract10operations4calc5testss_29test_calc_operator_precedence
FN:294,_RNvNtNtNtNtNtNtCsikXTExXJHPl_3oml4core9evaluator7extract10operations4calc5testss_34test_calc_mixed_numeric_expression
FN:370,_RNvNtNtNtNtNtNtCsikXTExXJHPl_3oml4core9evaluator7extract10operations4calc5testss_39test_calc_divide_by_zero_returns_ignore
FN:564,_RNvNtNtNtNtNtNtCsikXTExXJHPl_3oml4core9evaluator7extract10operations4calc5testss_40test_calc_mixed_numeric_expression_async
FN:443,_RNvNtNtNtNtNtNtCsikXTExXJHPl_3oml4core9evaluator7extract10operations4calc5testss_41test_calc_integer_overflow_returns_ignore
FN:389,_RNvNtNtNtNtNtNtCsikXTExXJHPl_3oml4core9evaluator7extract10operations4calc5testss_47test_calc_missing_or_non_numeric_returns_ignore
FN:417,_RNvNtNtNtNtNtNtCsikXTExXJHPl_3oml4core9evaluator7extract10operations4calc5testss_50test_calc_mod_success_and_float_mod_returns_ignore
FN:531,_RNvNtNtNtNtNtNtCsikXTExXJHPl_3oml4core9evaluator7extract10operations4calc5testss_51test_calc_non_finite_input_and_result_return_ignore
FN:500,_RNvNtNtNtNtNtNtCsikXTExXJHPl_3oml4core9evaluator7extract10operations4calc5testss_53test_calc_round_floor_ceil_preserve_large_digit_input
FN:469,_RNvNtNtNtNtNtNtCsikXTExXJHPl_3oml4core9evaluator7extract10operations4calc5testss_58test_calc_min_value_abs_neg_and_mod_overflow_return_ignore
FN:224,_RNvMs0_NtNtNtNtNtCsikXTExXJHPl_3oml4core9evaluator7extract10operations4calcNtNtNtNtNtBf_8language6syntax10operations4calc13CalcOperation11extract_one
FN:250,_RNvMs0_NtNtNtNtNtCsikXTExXJHPl_3oml4core9evaluator7extract10operations4calcNtNtNtNtNtBf_8language6syntax10operations4calc13CalcOperation12extract_more
FN:259,_RNvMs0_NtNtNtNtNtCsikXTExXJHPl_3oml4core9evaluator7extract10operations4calcNtNtNtNtNtBf_8language6syntax10operations4calc13CalcOperation13support_batch
FN:240,_RNvMs0_NtNtNtNtNtCsikXTExXJHPl_3oml4core9evaluator7extract10operations4calcNtNtNtNtNtBf_8language6syntax10operations4calc13CalcOperation15extract_storage
FN:38,_RNvMs_NtNtNtNtNtCsikXTExXJHPl_3oml4core9evaluator7extract10operations4calcNtNtNtNtNtBe_8language6syntax10operations4calc10CalcNumber13ensure_finite
FN:46,_RNvMs_NtNtNtNtNtCsikXTExXJHPl_3oml4core9evaluator7extract10operations4calcNtNtNtNtNtBe_8language6syntax10operations4calc10CalcNumber6negate
FN:352,_RNCNCNvNtNtNtNtNtNtCsikXTExXJHPl_3oml4core9evaluator7extract10operations4calc5testss_19test_calc_functions00Bh_
FN:360,_RNCNCNvNtNtNtNtNtNtCsikXTExXJHPl_3oml4core9evaluator7extract10operations4calc5testss_19test_calc_functions0s0_0Bh_
FN:364,_RNCNCNvNtNtNtNtNtNtCsikXTExXJHPl_3oml4core9evaluator7extract10operations4calc5testss_19test_calc_functions0s1_0Bh_
FN:356,_RNCNCNvNtNtNtNtNtNtCsikXTExXJHPl_3oml4core9evaluator7extract10operations4calc5testss_19test_calc_functions0s_0Bh_
FN:457,_RNCNCNvNtNtNtNtNtNtCsikXTExXJHPl_3oml4core9evaluator7extract10operations4calc5testss_41test_calc_integer_overflow_returns_ignore00Bh_
FN:463,_RNCNCNvNtNtNtNtNtNtCsikXTExXJHPl_3oml4core9evaluator7extract10operations4calc5testss_41test_calc_integer_overflow_returns_ignore0s_0Bh_
FN:407,_RNCNCNvNtNtNtNtNtNtCsikXTExXJHPl_3oml4core9evaluator7extract10operations4calc5testss_47test_calc_missing_or_non_numeric_returns_ignore00Bh_
FN:411,_RNCNCNvNtNtNtNtNtNtCsikXTExXJHPl_3oml4core9evaluator7extract10operations4calc5testss_47test_calc_missing_or_non_numeric_returns_ignore0s_0Bh_
FN:433,_RNCNCNvNtNtNtNtNtNtCsikXTExXJHPl_3oml4core9evaluator7extract10operations4calc5testss_50test_calc_mod_success_and_float_mod_returns_ignore00Bh_
FN:437,_RNCNCNvNtNtNtNtNtNtCsikXTExXJHPl_3oml4core9evaluator7extract10operations4calc5testss_50test_calc_mod_success_and_float_mod_returns_ignore0s_0Bh_
FN:550,_RNCNCNvNtNtNtNtNtNtCsikXTExXJHPl_3oml4core9evaluator7extract10operations4calc5testss_51test_calc_non_finite_input_and_result_return_ignore00Bh_
FN:558,_RNCNCNvNtNtNtNtNtNtCsikXTExXJHPl_3oml4core9evaluator7extract10operations4calc5testss_51test_calc_non_finite_input_and_result_return_ignore0s0_0Bh_
FN:554,_RNCNCNvNtNtNtNtNtNtCsikXTExXJHPl_3oml4core9evaluator7extract10operations4calc5testss_51test_calc_non_finite_input_and_result_return_ignore0s_0Bh_
FN:517,_RNCNCNvNtNtNtNtNtNtCsikXTExXJHPl_3oml4core9evaluator7extract10operations4calc5testss_53test_calc_round_floor_ceil_preserve_large_digit_input00Bh_
FN:525,_RNCNCNvNtNtNtNtNtNtCsikXTExXJHPl_3oml4core9evaluator7extract10operations4calc5testss_53test_calc_round_floor_ceil_preserve_large_digit_input0s0_0Bh_
FN:521,_RNCNCNvNtNtNtNtNtNtCsikXTExXJHPl_3oml4core9evaluator7extract10operations4calc5testss_53test_calc_round_floor_ceil_preserve_large_digit_input0s_0Bh_
FN:486,_RNCNCNvNtNtNtNtNtNtCsikXTExXJHPl_3oml4core9evaluator7extract10operations4calc5testss_58test_calc_min_value_abs_neg_and_mod_overflow_return_ignore00Bh_
FN:494,_RNCNCNvNtNtNtNtNtNtCsikXTExXJHPl_3oml4core9evaluator7extract10operations4calc5testss_58test_calc_min_value_abs_neg_and_mod_overflow_return_ignore0s0_0Bh_
FN:490,_RNCNCNvNtNtNtNtNtNtCsikXTExXJHPl_3oml4core9evaluator7extract10operations4calc5testss_58test_calc_min_value_abs_neg_and_mod_overflow_return_ignore0s_0Bh_
FN:332,_RNCNvNtNtNtNtNtNtCsikXTExXJHPl_3oml4core9evaluator7extract10operations4calc5testss_19test_calc_functions0Bf_
FN:317,_RNCNvNtNtNtNtNtNtCsikXTExXJHPl_3oml4core9evaluator7extract10operations4calc5testss_29test_calc_operator_precedence0Bf_
FN:294,_RNCNvNtNtNtNtNtNtCsikXTExXJHPl_3oml4core9evaluator7extract10operations4calc5testss_34test_calc_mixed_numeric_expression0Bf_
FN:370,_RNCNvNtNtNtNtNtNtCsikXTExXJHPl_3oml4core9evaluator7extract10operations4calc5testss_39test_calc_divide_by_zero_returns_ignore0Bf_
FN:564,_RNCNvNtNtNtNtNtNtCsikXTExXJHPl_3oml4core9evaluator7extract10operations4calc5testss_40test_calc_mixed_numeric_expression_async0Bf_
FN:443,_RNCNvNtNtNtNtNtNtCsikXTExXJHPl_3oml4core9evaluator7extract10operations4calc5testss_41test_calc_integer_overflow_returns_ignore0Bf_
FN:389,_RNCNvNtNtNtNtNtNtCsikXTExXJHPl_3oml4core9evaluator7extract10operations4calc5testss_47test_calc_missing_or_non_numeric_returns_ignore0Bf_
FN:417,_RNCNvNtNtNtNtNtNtCsikXTExXJHPl_3oml4core9evaluator7extract10operations4calc5testss_50test_calc_mod_success_and_float_mod_returns_ignore0Bf_
FN:531,_RNCNvNtNtNtNtNtNtCsikXTExXJHPl_3oml4core9evaluator7extract10operations4calc5testss_51test_calc_non_finite_input_and_result_return_ignore0Bf_
FN:500,_RNCNvNtNtNtNtNtNtCsikXTExXJHPl_3oml4core9evaluator7extract10operations4calc5testss_53test_calc_round_floor_ceil_preserve_large_digit_input0Bf_
FN:469,_RNCNvNtNtNtNtNtNtCsikXTExXJHPl_3oml4core9evaluator7extract10operations4calc5testss_58test_calc_min_value_abs_neg_and_mod_overflow_return_ignore0Bf_
FN:56,_RINvMs_NtNtNtNtNtCsikXTExXJHPl_3oml4core9evaluator7extract10operations4calcNtNtNtNtNtBf_8language6syntax10operations4calc10CalcNumber10into_fieldNtNtCsiTraAjBDcu4_5alloc6string6StringEBf_
FN:21,_RNvMNtNtNtNtNtCsikXTExXJHPl_3oml4core9evaluator7extract10operations4calcNtB2_13CalcEvalError6detail
FN:99,_RNvNtNtNtNtNtCsikXTExXJHPl_3oml4core9evaluator7extract10operations4calc11eval_binary
FN:65,_RNvNtNtNtNtNtCsikXTExXJHPl_3oml4core9evaluator7extract10operations4calc14operand_target
FN:89,_RNvNtNtNtNtNtCsikXTExXJHPl_3oml4core9evaluator7extract10operations4calc14to_i64_checked
